
./hex/clock.elf:     file format elf32-msp430


Disassembly of section .text:

0000c000 <__watchdog_support>:
    c000:	55 42 20 01 	mov.b	&0x0120,r5	
    c004:	35 d0 08 5a 	bis	#23048,	r5	;#0x5a08
    c008:	82 45 36 02 	mov	r5,	&0x0236	

0000c00c <__init_stack>:
    c00c:	31 40 00 04 	mov	#1024,	r1	;#0x0400

0000c010 <__do_copy_data>:
    c010:	3f 40 00 00 	mov	#0,	r15	;#0x0000
    c014:	0f 93       	tst	r15		
    c016:	08 24       	jz	$+18     	;abs 0xc028
    c018:	92 42 36 02 	mov	&0x0236,&0x0120	
    c01c:	20 01 
    c01e:	2f 83       	decd	r15		
    c020:	9f 4f b4 d3 	mov	-11340(r15),512(r15);0xd3b4(r15), 0x0200(r15)
    c024:	00 02 
    c026:	f8 23       	jnz	$-14     	;abs 0xc018

0000c028 <__do_clear_bss>:
    c028:	3f 40 36 00 	mov	#54,	r15	;#0x0036
    c02c:	0f 93       	tst	r15		
    c02e:	07 24       	jz	$+16     	;abs 0xc03e
    c030:	92 42 36 02 	mov	&0x0236,&0x0120	
    c034:	20 01 
    c036:	1f 83       	dec	r15		
    c038:	cf 43 00 02 	mov.b	#0,	512(r15);r3 As==00, 0x0200(r15)
    c03c:	f9 23       	jnz	$-12     	;abs 0xc030

0000c03e <main>:
    c03e:	04 41       	mov	r1,	r4	
    c040:	24 53       	incd	r4		
    c042:	21 83       	decd	r1		
    c044:	84 43 fc ff 	mov	#0,	-4(r4)	;r3 As==00, 0xfffc(r4)
    c048:	b0 12 40 c1 	call	#0xc140	
    c04c:	b0 12 50 c6 	call	#0xc650	
    c050:	5e 43       	mov.b	#1,	r14	;r3 As==01
    c052:	3f 40 9a d3 	mov	#-11366,r15	;#0xd39a
    c056:	b0 12 a4 c5 	call	#0xc5a4	
    c05a:	b2 40 a8 d3 	mov	#-11352,&0x0204	;#0xd3a8
    c05e:	04 02 
    c060:	5f 42 22 00 	mov.b	&0x0022,r15	
    c064:	7f d0 41 00 	bis.b	#65,	r15	;#0x0041
    c068:	c2 4f 22 00 	mov.b	r15,	&0x0022	
    c06c:	3f 40 06 00 	mov	#6,	r15	;#0x0006
    c070:	3e 40 0e 16 	mov	#5646,	r14	;#0x160e
    c074:	1e 83       	dec	r14		
    c076:	0e 93       	tst	r14		
    c078:	fd 23       	jnz	$-4      	;abs 0xc074
    c07a:	1f 83       	dec	r15		
    c07c:	0f 93       	tst	r15		
    c07e:	fa 23       	jnz	$-10     	;abs 0xc074
    c080:	e2 43 2a 02 	mov.b	#2,	&0x022a	;r3 As==10
    c084:	f2 40 b7 ff 	mov.b	#-73,	&0x022b	;#0xffb7
    c088:	2b 02 
    c08a:	5f 42 2a 02 	mov.b	&0x022a,r15	
    c08e:	4f 4f       	mov.b	r15,	r15	
    c090:	4f 4f       	mov.b	r15,	r15	
    c092:	8f 10       	swpb	r15		
    c094:	5e 42 2b 02 	mov.b	&0x022b,r14	
    c098:	4e 4e       	mov.b	r14,	r14	
    c09a:	0d 4f       	mov	r15,	r13	
    c09c:	0d de       	bis	r14,	r13	
    c09e:	84 4d fc ff 	mov	r13,	-4(r4)	;0xfffc(r4)
    c0a2:	3f 40 0b 00 	mov	#11,	r15	;#0x000b
    c0a6:	3e 40 1e 2c 	mov	#11294,	r14	;#0x2c1e
    c0aa:	1e 83       	dec	r14		
    c0ac:	0e 93       	tst	r14		
    c0ae:	fd 23       	jnz	$-4      	;abs 0xc0aa
    c0b0:	1f 83       	dec	r15		
    c0b2:	0f 93       	tst	r15		
    c0b4:	fa 23       	jnz	$-10     	;abs 0xc0aa
    c0b6:	03 43       	nop			
    c0b8:	1f 42 04 02 	mov	&0x0204,r15	
    c0bc:	14 12 fc ff 	push	-4(r4)		;0xfffc(r4)
    c0c0:	30 12 a9 d3 	push	#-11351	;#0xd3a9
    c0c4:	0f 12       	push	r15		
    c0c6:	b0 12 ca c9 	call	#0xc9ca	
    c0ca:	31 50 06 00 	add	#6,	r1	;#0x0006
    c0ce:	1f 42 04 02 	mov	&0x0204,r15	
    c0d2:	7e 40 40 00 	mov.b	#64,	r14	;#0x0040
    c0d6:	b0 12 e6 c5 	call	#0xc5e6	
    c0da:	ff 3f       	jmp	$+0      	;abs 0xc0da

0000c0dc <__stop_progExec__>:
    c0dc:	32 d0 f0 00 	bis	#240,	r2	;#0x00f0
    c0e0:	fd 3f       	jmp	$-4      	;abs 0xc0dc

0000c0e2 <__ctors_end>:
    c0e2:	30 40 8e d3 	br	#0xd38e	

0000c0e6 <wdt_init>:
    c0e6:	04 12       	push	r4		
    c0e8:	04 41       	mov	r1,	r4	
    c0ea:	24 53       	incd	r4		
    c0ec:	b2 40 80 5a 	mov	#23168,	&0x0120	;#0x5a80
    c0f0:	20 01 
    c0f2:	34 41       	pop	r4		
    c0f4:	30 41       	ret			

0000c0f6 <gpio_init>:
    c0f6:	04 12       	push	r4		
    c0f8:	04 41       	mov	r1,	r4	
    c0fa:	24 53       	incd	r4		
    c0fc:	c2 43 2c 00 	mov.b	#0,	&0x002c	;r3 As==00
    c100:	c2 43 2d 00 	mov.b	#0,	&0x002d	;r3 As==00
    c104:	34 41       	pop	r4		
    c106:	30 41       	ret			

0000c108 <ta_init>:
    c108:	04 12       	push	r4		
    c10a:	04 41       	mov	r1,	r4	
    c10c:	24 53       	incd	r4		
    c10e:	b2 40 00 02 	mov	#512,	&0x0160	;#0x0200
    c112:	60 01 
    c114:	1f 42 60 01 	mov	&0x0160,r15	
    c118:	3f d0 20 00 	bis	#32,	r15	;#0x0020
    c11c:	82 4f 60 01 	mov	r15,	&0x0160	
    c120:	34 41       	pop	r4		
    c122:	30 41       	ret			

0000c124 <mclk_init>:
    c124:	04 12       	push	r4		
    c126:	04 41       	mov	r1,	r4	
    c128:	24 53       	incd	r4		
    c12a:	f2 40 e0 ff 	mov.b	#-32,	&0x0056	;#0xffe0
    c12e:	56 00 
    c130:	5f 42 57 00 	mov.b	&0x0057,r15	
    c134:	7f d0 0f 00 	bis.b	#15,	r15	;#0x000f
    c138:	c2 4f 57 00 	mov.b	r15,	&0x0057	
    c13c:	34 41       	pop	r4		
    c13e:	30 41       	ret			

0000c140 <init_device>:
    c140:	04 12       	push	r4		
    c142:	04 41       	mov	r1,	r4	
    c144:	24 53       	incd	r4		
    c146:	32 d2       	eint			
    c148:	b0 12 e6 c0 	call	#0xc0e6	
    c14c:	b0 12 24 c1 	call	#0xc124	
    c150:	b0 12 f6 c0 	call	#0xc0f6	
    c154:	b0 12 08 c1 	call	#0xc108	
    c158:	34 41       	pop	r4		
    c15a:	30 41       	ret			

0000c15c <wr_data>:
    c15c:	04 12       	push	r4		
    c15e:	04 41       	mov	r1,	r4	
    c160:	24 53       	incd	r4		
    c162:	21 82       	sub	#4,	r1	;r2 As==10
    c164:	c4 4f fa ff 	mov.b	r15,	-6(r4)	;0xfffa(r4)
    c168:	84 4e fc ff 	mov	r14,	-4(r4)	;0xfffc(r4)
    c16c:	c4 93 fa ff 	tst.b	-6(r4)		;0xfffa(r4)
    c170:	0a 24       	jz	$+22     	;abs 0xc186
    c172:	1f 44 fc ff 	mov	-4(r4),	r15	;0xfffc(r4)
    c176:	6f 4f       	mov.b	@r15,	r15	
    c178:	4e 4f       	mov.b	r15,	r14	
    c17a:	5e d3       	bis.b	#1,	r14	;r3 As==01
    c17c:	1f 44 fc ff 	mov	-4(r4),	r15	;0xfffc(r4)
    c180:	cf 4e 00 00 	mov.b	r14,	0(r15)	;0x0000(r15)
    c184:	0a 3c       	jmp	$+22     	;abs 0xc19a
    c186:	1f 44 fc ff 	mov	-4(r4),	r15	;0xfffc(r4)
    c18a:	6f 4f       	mov.b	@r15,	r15	
    c18c:	4e 4f       	mov.b	r15,	r14	
    c18e:	7e f0 fe ff 	and.b	#-2,	r14	;#0xfffe
    c192:	1f 44 fc ff 	mov	-4(r4),	r15	;0xfffc(r4)
    c196:	cf 4e 00 00 	mov.b	r14,	0(r15)	;0x0000(r15)
    c19a:	5f 42 34 02 	mov.b	&0x0234,r15	
    c19e:	7f f0 07 00 	and.b	#7,	r15	;#0x0007
    c1a2:	7f 90 07 00 	cmp.b	#7,	r15	;#0x0007
    c1a6:	0a 2c       	jc	$+22     	;abs 0xc1bc
    c1a8:	1f 44 fc ff 	mov	-4(r4),	r15	;0xfffc(r4)
    c1ac:	6f 4f       	mov.b	@r15,	r15	
    c1ae:	4f 4f       	mov.b	r15,	r15	
    c1b0:	4f 4f       	mov.b	r15,	r15	
    c1b2:	4f 5f       	rla.b	r15		
    c1b4:	1e 44 fc ff 	mov	-4(r4),	r14	;0xfffc(r4)
    c1b8:	ce 4f 00 00 	mov.b	r15,	0(r14)	;0x0000(r14)
    c1bc:	21 52       	add	#4,	r1	;r2 As==10
    c1be:	34 41       	pop	r4		
    c1c0:	30 41       	ret			

0000c1c2 <p2_isr>:
    c1c2:	0f 12       	push	r15		
    c1c4:	0e 12       	push	r14		
    c1c6:	0d 12       	push	r13		
    c1c8:	0c 12       	push	r12		
    c1ca:	04 12       	push	r4		
    c1cc:	04 41       	mov	r1,	r4	
    c1ce:	34 50 0a 00 	add	#10,	r4	;#0x000a
    c1d2:	21 83       	decd	r1		
    c1d4:	5f 42 2b 00 	mov.b	&0x002b,r15	
    c1d8:	4f 4f       	mov.b	r15,	r15	
    c1da:	3f f2       	and	#8,	r15	;r2 As==11
    c1dc:	0f 93       	tst	r15		
    c1de:	5f 24       	jz	$+192    	;abs 0xc29e
    c1e0:	5f 42 34 02 	mov.b	&0x0234,r15	
    c1e4:	7f 90 28 00 	cmp.b	#40,	r15	;#0x0028
    c1e8:	05 2c       	jc	$+12     	;abs 0xc1f4
    c1ea:	b0 12 ce c8 	call	#0xc8ce	
    c1ee:	c4 4f f4 ff 	mov.b	r15,	-12(r4)	;0xfff4(r4)
    c1f2:	02 3c       	jmp	$+6      	;abs 0xc1f8
    c1f4:	f4 43 f4 ff 	mov.b	#-1,	-12(r4)	;r3 As==11, 0xfff4(r4)
    c1f8:	5f 42 34 02 	mov.b	&0x0234,r15	
    c1fc:	5f 53       	inc.b	r15		
    c1fe:	c2 4f 34 02 	mov.b	r15,	&0x0234	
    c202:	c4 93 f4 ff 	tst.b	-12(r4)	;0xfff4(r4)
    c206:	37 38       	jl	$+112    	;abs 0xc276
    c208:	5f 42 34 02 	mov.b	&0x0234,r15	
    c20c:	4f 4f       	mov.b	r15,	r15	
    c20e:	4f 4f       	mov.b	r15,	r15	
    c210:	12 c3       	clrc			
    c212:	4f 10       	rrc.b	r15		
    c214:	12 c3       	clrc			
    c216:	4f 10       	rrc.b	r15		
    c218:	12 c3       	clrc			
    c21a:	4f 10       	rrc.b	r15		
    c21c:	4f 4f       	mov.b	r15,	r15	
    c21e:	3f 90 05 00 	cmp	#5,	r15	;#0x0005
    c222:	36 2c       	jc	$+110    	;abs 0xc290
    c224:	0f 5f       	rla	r15		
    c226:	3f 50 90 d3 	add	#-11376,r15	;#0xd390
    c22a:	2f 4f       	mov	@r15,	r15	
    c22c:	00 4f       	br	r15		
    c22e:	3e 40 2a 02 	mov	#554,	r14	;#0x022a
    c232:	5f 44 f4 ff 	mov.b	-12(r4),r15	;0xfff4(r4)
    c236:	b0 12 5c c1 	call	#0xc15c	
    c23a:	2b 3c       	jmp	$+88     	;abs 0xc292
    c23c:	3e 40 2b 02 	mov	#555,	r14	;#0x022b
    c240:	5f 44 f4 ff 	mov.b	-12(r4),r15	;0xfff4(r4)
    c244:	b0 12 5c c1 	call	#0xc15c	
    c248:	24 3c       	jmp	$+74     	;abs 0xc292
    c24a:	3e 40 2c 02 	mov	#556,	r14	;#0x022c
    c24e:	5f 44 f4 ff 	mov.b	-12(r4),r15	;0xfff4(r4)
    c252:	b0 12 5c c1 	call	#0xc15c	
    c256:	1d 3c       	jmp	$+60     	;abs 0xc292
    c258:	3e 40 2c 02 	mov	#556,	r14	;#0x022c
    c25c:	5f 44 f4 ff 	mov.b	-12(r4),r15	;0xfff4(r4)
    c260:	b0 12 5c c1 	call	#0xc15c	
    c264:	03 43       	nop			
    c266:	15 3c       	jmp	$+44     	;abs 0xc292
    c268:	3e 40 2e 02 	mov	#558,	r14	;#0x022e
    c26c:	5f 44 f4 ff 	mov.b	-12(r4),r15	;0xfff4(r4)
    c270:	b0 12 5c c1 	call	#0xc15c	
    c274:	0d 3c       	jmp	$+28     	;abs 0xc290
    c276:	5f 42 34 02 	mov.b	&0x0234,r15	
    c27a:	7f 90 28 00 	cmp.b	#40,	r15	;#0x0028
    c27e:	03 2c       	jc	$+8      	;abs 0xc286
    c280:	c4 93 f4 ff 	tst.b	-12(r4)	;0xfff4(r4)
    c284:	06 34       	jge	$+14     	;abs 0xc292
    c286:	c2 43 34 02 	mov.b	#0,	&0x0234	;r3 As==00
    c28a:	c2 43 28 02 	mov.b	#0,	&0x0228	;r3 As==00
    c28e:	01 3c       	jmp	$+4      	;abs 0xc292
    c290:	03 43       	nop			
    c292:	5f 42 2b 00 	mov.b	&0x002b,r15	
    c296:	7f f0 f7 ff 	and.b	#-9,	r15	;#0xfff7
    c29a:	c2 4f 2b 00 	mov.b	r15,	&0x002b	
    c29e:	21 53       	incd	r1		
    c2a0:	34 41       	pop	r4		
    c2a2:	3c 41       	pop	r12		
    c2a4:	3d 41       	pop	r13		
    c2a6:	3e 41       	pop	r14		
    c2a8:	3f 41       	pop	r15		
    c2aa:	00 13       	reti			

0000c2ac <read>:
    c2ac:	04 12       	push	r4		
    c2ae:	04 41       	mov	r1,	r4	
    c2b0:	24 53       	incd	r4		
    c2b2:	21 83       	decd	r1		
    c2b4:	c4 43 fc ff 	mov.b	#0,	-4(r4)	;r3 As==00, 0xfffc(r4)
    c2b8:	5f 42 2a 00 	mov.b	&0x002a,r15	
    c2bc:	7f f0 0f 00 	and.b	#15,	r15	;#0x000f
    c2c0:	c2 4f 2a 00 	mov.b	r15,	&0x002a	
    c2c4:	5f 42 29 00 	mov.b	&0x0029,r15	
    c2c8:	7f f0 0f 00 	and.b	#15,	r15	;#0x000f
    c2cc:	c2 4f 29 00 	mov.b	r15,	&0x0029	
    c2d0:	3f 40 4f 00 	mov	#79,	r15	;#0x004f
    c2d4:	1f 83       	dec	r15		
    c2d6:	0f 93       	tst	r15		
    c2d8:	fd 23       	jnz	$-4      	;abs 0xc2d4
    c2da:	03 43       	nop			
    c2dc:	5f 42 29 00 	mov.b	&0x0029,r15	
    c2e0:	6f d2       	bis.b	#4,	r15	;r2 As==10
    c2e2:	c2 4f 29 00 	mov.b	r15,	&0x0029	
    c2e6:	3f 40 4f 00 	mov	#79,	r15	;#0x004f
    c2ea:	1f 83       	dec	r15		
    c2ec:	0f 93       	tst	r15		
    c2ee:	fd 23       	jnz	$-4      	;abs 0xc2ea
    c2f0:	03 43       	nop			
    c2f2:	5f 42 28 00 	mov.b	&0x0028,r15	
    c2f6:	4e 4f       	mov.b	r15,	r14	
    c2f8:	7e f0 f0 ff 	and.b	#-16,	r14	;#0xfff0
    c2fc:	c4 4e fc ff 	mov.b	r14,	-4(r4)	;0xfffc(r4)
    c300:	5f 42 29 00 	mov.b	&0x0029,r15	
    c304:	7f f0 fb ff 	and.b	#-5,	r15	;#0xfffb
    c308:	c2 4f 29 00 	mov.b	r15,	&0x0029	
    c30c:	3f 40 4f 00 	mov	#79,	r15	;#0x004f
    c310:	1f 83       	dec	r15		
    c312:	0f 93       	tst	r15		
    c314:	fd 23       	jnz	$-4      	;abs 0xc310
    c316:	03 43       	nop			
    c318:	5f 42 29 00 	mov.b	&0x0029,r15	
    c31c:	6f d2       	bis.b	#4,	r15	;r2 As==10
    c31e:	c2 4f 29 00 	mov.b	r15,	&0x0029	
    c322:	3f 40 4f 00 	mov	#79,	r15	;#0x004f
    c326:	1f 83       	dec	r15		
    c328:	0f 93       	tst	r15		
    c32a:	fd 23       	jnz	$-4      	;abs 0xc326
    c32c:	03 43       	nop			
    c32e:	5f 42 28 00 	mov.b	&0x0028,r15	
    c332:	4f 4f       	mov.b	r15,	r15	
    c334:	4f 4f       	mov.b	r15,	r15	
    c336:	12 c3       	clrc			
    c338:	4f 10       	rrc.b	r15		
    c33a:	12 c3       	clrc			
    c33c:	4f 10       	rrc.b	r15		
    c33e:	12 c3       	clrc			
    c340:	4f 10       	rrc.b	r15		
    c342:	12 c3       	clrc			
    c344:	4f 10       	rrc.b	r15		
    c346:	4e 4f       	mov.b	r15,	r14	
    c348:	5f 44 fc ff 	mov.b	-4(r4),	r15	;0xfffc(r4)
    c34c:	4f de       	bis.b	r14,	r15	
    c34e:	c4 4f fc ff 	mov.b	r15,	-4(r4)	;0xfffc(r4)
    c352:	5f 42 29 00 	mov.b	&0x0029,r15	
    c356:	7f f0 fb ff 	and.b	#-5,	r15	;#0xfffb
    c35a:	c2 4f 29 00 	mov.b	r15,	&0x0029	
    c35e:	3f 40 4f 00 	mov	#79,	r15	;#0x004f
    c362:	1f 83       	dec	r15		
    c364:	0f 93       	tst	r15		
    c366:	fd 23       	jnz	$-4      	;abs 0xc362
    c368:	03 43       	nop			
    c36a:	5f 44 fc ff 	mov.b	-4(r4),	r15	;0xfffc(r4)
    c36e:	21 53       	incd	r1		
    c370:	34 41       	pop	r4		
    c372:	30 41       	ret			

0000c374 <write>:
    c374:	04 12       	push	r4		
    c376:	04 41       	mov	r1,	r4	
    c378:	24 53       	incd	r4		
    c37a:	21 83       	decd	r1		
    c37c:	c4 4f fc ff 	mov.b	r15,	-4(r4)	;0xfffc(r4)
    c380:	5f 42 2a 00 	mov.b	&0x002a,r15	
    c384:	7f d0 f0 ff 	bis.b	#-16,	r15	;#0xfff0
    c388:	c2 4f 2a 00 	mov.b	r15,	&0x002a	
    c38c:	5f 42 26 02 	mov.b	&0x0226,r15	
    c390:	4f 93       	tst.b	r15		
    c392:	2e 24       	jz	$+94     	;abs 0xc3f0
    c394:	5f 42 29 00 	mov.b	&0x0029,r15	
    c398:	7f f0 0f 00 	and.b	#15,	r15	;#0x000f
    c39c:	c2 4f 29 00 	mov.b	r15,	&0x0029	
    c3a0:	3f 40 4f 00 	mov	#79,	r15	;#0x004f
    c3a4:	1f 83       	dec	r15		
    c3a6:	0f 93       	tst	r15		
    c3a8:	fd 23       	jnz	$-4      	;abs 0xc3a4
    c3aa:	03 43       	nop			
    c3ac:	5f 42 29 00 	mov.b	&0x0029,r15	
    c3b0:	6f d2       	bis.b	#4,	r15	;r2 As==10
    c3b2:	c2 4f 29 00 	mov.b	r15,	&0x0029	
    c3b6:	5f 44 fc ff 	mov.b	-4(r4),	r15	;0xfffc(r4)
    c3ba:	4e 4f       	mov.b	r15,	r14	
    c3bc:	7e f0 f0 ff 	and.b	#-16,	r14	;#0xfff0
    c3c0:	5f 42 29 00 	mov.b	&0x0029,r15	
    c3c4:	4f de       	bis.b	r14,	r15	
    c3c6:	c2 4f 29 00 	mov.b	r15,	&0x0029	
    c3ca:	3f 40 4f 00 	mov	#79,	r15	;#0x004f
    c3ce:	1f 83       	dec	r15		
    c3d0:	0f 93       	tst	r15		
    c3d2:	fd 23       	jnz	$-4      	;abs 0xc3ce
    c3d4:	03 43       	nop			
    c3d6:	5f 42 29 00 	mov.b	&0x0029,r15	
    c3da:	7f f0 fb ff 	and.b	#-5,	r15	;#0xfffb
    c3de:	c2 4f 29 00 	mov.b	r15,	&0x0029	
    c3e2:	3f 40 4f 00 	mov	#79,	r15	;#0x004f
    c3e6:	1f 83       	dec	r15		
    c3e8:	0f 93       	tst	r15		
    c3ea:	fd 23       	jnz	$-4      	;abs 0xc3e6
    c3ec:	03 43       	nop			
    c3ee:	7e 3c       	jmp	$+254    	;abs 0xc4ec
    c3f0:	5f 42 29 00 	mov.b	&0x0029,r15	
    c3f4:	7f f0 0f 00 	and.b	#15,	r15	;#0x000f
    c3f8:	c2 4f 29 00 	mov.b	r15,	&0x0029	
    c3fc:	3f 40 4f 00 	mov	#79,	r15	;#0x004f
    c400:	1f 83       	dec	r15		
    c402:	0f 93       	tst	r15		
    c404:	fd 23       	jnz	$-4      	;abs 0xc400
    c406:	03 43       	nop			
    c408:	5f 42 29 00 	mov.b	&0x0029,r15	
    c40c:	6f d2       	bis.b	#4,	r15	;r2 As==10
    c40e:	c2 4f 29 00 	mov.b	r15,	&0x0029	
    c412:	5f 44 fc ff 	mov.b	-4(r4),	r15	;0xfffc(r4)
    c416:	4e 4f       	mov.b	r15,	r14	
    c418:	7e f0 f0 ff 	and.b	#-16,	r14	;#0xfff0
    c41c:	5f 42 29 00 	mov.b	&0x0029,r15	
    c420:	4f de       	bis.b	r14,	r15	
    c422:	c2 4f 29 00 	mov.b	r15,	&0x0029	
    c426:	3f 40 4f 00 	mov	#79,	r15	;#0x004f
    c42a:	1f 83       	dec	r15		
    c42c:	0f 93       	tst	r15		
    c42e:	fd 23       	jnz	$-4      	;abs 0xc42a
    c430:	03 43       	nop			
    c432:	5f 42 29 00 	mov.b	&0x0029,r15	
    c436:	7f f0 fb ff 	and.b	#-5,	r15	;#0xfffb
    c43a:	c2 4f 29 00 	mov.b	r15,	&0x0029	
    c43e:	3f 40 4f 00 	mov	#79,	r15	;#0x004f
    c442:	1f 83       	dec	r15		
    c444:	0f 93       	tst	r15		
    c446:	fd 23       	jnz	$-4      	;abs 0xc442
    c448:	03 43       	nop			
    c44a:	5f 42 29 00 	mov.b	&0x0029,r15	
    c44e:	7f f0 0f 00 	and.b	#15,	r15	;#0x000f
    c452:	c2 4f 29 00 	mov.b	r15,	&0x0029	
    c456:	3f 40 4f 00 	mov	#79,	r15	;#0x004f
    c45a:	1f 83       	dec	r15		
    c45c:	0f 93       	tst	r15		
    c45e:	fd 23       	jnz	$-4      	;abs 0xc45a
    c460:	03 43       	nop			
    c462:	5f 42 29 00 	mov.b	&0x0029,r15	
    c466:	6f d2       	bis.b	#4,	r15	;r2 As==10
    c468:	c2 4f 29 00 	mov.b	r15,	&0x0029	
    c46c:	5f 44 fc ff 	mov.b	-4(r4),	r15	;0xfffc(r4)
    c470:	3f f2       	and	#8,	r15	;r2 As==11
    c472:	0f 93       	tst	r15		
    c474:	03 24       	jz	$+8      	;abs 0xc47c
    c476:	7e 40 80 ff 	mov.b	#-128,	r14	;#0xff80
    c47a:	01 3c       	jmp	$+4      	;abs 0xc47e
    c47c:	4e 43       	clr.b	r14		
    c47e:	5f 44 fc ff 	mov.b	-4(r4),	r15	;0xfffc(r4)
    c482:	2f f2       	and	#4,	r15	;r2 As==10
    c484:	0f 93       	tst	r15		
    c486:	03 24       	jz	$+8      	;abs 0xc48e
    c488:	7f 40 40 00 	mov.b	#64,	r15	;#0x0040
    c48c:	01 3c       	jmp	$+4      	;abs 0xc490
    c48e:	4f 43       	clr.b	r15		
    c490:	4e df       	bis.b	r15,	r14	
    c492:	5f 44 fc ff 	mov.b	-4(r4),	r15	;0xfffc(r4)
    c496:	2f f3       	and	#2,	r15	;r3 As==10
    c498:	0f 93       	tst	r15		
    c49a:	03 24       	jz	$+8      	;abs 0xc4a2
    c49c:	7f 40 20 00 	mov.b	#32,	r15	;#0x0020
    c4a0:	01 3c       	jmp	$+4      	;abs 0xc4a4
    c4a2:	4f 43       	clr.b	r15		
    c4a4:	4e df       	bis.b	r15,	r14	
    c4a6:	5f 44 fc ff 	mov.b	-4(r4),	r15	;0xfffc(r4)
    c4aa:	1f f3       	and	#1,	r15	;r3 As==01
    c4ac:	0f 5f       	rla	r15		
    c4ae:	0f 5f       	rla	r15		
    c4b0:	0f 5f       	rla	r15		
    c4b2:	0f 5f       	rla	r15		
    c4b4:	4f 4f       	mov.b	r15,	r15	
    c4b6:	4f de       	bis.b	r14,	r15	
    c4b8:	4e 4f       	mov.b	r15,	r14	
    c4ba:	7e f0 f0 ff 	and.b	#-16,	r14	;#0xfff0
    c4be:	5f 42 29 00 	mov.b	&0x0029,r15	
    c4c2:	4f de       	bis.b	r14,	r15	
    c4c4:	c2 4f 29 00 	mov.b	r15,	&0x0029	
    c4c8:	3f 40 4f 00 	mov	#79,	r15	;#0x004f
    c4cc:	1f 83       	dec	r15		
    c4ce:	0f 93       	tst	r15		
    c4d0:	fd 23       	jnz	$-4      	;abs 0xc4cc
    c4d2:	03 43       	nop			
    c4d4:	5f 42 29 00 	mov.b	&0x0029,r15	
    c4d8:	7f f0 fb ff 	and.b	#-5,	r15	;#0xfffb
    c4dc:	c2 4f 29 00 	mov.b	r15,	&0x0029	
    c4e0:	3f 40 4f 00 	mov	#79,	r15	;#0x004f
    c4e4:	1f 83       	dec	r15		
    c4e6:	0f 93       	tst	r15		
    c4e8:	fd 23       	jnz	$-4      	;abs 0xc4e4
    c4ea:	03 43       	nop			
    c4ec:	21 53       	incd	r1		
    c4ee:	34 41       	pop	r4		
    c4f0:	30 41       	ret			

0000c4f2 <check_busy>:
    c4f2:	04 12       	push	r4		
    c4f4:	04 41       	mov	r1,	r4	
    c4f6:	24 53       	incd	r4		
    c4f8:	21 83       	decd	r1		
    c4fa:	c4 43 fc ff 	mov.b	#0,	-4(r4)	;r3 As==00, 0xfffc(r4)
    c4fe:	5f 42 29 00 	mov.b	&0x0029,r15	
    c502:	7f f0 fe ff 	and.b	#-2,	r15	;#0xfffe
    c506:	c2 4f 29 00 	mov.b	r15,	&0x0029	
    c50a:	5f 42 29 00 	mov.b	&0x0029,r15	
    c50e:	6f d3       	bis.b	#2,	r15	;r3 As==10
    c510:	c2 4f 29 00 	mov.b	r15,	&0x0029	
    c514:	b0 12 ac c2 	call	#0xc2ac	
    c518:	c4 4f fc ff 	mov.b	r15,	-4(r4)	;0xfffc(r4)
    c51c:	5f 44 fc ff 	mov.b	-4(r4),	r15	;0xfffc(r4)
    c520:	4f 93       	tst.b	r15		
    c522:	f8 3b       	jl	$-14     	;abs 0xc514
    c524:	21 53       	incd	r1		
    c526:	34 41       	pop	r4		
    c528:	30 41       	ret			

0000c52a <wr_instr>:
    c52a:	04 12       	push	r4		
    c52c:	04 41       	mov	r1,	r4	
    c52e:	24 53       	incd	r4		
    c530:	21 83       	decd	r1		
    c532:	c4 4f fc ff 	mov.b	r15,	-4(r4)	;0xfffc(r4)
    c536:	5f 42 26 02 	mov.b	&0x0226,r15	
    c53a:	4f 93       	tst.b	r15		
    c53c:	06 24       	jz	$+14     	;abs 0xc54a
    c53e:	3f 40 2a 68 	mov	#26666,	r15	;#0x682a
    c542:	1f 83       	dec	r15		
    c544:	0f 93       	tst	r15		
    c546:	fd 23       	jnz	$-4      	;abs 0xc542
    c548:	02 3c       	jmp	$+6      	;abs 0xc54e
    c54a:	b0 12 f2 c4 	call	#0xc4f2	
    c54e:	5f 42 29 00 	mov.b	&0x0029,r15	
    c552:	7f f0 fe ff 	and.b	#-2,	r15	;#0xfffe
    c556:	c2 4f 29 00 	mov.b	r15,	&0x0029	
    c55a:	5f 42 29 00 	mov.b	&0x0029,r15	
    c55e:	7f f0 fd ff 	and.b	#-3,	r15	;#0xfffd
    c562:	c2 4f 29 00 	mov.b	r15,	&0x0029	
    c566:	5f 44 fc ff 	mov.b	-4(r4),	r15	;0xfffc(r4)
    c56a:	b0 12 74 c3 	call	#0xc374	
    c56e:	21 53       	incd	r1		
    c570:	34 41       	pop	r4		
    c572:	30 41       	ret			

0000c574 <wr_symb>:
    c574:	04 12       	push	r4		
    c576:	04 41       	mov	r1,	r4	
    c578:	24 53       	incd	r4		
    c57a:	21 83       	decd	r1		
    c57c:	c4 4f fc ff 	mov.b	r15,	-4(r4)	;0xfffc(r4)
    c580:	5f 42 29 00 	mov.b	&0x0029,r15	
    c584:	5f d3       	bis.b	#1,	r15	;r3 As==01
    c586:	c2 4f 29 00 	mov.b	r15,	&0x0029	
    c58a:	5f 42 29 00 	mov.b	&0x0029,r15	
    c58e:	7f f0 fd ff 	and.b	#-3,	r15	;#0xfffd
    c592:	c2 4f 29 00 	mov.b	r15,	&0x0029	
    c596:	5f 44 fc ff 	mov.b	-4(r4),	r15	;0xfffc(r4)
    c59a:	b0 12 74 c3 	call	#0xc374	
    c59e:	21 53       	incd	r1		
    c5a0:	34 41       	pop	r4		
    c5a2:	30 41       	ret			

0000c5a4 <wr_scr>:
    c5a4:	04 12       	push	r4		
    c5a6:	04 41       	mov	r1,	r4	
    c5a8:	24 53       	incd	r4		
    c5aa:	21 82       	sub	#4,	r1	;r2 As==10
    c5ac:	84 4f fa ff 	mov	r15,	-6(r4)	;0xfffa(r4)
    c5b0:	c4 4e fc ff 	mov.b	r14,	-4(r4)	;0xfffc(r4)
    c5b4:	5f 43       	mov.b	#1,	r15	;r3 As==01
    c5b6:	b0 12 2a c5 	call	#0xc52a	
    c5ba:	5f 44 fc ff 	mov.b	-4(r4),	r15	;0xfffc(r4)
    c5be:	7f d0 80 ff 	bis.b	#-128,	r15	;#0xff80
    c5c2:	b0 12 2a c5 	call	#0xc52a	
    c5c6:	07 3c       	jmp	$+16     	;abs 0xc5d6
    c5c8:	1f 44 fa ff 	mov	-6(r4),	r15	;0xfffa(r4)
    c5cc:	6f 4f       	mov.b	@r15,	r15	
    c5ce:	94 53 fa ff 	inc	-6(r4)		;0xfffa(r4)
    c5d2:	b0 12 74 c5 	call	#0xc574	
    c5d6:	1f 44 fa ff 	mov	-6(r4),	r15	;0xfffa(r4)
    c5da:	6f 4f       	mov.b	@r15,	r15	
    c5dc:	4f 93       	tst.b	r15		
    c5de:	f4 23       	jnz	$-22     	;abs 0xc5c8
    c5e0:	21 52       	add	#4,	r1	;r2 As==10
    c5e2:	34 41       	pop	r4		
    c5e4:	30 41       	ret			

0000c5e6 <wr_str>:
    c5e6:	04 12       	push	r4		
    c5e8:	04 41       	mov	r1,	r4	
    c5ea:	24 53       	incd	r4		
    c5ec:	31 50 fa ff 	add	#-6,	r1	;#0xfffa
    c5f0:	84 4f fa ff 	mov	r15,	-6(r4)	;0xfffa(r4)
    c5f4:	c4 4e fc ff 	mov.b	r14,	-4(r4)	;0xfffc(r4)
    c5f8:	5f 44 fc ff 	mov.b	-4(r4),	r15	;0xfffc(r4)
    c5fc:	7f f0 70 00 	and.b	#112,	r15	;#0x0070
    c600:	7f d0 80 ff 	bis.b	#-128,	r15	;#0xff80
    c604:	b0 12 2a c5 	call	#0xc52a	
    c608:	c4 43 f8 ff 	mov.b	#0,	-8(r4)	;r3 As==00, 0xfff8(r4)
    c60c:	06 3c       	jmp	$+14     	;abs 0xc61a
    c60e:	7f 40 20 00 	mov.b	#32,	r15	;#0x0020
    c612:	b0 12 74 c5 	call	#0xc574	
    c616:	d4 53 f8 ff 	inc.b	-8(r4)		;0xfff8(r4)
    c61a:	f4 90 10 00 	cmp.b	#16,	-8(r4)	;#0x0010, 0xfff8(r4)
    c61e:	f8 ff 
    c620:	f6 2b       	jnc	$-18     	;abs 0xc60e
    c622:	5f 44 fc ff 	mov.b	-4(r4),	r15	;0xfffc(r4)
    c626:	7f d0 80 ff 	bis.b	#-128,	r15	;#0xff80
    c62a:	b0 12 2a c5 	call	#0xc52a	
    c62e:	07 3c       	jmp	$+16     	;abs 0xc63e
    c630:	1f 44 fa ff 	mov	-6(r4),	r15	;0xfffa(r4)
    c634:	6f 4f       	mov.b	@r15,	r15	
    c636:	94 53 fa ff 	inc	-6(r4)		;0xfffa(r4)
    c63a:	b0 12 74 c5 	call	#0xc574	
    c63e:	1f 44 fa ff 	mov	-6(r4),	r15	;0xfffa(r4)
    c642:	6f 4f       	mov.b	@r15,	r15	
    c644:	4f 93       	tst.b	r15		
    c646:	f4 23       	jnz	$-22     	;abs 0xc630
    c648:	31 50 06 00 	add	#6,	r1	;#0x0006
    c64c:	34 41       	pop	r4		
    c64e:	30 41       	ret			

0000c650 <lcd_init>:
    c650:	04 12       	push	r4		
    c652:	04 41       	mov	r1,	r4	
    c654:	24 53       	incd	r4		
    c656:	5f 42 2a 00 	mov.b	&0x002a,r15	
    c65a:	7f d0 f0 ff 	bis.b	#-16,	r15	;#0xfff0
    c65e:	c2 4f 2a 00 	mov.b	r15,	&0x002a	
    c662:	5f 42 2a 00 	mov.b	&0x002a,r15	
    c666:	7f d0 07 00 	bis.b	#7,	r15	;#0x0007
    c66a:	c2 4f 2a 00 	mov.b	r15,	&0x002a	
    c66e:	5f 42 29 00 	mov.b	&0x0029,r15	
    c672:	7f f0 0f 00 	and.b	#15,	r15	;#0x000f
    c676:	c2 4f 29 00 	mov.b	r15,	&0x0029	
    c67a:	5f 42 29 00 	mov.b	&0x0029,r15	
    c67e:	7f f0 f8 ff 	and.b	#-8,	r15	;#0xfff8
    c682:	c2 4f 29 00 	mov.b	r15,	&0x0029	
    c686:	5f 42 2e 00 	mov.b	&0x002e,r15	
    c68a:	7f f0 0f 00 	and.b	#15,	r15	;#0x000f
    c68e:	c2 4f 2e 00 	mov.b	r15,	&0x002e	
    c692:	5f 42 2e 00 	mov.b	&0x002e,r15	
    c696:	7f f0 f8 ff 	and.b	#-8,	r15	;#0xfff8
    c69a:	c2 4f 2e 00 	mov.b	r15,	&0x002e	
    c69e:	5f 42 42 00 	mov.b	&0x0042,r15	
    c6a2:	7f f0 0f 00 	and.b	#15,	r15	;#0x000f
    c6a6:	c2 4f 42 00 	mov.b	r15,	&0x0042	
    c6aa:	5f 42 42 00 	mov.b	&0x0042,r15	
    c6ae:	7f f0 f8 ff 	and.b	#-8,	r15	;#0xfff8
    c6b2:	c2 4f 42 00 	mov.b	r15,	&0x0042	
    c6b6:	d2 43 26 02 	mov.b	#1,	&0x0226	;r3 As==01
    c6ba:	3f 40 05 00 	mov	#5,	r15	;#0x0005
    c6be:	3e 40 a4 11 	mov	#4516,	r14	;#0x11a4
    c6c2:	1e 83       	dec	r14		
    c6c4:	0e 93       	tst	r14		
    c6c6:	fd 23       	jnz	$-4      	;abs 0xc6c2
    c6c8:	1f 83       	dec	r15		
    c6ca:	0f 93       	tst	r15		
    c6cc:	fa 23       	jnz	$-10     	;abs 0xc6c2
    c6ce:	03 43       	nop			
    c6d0:	7f 40 38 00 	mov.b	#56,	r15	;#0x0038
    c6d4:	b0 12 2a c5 	call	#0xc52a	
    c6d8:	3f 40 54 d0 	mov	#-12204,r15	;#0xd054
    c6dc:	1f 83       	dec	r15		
    c6de:	0f 93       	tst	r15		
    c6e0:	fd 23       	jnz	$-4      	;abs 0xc6dc
    c6e2:	03 43       	nop			
    c6e4:	03 43       	nop			
    c6e6:	7f 40 38 00 	mov.b	#56,	r15	;#0x0038
    c6ea:	b0 12 2a c5 	call	#0xc52a	
    c6ee:	3f 40 1f 03 	mov	#799,	r15	;#0x031f
    c6f2:	1f 83       	dec	r15		
    c6f4:	0f 93       	tst	r15		
    c6f6:	fd 23       	jnz	$-4      	;abs 0xc6f2
    c6f8:	03 43       	nop			
    c6fa:	7f 40 38 00 	mov.b	#56,	r15	;#0x0038
    c6fe:	b0 12 2a c5 	call	#0xc52a	
    c702:	3f 40 54 d0 	mov	#-12204,r15	;#0xd054
    c706:	1f 83       	dec	r15		
    c708:	0f 93       	tst	r15		
    c70a:	fd 23       	jnz	$-4      	;abs 0xc706
    c70c:	03 43       	nop			
    c70e:	03 43       	nop			
    c710:	7f 40 28 00 	mov.b	#40,	r15	;#0x0028
    c714:	b0 12 2a c5 	call	#0xc52a	
    c718:	3f 40 54 d0 	mov	#-12204,r15	;#0xd054
    c71c:	1f 83       	dec	r15		
    c71e:	0f 93       	tst	r15		
    c720:	fd 23       	jnz	$-4      	;abs 0xc71c
    c722:	03 43       	nop			
    c724:	03 43       	nop			
    c726:	c2 43 26 02 	mov.b	#0,	&0x0226	;r3 As==00
    c72a:	7f 40 28 00 	mov.b	#40,	r15	;#0x0028
    c72e:	b0 12 2a c5 	call	#0xc52a	
    c732:	7f 42       	mov.b	#8,	r15	;r2 As==11
    c734:	b0 12 2a c5 	call	#0xc52a	
    c738:	3f 40 54 d0 	mov	#-12204,r15	;#0xd054
    c73c:	1f 83       	dec	r15		
    c73e:	0f 93       	tst	r15		
    c740:	fd 23       	jnz	$-4      	;abs 0xc73c
    c742:	03 43       	nop			
    c744:	03 43       	nop			
    c746:	5f 43       	mov.b	#1,	r15	;r3 As==01
    c748:	b0 12 2a c5 	call	#0xc52a	
    c74c:	3f 40 54 d0 	mov	#-12204,r15	;#0xd054
    c750:	1f 83       	dec	r15		
    c752:	0f 93       	tst	r15		
    c754:	fd 23       	jnz	$-4      	;abs 0xc750
    c756:	03 43       	nop			
    c758:	03 43       	nop			
    c75a:	7f 40 06 00 	mov.b	#6,	r15	;#0x0006
    c75e:	b0 12 2a c5 	call	#0xc52a	
    c762:	3f 40 54 d0 	mov	#-12204,r15	;#0xd054
    c766:	1f 83       	dec	r15		
    c768:	0f 93       	tst	r15		
    c76a:	fd 23       	jnz	$-4      	;abs 0xc766
    c76c:	03 43       	nop			
    c76e:	03 43       	nop			
    c770:	7f 40 0c 00 	mov.b	#12,	r15	;#0x000c
    c774:	b0 12 2a c5 	call	#0xc52a	
    c778:	3f 40 54 d0 	mov	#-12204,r15	;#0xd054
    c77c:	1f 83       	dec	r15		
    c77e:	0f 93       	tst	r15		
    c780:	fd 23       	jnz	$-4      	;abs 0xc77c
    c782:	03 43       	nop			
    c784:	03 43       	nop			
    c786:	7f 40 80 ff 	mov.b	#-128,	r15	;#0xff80
    c78a:	b0 12 2a c5 	call	#0xc52a	
    c78e:	3f 40 54 d0 	mov	#-12204,r15	;#0xd054
    c792:	1f 83       	dec	r15		
    c794:	0f 93       	tst	r15		
    c796:	fd 23       	jnz	$-4      	;abs 0xc792
    c798:	03 43       	nop			
    c79a:	03 43       	nop			
    c79c:	34 41       	pop	r4		
    c79e:	30 41       	ret			

0000c7a0 <sb_start>:
    c7a0:	04 12       	push	r4		
    c7a2:	04 41       	mov	r1,	r4	
    c7a4:	24 53       	incd	r4		
    c7a6:	5f 42 2a 00 	mov.b	&0x002a,r15	
    c7aa:	7f d2       	bis.b	#8,	r15	;r2 As==11
    c7ac:	c2 4f 2a 00 	mov.b	r15,	&0x002a	
    c7b0:	5f 42 29 00 	mov.b	&0x0029,r15	
    c7b4:	7f f0 f7 ff 	and.b	#-9,	r15	;#0xfff7
    c7b8:	c2 4f 29 00 	mov.b	r15,	&0x0029	
    c7bc:	3f 40 03 00 	mov	#3,	r15	;#0x0003
    c7c0:	3e 40 06 8b 	mov	#-29946,r14	;#0x8b06
    c7c4:	1e 83       	dec	r14		
    c7c6:	0e 93       	tst	r14		
    c7c8:	fd 23       	jnz	$-4      	;abs 0xc7c4
    c7ca:	1f 83       	dec	r15		
    c7cc:	0f 93       	tst	r15		
    c7ce:	fa 23       	jnz	$-10     	;abs 0xc7c4
    c7d0:	03 43       	nop			
    c7d2:	5f 42 29 00 	mov.b	&0x0029,r15	
    c7d6:	7f d2       	bis.b	#8,	r15	;r2 As==11
    c7d8:	c2 4f 29 00 	mov.b	r15,	&0x0029	
    c7dc:	3f 40 c7 00 	mov	#199,	r15	;#0x00c7
    c7e0:	1f 83       	dec	r15		
    c7e2:	0f 93       	tst	r15		
    c7e4:	fd 23       	jnz	$-4      	;abs 0xc7e0
    c7e6:	03 43       	nop			
    c7e8:	5f 42 2a 00 	mov.b	&0x002a,r15	
    c7ec:	7f f0 f7 ff 	and.b	#-9,	r15	;#0xfff7
    c7f0:	c2 4f 2a 00 	mov.b	r15,	&0x002a	
    c7f4:	34 41       	pop	r4		
    c7f6:	30 41       	ret			

0000c7f8 <sb_resp>:
    c7f8:	04 12       	push	r4		
    c7fa:	04 41       	mov	r1,	r4	
    c7fc:	24 53       	incd	r4		
    c7fe:	21 82       	sub	#4,	r1	;r2 As==10
    c800:	d4 43 fc ff 	mov.b	#1,	-4(r4)	;r3 As==01, 0xfffc(r4)
    c804:	b4 40 00 7d 	mov	#32000,	-6(r4)	;#0x7d00, 0xfffa(r4)
    c808:	fa ff 
    c80a:	03 43       	nop			
    c80c:	5f 42 28 00 	mov.b	&0x0028,r15	
    c810:	4f 4f       	mov.b	r15,	r15	
    c812:	3f f2       	and	#8,	r15	;r2 As==11
    c814:	0f 93       	tst	r15		
    c816:	09 24       	jz	$+20     	;abs 0xc82a
    c818:	5f 43       	mov.b	#1,	r15	;r3 As==01
    c81a:	84 93 fa ff 	tst	-6(r4)		;0xfffa(r4)
    c81e:	01 20       	jnz	$+4      	;abs 0xc822
    c820:	4f 43       	clr.b	r15		
    c822:	b4 53 fa ff 	add	#-1,	-6(r4)	;r3 As==11, 0xfffa(r4)
    c826:	4f 93       	tst.b	r15		
    c828:	f1 23       	jnz	$-28     	;abs 0xc80c
    c82a:	94 93 fa ff 	cmp	#1,	-6(r4)	;r3 As==01, 0xfffa(r4)
    c82e:	02 34       	jge	$+6      	;abs 0xc834
    c830:	4f 43       	clr.b	r15		
    c832:	32 3c       	jmp	$+102    	;abs 0xc898
    c834:	b4 40 00 7d 	mov	#32000,	-6(r4)	;#0x7d00, 0xfffa(r4)
    c838:	fa ff 
    c83a:	03 43       	nop			
    c83c:	5f 42 28 00 	mov.b	&0x0028,r15	
    c840:	4f 4f       	mov.b	r15,	r15	
    c842:	3f f2       	and	#8,	r15	;r2 As==11
    c844:	0f 93       	tst	r15		
    c846:	09 20       	jnz	$+20     	;abs 0xc85a
    c848:	5f 43       	mov.b	#1,	r15	;r3 As==01
    c84a:	84 93 fa ff 	tst	-6(r4)		;0xfffa(r4)
    c84e:	01 20       	jnz	$+4      	;abs 0xc852
    c850:	4f 43       	clr.b	r15		
    c852:	b4 53 fa ff 	add	#-1,	-6(r4)	;r3 As==11, 0xfffa(r4)
    c856:	4f 93       	tst.b	r15		
    c858:	f1 23       	jnz	$-28     	;abs 0xc83c
    c85a:	94 93 fa ff 	cmp	#1,	-6(r4)	;r3 As==01, 0xfffa(r4)
    c85e:	02 34       	jge	$+6      	;abs 0xc864
    c860:	4f 43       	clr.b	r15		
    c862:	1a 3c       	jmp	$+54     	;abs 0xc898
    c864:	b4 40 00 7d 	mov	#32000,	-6(r4)	;#0x7d00, 0xfffa(r4)
    c868:	fa ff 
    c86a:	03 43       	nop			
    c86c:	5f 42 28 00 	mov.b	&0x0028,r15	
    c870:	4f 4f       	mov.b	r15,	r15	
    c872:	3f f2       	and	#8,	r15	;r2 As==11
    c874:	0f 93       	tst	r15		
    c876:	09 24       	jz	$+20     	;abs 0xc88a
    c878:	5f 43       	mov.b	#1,	r15	;r3 As==01
    c87a:	84 93 fa ff 	tst	-6(r4)		;0xfffa(r4)
    c87e:	01 20       	jnz	$+4      	;abs 0xc882
    c880:	4f 43       	clr.b	r15		
    c882:	b4 53 fa ff 	add	#-1,	-6(r4)	;r3 As==11, 0xfffa(r4)
    c886:	4f 93       	tst.b	r15		
    c888:	f1 23       	jnz	$-28     	;abs 0xc86c
    c88a:	94 93 fa ff 	cmp	#1,	-6(r4)	;r3 As==01, 0xfffa(r4)
    c88e:	02 34       	jge	$+6      	;abs 0xc894
    c890:	4f 43       	clr.b	r15		
    c892:	02 3c       	jmp	$+6      	;abs 0xc898
    c894:	5f 44 fc ff 	mov.b	-4(r4),	r15	;0xfffc(r4)
    c898:	21 52       	add	#4,	r1	;r2 As==10
    c89a:	34 41       	pop	r4		
    c89c:	30 41       	ret			

0000c89e <sb_receive>:
    c89e:	04 12       	push	r4		
    c8a0:	04 41       	mov	r1,	r4	
    c8a2:	24 53       	incd	r4		
    c8a4:	21 83       	decd	r1		
    c8a6:	d4 42 2d 00 	mov.b	&0x002d,-4(r4)	;0xfffc(r4)
    c8aa:	fc ff 
    c8ac:	d2 43 28 02 	mov.b	#1,	&0x0228	;r3 As==01
    c8b0:	c2 43 34 02 	mov.b	#0,	&0x0234	;r3 As==00
    c8b4:	f2 42 2d 00 	mov.b	#8,	&0x002d	;r2 As==11
    c8b8:	03 43       	nop			
    c8ba:	5f 42 28 02 	mov.b	&0x0228,r15	
    c8be:	4f 93       	tst.b	r15		
    c8c0:	fc 23       	jnz	$-6      	;abs 0xc8ba
    c8c2:	d2 44 fc ff 	mov.b	-4(r4),	&0x002d	;0xfffc(r4)
    c8c6:	2d 00 
    c8c8:	21 53       	incd	r1		
    c8ca:	34 41       	pop	r4		
    c8cc:	30 41       	ret			

0000c8ce <sb_get_bit>:
    c8ce:	04 12       	push	r4		
    c8d0:	04 41       	mov	r1,	r4	
    c8d2:	24 53       	incd	r4		
    c8d4:	21 83       	decd	r1		
    c8d6:	1f 42 60 01 	mov	&0x0160,r15	
    c8da:	2f d2       	bis	#4,	r15	;r2 As==10
    c8dc:	82 4f 60 01 	mov	r15,	&0x0160	
    c8e0:	03 43       	nop			
    c8e2:	5f 42 28 00 	mov.b	&0x0028,r15	
    c8e6:	4f 4f       	mov.b	r15,	r15	
    c8e8:	3f f2       	and	#8,	r15	;r2 As==11
    c8ea:	0f 93       	tst	r15		
    c8ec:	fa 23       	jnz	$-10     	;abs 0xc8e2
    c8ee:	1f 42 70 01 	mov	&0x0170,r15	
    c8f2:	3e 40 14 00 	mov	#20,	r14	;#0x0014
    c8f6:	b0 12 4a c9 	call	#0xc94a	
    c8fa:	84 4f fc ff 	mov	r15,	-4(r4)	;0xfffc(r4)
    c8fe:	b4 90 44 00 	cmp	#68,	-4(r4)	;#0x0044, 0xfffc(r4)
    c902:	fc ff 
    c904:	06 28       	jnc	$+14     	;abs 0xc912
    c906:	b4 90 4c 00 	cmp	#76,	-4(r4)	;#0x004c, 0xfffc(r4)
    c90a:	fc ff 
    c90c:	02 2c       	jc	$+6      	;abs 0xc912
    c90e:	5f 43       	mov.b	#1,	r15	;r3 As==01
    c910:	0b 3c       	jmp	$+24     	;abs 0xc928
    c912:	b4 90 16 00 	cmp	#22,	-4(r4)	;#0x0016, 0xfffc(r4)
    c916:	fc ff 
    c918:	06 28       	jnc	$+14     	;abs 0xc926
    c91a:	b4 90 1f 00 	cmp	#31,	-4(r4)	;#0x001f, 0xfffc(r4)
    c91e:	fc ff 
    c920:	02 2c       	jc	$+6      	;abs 0xc926
    c922:	4f 43       	clr.b	r15		
    c924:	01 3c       	jmp	$+4      	;abs 0xc928
    c926:	7f 43       	mov.b	#-1,	r15	;r3 As==11
    c928:	21 53       	incd	r1		
    c92a:	34 41       	pop	r4		
    c92c:	30 41       	ret			

0000c92e <sb_read_data>:
    c92e:	04 12       	push	r4		
    c930:	04 41       	mov	r1,	r4	
    c932:	24 53       	incd	r4		
    c934:	b0 12 a0 c7 	call	#0xc7a0	
    c938:	b0 12 f8 c7 	call	#0xc7f8	
    c93c:	4f 93       	tst.b	r15		
    c93e:	02 24       	jz	$+6      	;abs 0xc944
    c940:	b0 12 9e c8 	call	#0xc89e	
    c944:	4f 43       	clr.b	r15		
    c946:	34 41       	pop	r4		
    c948:	30 41       	ret			

0000c94a <__udivhi3>:
    c94a:	7c 40 10 00 	mov.b	#16,	r12	;#0x0010
    c94e:	0d 4e       	mov	r14,	r13	
    c950:	0e 43       	clr	r14		
    c952:	0f 5f       	rla	r15		
    c954:	0e 6e       	rlc	r14		
    c956:	0e 9d       	cmp	r13,	r14	
    c958:	02 28       	jnc	$+6      	;abs 0xc95e
    c95a:	0e 8d       	sub	r13,	r14	
    c95c:	1f d3       	bis	#1,	r15	;r3 As==01
    c95e:	1c 83       	dec	r12		
    c960:	f8 23       	jnz	$-14     	;abs 0xc952
    c962:	30 41       	ret			

0000c964 <__umodhi3>:
    c964:	b0 12 4a c9 	call	#0xc94a	
    c968:	0f 4e       	mov	r14,	r15	
    c96a:	30 41       	ret			

0000c96c <append>:
    c96c:	1e 42 02 02 	mov	&0x0202,r14	
    c970:	1e 93       	cmp	#1,	r14	;r3 As==01
    c972:	0b 38       	jl	$+24     	;abs 0xc98a
    c974:	1d 42 00 02 	mov	&0x0200,r13	
    c978:	cd 4f 00 00 	mov.b	r15,	0(r13)	;0x0000(r13)
    c97c:	1d 53       	inc	r13		
    c97e:	82 4d 00 02 	mov	r13,	&0x0200	
    c982:	3e 53       	add	#-1,	r14	;r3 As==11
    c984:	82 4e 02 02 	mov	r14,	&0x0202	
    c988:	30 41       	ret			
    c98a:	3f 43       	mov	#-1,	r15	;r3 As==11
    c98c:	30 41       	ret			

0000c98e <call_vuprintf>:
    c98e:	0b 12       	push	r11		
    c990:	0a 12       	push	r10		
    c992:	21 83       	decd	r1		
    c994:	81 4e 00 00 	mov	r14,	0(r1)	;0x0000(r1)
    c998:	1a 42 00 02 	mov	&0x0200,r10	
    c99c:	1b 42 02 02 	mov	&0x0202,r11	
    c9a0:	0d 4e       	mov	r14,	r13	
    c9a2:	0e 4f       	mov	r15,	r14	
    c9a4:	3f 40 6c c9 	mov	#-13972,r15	;#0xc96c
    c9a8:	b0 12 c0 cb 	call	#0xcbc0	
    c9ac:	0f 9b       	cmp	r11,	r15	
    c9ae:	05 38       	jl	$+12     	;abs 0xc9ba
    c9b0:	0e 4a       	mov	r10,	r14	
    c9b2:	0e 5b       	add	r11,	r14	
    c9b4:	ce 43 ff ff 	mov.b	#0,	-1(r14)	;r3 As==00, 0xffff(r14)
    c9b8:	04 3c       	jmp	$+10     	;abs 0xc9c2
    c9ba:	1e 42 00 02 	mov	&0x0200,r14	
    c9be:	ce 43 00 00 	mov.b	#0,	0(r14)	;r3 As==00, 0x0000(r14)
    c9c2:	21 53       	incd	r1		
    c9c4:	3a 41       	pop	r10		
    c9c6:	3b 41       	pop	r11		
    c9c8:	30 41       	ret			

0000c9ca <sprintf>:
    c9ca:	92 41 02 00 	mov	2(r1),	&0x0200	;0x0002(r1)
    c9ce:	00 02 
    c9d0:	b2 40 ff 7f 	mov	#32767,	&0x0202	;#0x7fff
    c9d4:	02 02 
    c9d6:	0e 41       	mov	r1,	r14	
    c9d8:	3e 50 06 00 	add	#6,	r14	;#0x0006
    c9dc:	1f 41 04 00 	mov	4(r1),	r15	;0x0004(r1)
    c9e0:	b0 12 8e c9 	call	#0xc98e	
    c9e4:	30 41       	ret			

0000c9e6 <snprintf>:
    c9e6:	92 41 02 00 	mov	2(r1),	&0x0200	;0x0002(r1)
    c9ea:	00 02 
    c9ec:	92 41 04 00 	mov	4(r1),	&0x0202	;0x0004(r1)
    c9f0:	02 02 
    c9f2:	0e 41       	mov	r1,	r14	
    c9f4:	3e 52       	add	#8,	r14	;r2 As==11
    c9f6:	1f 41 06 00 	mov	6(r1),	r15	;0x0006(r1)
    c9fa:	b0 12 8e c9 	call	#0xc98e	
    c9fe:	30 41       	ret			

0000ca00 <vsprintf>:
    ca00:	0c 4e       	mov	r14,	r12	
    ca02:	82 4f 00 02 	mov	r15,	&0x0200	
    ca06:	b2 40 ff 7f 	mov	#32767,	&0x0202	;#0x7fff
    ca0a:	02 02 
    ca0c:	0e 4d       	mov	r13,	r14	
    ca0e:	0f 4c       	mov	r12,	r15	
    ca10:	b0 12 8e c9 	call	#0xc98e	
    ca14:	30 41       	ret			

0000ca16 <vsnprintf>:
    ca16:	82 4f 00 02 	mov	r15,	&0x0200	
    ca1a:	82 4e 02 02 	mov	r14,	&0x0202	
    ca1e:	0e 4c       	mov	r12,	r14	
    ca20:	0f 4d       	mov	r13,	r15	
    ca22:	b0 12 8e c9 	call	#0xc98e	
    ca26:	30 41       	ret			

0000ca28 <print_field>:
    ca28:	0b 12       	push	r11		
    ca2a:	0a 12       	push	r10		
    ca2c:	09 12       	push	r9		
    ca2e:	08 12       	push	r8		
    ca30:	07 12       	push	r7		
    ca32:	06 12       	push	r6		
    ca34:	05 12       	push	r5		
    ca36:	04 12       	push	r4		
    ca38:	31 82       	sub	#8,	r1	;r2 As==11
    ca3a:	08 4f       	mov	r15,	r8	
    ca3c:	81 4e 04 00 	mov	r14,	4(r1)	;0x0004(r1)
    ca40:	09 4d       	mov	r13,	r9	
    ca42:	1f 41 1a 00 	mov	26(r1),	r15	;0x001a(r1)
    ca46:	1d 41 1c 00 	mov	28(r1),	r13	;0x001c(r1)
    ca4a:	4c 4d       	mov.b	r13,	r12	
    ca4c:	04 4d       	mov	r13,	r4	
    ca4e:	84 10       	swpb	r4		
    ca50:	45 44       	mov.b	r4,	r5	
    ca52:	4e 4f       	mov.b	r15,	r14	
    ca54:	7e b0 40 00 	bit.b	#64,	r14	;#0x0040
    ca58:	11 24       	jz	$+36     	;abs 0xca7c
    ca5a:	f1 40 30 00 	mov.b	#48,	0(r1)	;#0x0030, 0x0000(r1)
    ca5e:	00 00 
    ca60:	0e 4f       	mov	r15,	r14	
    ca62:	8e 10       	swpb	r14		
    ca64:	5e f3       	and.b	#1,	r14	;r3 As==01
    ca66:	03 24       	jz	$+8      	;abs 0xca6e
    ca68:	7e 40 58 00 	mov.b	#88,	r14	;#0x0058
    ca6c:	02 3c       	jmp	$+6      	;abs 0xca72
    ca6e:	7e 40 78 00 	mov.b	#120,	r14	;#0x0078
    ca72:	c1 4e 01 00 	mov.b	r14,	1(r1)	;0x0001(r1)
    ca76:	0c 41       	mov	r1,	r12	
    ca78:	2c 53       	incd	r12		
    ca7a:	0f 3c       	jmp	$+32     	;abs 0xca9a
    ca7c:	7e f0 20 00 	and.b	#32,	r14	;#0x0020
    ca80:	04 24       	jz	$+10     	;abs 0xca8a
    ca82:	f1 40 30 00 	mov.b	#48,	0(r1)	;#0x0030, 0x0000(r1)
    ca86:	00 00 
    ca88:	04 3c       	jmp	$+10     	;abs 0xca92
    ca8a:	4c 93       	tst.b	r12		
    ca8c:	05 24       	jz	$+12     	;abs 0xca98
    ca8e:	c1 4d 00 00 	mov.b	r13,	0(r1)	;0x0000(r1)
    ca92:	0c 41       	mov	r1,	r12	
    ca94:	1c 53       	inc	r12		
    ca96:	01 3c       	jmp	$+4      	;abs 0xca9a
    ca98:	0c 41       	mov	r1,	r12	
    ca9a:	0a 4c       	mov	r12,	r10	
    ca9c:	8c 10       	swpb	r12		
    ca9e:	8c 11       	sxt	r12		
    caa0:	8c 10       	swpb	r12		
    caa2:	8c 11       	sxt	r12		
    caa4:	0b 4c       	mov	r12,	r11	
    caa6:	06 41       	mov	r1,	r6	
    caa8:	0c 41       	mov	r1,	r12	
    caaa:	8c 10       	swpb	r12		
    caac:	8c 11       	sxt	r12		
    caae:	8c 10       	swpb	r12		
    cab0:	8c 11       	sxt	r12		
    cab2:	07 4c       	mov	r12,	r7	
    cab4:	0a 86       	sub	r6,	r10	
    cab6:	0b 77       	subc	r7,	r11	
    cab8:	0e 4f       	mov	r15,	r14	
    caba:	8e 10       	swpb	r14		
    cabc:	c1 4e 02 00 	mov.b	r14,	2(r1)	;0x0002(r1)
    cac0:	6e f2       	and.b	#4,	r14	;r2 As==10
    cac2:	02 24       	jz	$+6      	;abs 0xcac8
    cac4:	07 45       	mov	r5,	r7	
    cac6:	01 3c       	jmp	$+4      	;abs 0xcaca
    cac8:	37 43       	mov	#-1,	r7	;r3 As==11
    caca:	4f 4f       	mov.b	r15,	r15	
    cacc:	7f b0 10 00 	bit.b	#16,	r15	;#0x0010
    cad0:	3c 20       	jnz	$+122    	;abs 0xcb4a
    cad2:	1d 41 04 00 	mov	4(r1),	r13	;0x0004(r1)
    cad6:	3d 53       	add	#-1,	r13	;r3 As==11
    cad8:	1d 53       	inc	r13		
    cada:	cd 93 00 00 	tst.b	0(r13)		;0x0000(r13)
    cade:	fc 23       	jnz	$-6      	;abs 0xcad8
    cae0:	1d 81 04 00 	sub	4(r1),	r13	;0x0004(r1)
    cae4:	09 9a       	cmp	r10,	r9	
    cae6:	02 28       	jnc	$+6      	;abs 0xcaec
    cae8:	09 8a       	sub	r10,	r9	
    caea:	01 3c       	jmp	$+4      	;abs 0xcaee
    caec:	09 43       	clr	r9		
    caee:	e1 b3 02 00 	bit.b	#2,	2(r1)	;r3 As==10, 0x0002(r1)
    caf2:	05 24       	jz	$+12     	;abs 0xcafe
    caf4:	09 95       	cmp	r5,	r9	
    caf6:	02 28       	jnc	$+6      	;abs 0xcafc
    caf8:	09 85       	sub	r5,	r9	
    cafa:	01 3c       	jmp	$+4      	;abs 0xcafe
    cafc:	09 43       	clr	r9		
    cafe:	05 4d       	mov	r13,	r5	
    cb00:	07 9d       	cmp	r13,	r7	
    cb02:	01 2c       	jc	$+4      	;abs 0xcb06
    cb04:	05 47       	mov	r7,	r5	
    cb06:	4f 93       	tst.b	r15		
    cb08:	0d 38       	jl	$+28     	;abs 0xcb24
    cb0a:	f1 40 20 00 	mov.b	#32,	6(r1)	;#0x0020, 0x0006(r1)
    cb0e:	06 00 
    cb10:	06 43       	clr	r6		
    cb12:	0b 43       	clr	r11		
    cb14:	0e 3c       	jmp	$+30     	;abs 0xcb32
    cb16:	0f 41       	mov	r1,	r15	
    cb18:	0f 56       	add	r6,	r15	
    cb1a:	6f 4f       	mov.b	@r15,	r15	
    cb1c:	8f 11       	sxt	r15		
    cb1e:	16 53       	inc	r6		
    cb20:	88 12       	call	r8		
    cb22:	01 3c       	jmp	$+4      	;abs 0xcb26
    cb24:	06 43       	clr	r6		
    cb26:	06 9a       	cmp	r10,	r6	
    cb28:	f6 3b       	jl	$-18     	;abs 0xcb16
    cb2a:	0b 4a       	mov	r10,	r11	
    cb2c:	f1 40 30 00 	mov.b	#48,	6(r1)	;#0x0030, 0x0006(r1)
    cb30:	06 00 
    cb32:	05 8b       	sub	r11,	r5	
    cb34:	05 3c       	jmp	$+12     	;abs 0xcb40
    cb36:	5f 41 06 00 	mov.b	6(r1),	r15	;0x0006(r1)
    cb3a:	8f 11       	sxt	r15		
    cb3c:	88 12       	call	r8		
    cb3e:	1b 53       	inc	r11		
    cb40:	0f 45       	mov	r5,	r15	
    cb42:	0f 5b       	add	r11,	r15	
    cb44:	0f 99       	cmp	r9,	r15	
    cb46:	f7 2b       	jnc	$-16     	;abs 0xcb36
    cb48:	0a 3c       	jmp	$+22     	;abs 0xcb5e
    cb4a:	06 43       	clr	r6		
    cb4c:	0b 43       	clr	r11		
    cb4e:	07 3c       	jmp	$+16     	;abs 0xcb5e
    cb50:	1b 53       	inc	r11		
    cb52:	0f 41       	mov	r1,	r15	
    cb54:	0f 56       	add	r6,	r15	
    cb56:	6f 4f       	mov.b	@r15,	r15	
    cb58:	8f 11       	sxt	r15		
    cb5a:	16 53       	inc	r6		
    cb5c:	88 12       	call	r8		
    cb5e:	06 9a       	cmp	r10,	r6	
    cb60:	f7 3b       	jl	$-16     	;abs 0xcb50
    cb62:	e1 b3 02 00 	bit.b	#2,	2(r1)	;r3 As==10, 0x0002(r1)
    cb66:	02 24       	jz	$+6      	;abs 0xcb6c
    cb68:	4a 44       	mov.b	r4,	r10	
    cb6a:	08 3c       	jmp	$+18     	;abs 0xcb7c
    cb6c:	1a 41 04 00 	mov	4(r1),	r10	;0x0004(r1)
    cb70:	0a 8b       	sub	r11,	r10	
    cb72:	0d 3c       	jmp	$+28     	;abs 0xcb8e
    cb74:	3f 40 30 00 	mov	#48,	r15	;#0x0030
    cb78:	88 12       	call	r8		
    cb7a:	7a 53       	add.b	#-1,	r10	;r3 As==11
    cb7c:	4a 93       	tst.b	r10		
    cb7e:	fa 23       	jnz	$-10     	;abs 0xcb74
    cb80:	44 44       	mov.b	r4,	r4	
    cb82:	0b 54       	add	r4,	r11	
    cb84:	f3 3f       	jmp	$-24     	;abs 0xcb6c
    cb86:	37 53       	add	#-1,	r7	;r3 As==11
    cb88:	8f 11       	sxt	r15		
    cb8a:	88 12       	call	r8		
    cb8c:	1b 53       	inc	r11		
    cb8e:	0f 4a       	mov	r10,	r15	
    cb90:	0f 5b       	add	r11,	r15	
    cb92:	6f 4f       	mov.b	@r15,	r15	
    cb94:	4f 93       	tst.b	r15		
    cb96:	07 24       	jz	$+16     	;abs 0xcba6
    cb98:	07 93       	tst	r7		
    cb9a:	f5 23       	jnz	$-20     	;abs 0xcb86
    cb9c:	04 3c       	jmp	$+10     	;abs 0xcba6
    cb9e:	3f 40 20 00 	mov	#32,	r15	;#0x0020
    cba2:	88 12       	call	r8		
    cba4:	1b 53       	inc	r11		
    cba6:	0b 99       	cmp	r9,	r11	
    cba8:	fa 2b       	jnc	$-10     	;abs 0xcb9e
    cbaa:	0f 4b       	mov	r11,	r15	
    cbac:	31 52       	add	#8,	r1	;r2 As==11
    cbae:	34 41       	pop	r4		
    cbb0:	35 41       	pop	r5		
    cbb2:	36 41       	pop	r6		
    cbb4:	37 41       	pop	r7		
    cbb6:	38 41       	pop	r8		
    cbb8:	39 41       	pop	r9		
    cbba:	3a 41       	pop	r10		
    cbbc:	3b 41       	pop	r11		
    cbbe:	30 41       	ret			

0000cbc0 <vuprintf>:
    cbc0:	0b 12       	push	r11		
    cbc2:	0a 12       	push	r10		
    cbc4:	09 12       	push	r9		
    cbc6:	08 12       	push	r8		
    cbc8:	07 12       	push	r7		
    cbca:	06 12       	push	r6		
    cbcc:	05 12       	push	r5		
    cbce:	04 12       	push	r4		
    cbd0:	31 50 b6 ff 	add	#-74,	r1	;#0xffb6
    cbd4:	81 4f 3a 00 	mov	r15,	58(r1)	;0x003a(r1)
    cbd8:	06 4e       	mov	r14,	r6	
    cbda:	05 4d       	mov	r13,	r5	
    cbdc:	81 4e 3e 00 	mov	r14,	62(r1)	;0x003e(r1)
    cbe0:	c1 43 2f 00 	mov.b	#0,	47(r1)	;r3 As==00, 0x002f(r1)
    cbe4:	c1 43 2b 00 	mov.b	#0,	43(r1)	;r3 As==00, 0x002b(r1)
    cbe8:	c1 43 2e 00 	mov.b	#0,	46(r1)	;r3 As==00, 0x002e(r1)
    cbec:	c1 43 2a 00 	mov.b	#0,	42(r1)	;r3 As==00, 0x002a(r1)
    cbf0:	81 43 30 00 	mov	#0,	48(r1)	;r3 As==00, 0x0030(r1)
    cbf4:	81 43 26 00 	mov	#0,	38(r1)	;r3 As==00, 0x0026(r1)
    cbf8:	07 43       	clr	r7		
    cbfa:	81 43 2c 00 	mov	#0,	44(r1)	;r3 As==00, 0x002c(r1)
    cbfe:	0e 41       	mov	r1,	r14	
    cc00:	3e 50 1c 00 	add	#28,	r14	;#0x001c
    cc04:	81 4e 1c 00 	mov	r14,	28(r1)	;0x001c(r1)
    cc08:	30 40 3a d2 	br	#0xd23a	
    cc0c:	0f 46       	mov	r6,	r15	
    cc0e:	1f 53       	inc	r15		
    cc10:	81 4f 40 00 	mov	r15,	64(r1)	;0x0040(r1)
    cc14:	07 93       	tst	r7		
    cc16:	1e 20       	jnz	$+62     	;abs 0xcc54
    cc18:	7e 90 25 00 	cmp.b	#37,	r14	;#0x0025
    cc1c:	13 20       	jnz	$+40     	;abs 0xcc44
    cc1e:	81 43 00 00 	mov	#0,	0(r1)	;r3 As==00, 0x0000(r1)
    cc22:	81 43 02 00 	mov	#0,	2(r1)	;r3 As==00, 0x0002(r1)
    cc26:	81 46 3e 00 	mov	r6,	62(r1)	;0x003e(r1)
    cc2a:	c1 43 2f 00 	mov.b	#0,	47(r1)	;r3 As==00, 0x002f(r1)
    cc2e:	c1 43 2b 00 	mov.b	#0,	43(r1)	;r3 As==00, 0x002b(r1)
    cc32:	c1 43 2e 00 	mov.b	#0,	46(r1)	;r3 As==00, 0x002e(r1)
    cc36:	c1 43 2a 00 	mov.b	#0,	42(r1)	;r3 As==00, 0x002a(r1)
    cc3a:	81 43 30 00 	mov	#0,	48(r1)	;r3 As==00, 0x0030(r1)
    cc3e:	30 40 30 d2 	br	#0xd230	
    cc42:	05 47       	mov	r7,	r5	
    cc44:	8e 11       	sxt	r14		
    cc46:	0f 4e       	mov	r14,	r15	
    cc48:	91 12 3c 00 	call	60(r1)		;0x003c(r1)
    cc4c:	91 53 2c 00 	inc	44(r1)		;0x002c(r1)
    cc50:	30 40 16 d2 	br	#0xd216	
    cc54:	7e 90 63 00 	cmp.b	#99,	r14	;#0x0063
    cc58:	c5 24       	jz	$+396    	;abs 0xcde4
    cc5a:	7e 90 64 00 	cmp.b	#100,	r14	;#0x0064
    cc5e:	27 34       	jge	$+80     	;abs 0xccae
    cc60:	7e 90 30 00 	cmp.b	#48,	r14	;#0x0030
    cc64:	94 24       	jz	$+298    	;abs 0xcd8e
    cc66:	7e 90 31 00 	cmp.b	#49,	r14	;#0x0031
    cc6a:	1a 34       	jge	$+54     	;abs 0xcca0
    cc6c:	7e 90 2a 00 	cmp.b	#42,	r14	;#0x002a
    cc70:	77 24       	jz	$+240    	;abs 0xcd60
    cc72:	7e 90 2b 00 	cmp.b	#43,	r14	;#0x002b
    cc76:	0a 34       	jge	$+22     	;abs 0xcc8c
    cc78:	7e 90 23 00 	cmp.b	#35,	r14	;#0x0023
    cc7c:	42 24       	jz	$+134    	;abs 0xcd02
    cc7e:	7e 90 25 00 	cmp.b	#37,	r14	;#0x0025
    cc82:	e0 27       	jz	$-62     	;abs 0xcc44
    cc84:	7e 90 20 00 	cmp.b	#32,	r14	;#0x0020
    cc88:	32 20       	jnz	$+102    	;abs 0xccee
    cc8a:	56 3c       	jmp	$+174    	;abs 0xcd38
    cc8c:	7e 90 2d 00 	cmp.b	#45,	r14	;#0x002d
    cc90:	49 24       	jz	$+148    	;abs 0xcd24
    cc92:	7e 90 2e 00 	cmp.b	#46,	r14	;#0x002e
    cc96:	5b 24       	jz	$+184    	;abs 0xcd4e
    cc98:	7e 90 2b 00 	cmp.b	#43,	r14	;#0x002b
    cc9c:	28 20       	jnz	$+82     	;abs 0xccee
    cc9e:	47 3c       	jmp	$+144    	;abs 0xcd2e
    cca0:	7e 90 3a 00 	cmp.b	#58,	r14	;#0x003a
    cca4:	8c 38       	jl	$+282    	;abs 0xcdbe
    cca6:	7e 90 58 00 	cmp.b	#88,	r14	;#0x0058
    ccaa:	21 20       	jnz	$+68     	;abs 0xccee
    ccac:	e9 3c       	jmp	$+468    	;abs 0xce80
    ccae:	7e 90 6f 00 	cmp.b	#111,	r14	;#0x006f
    ccb2:	24 24       	jz	$+74     	;abs 0xccfc
    ccb4:	7e 90 70 00 	cmp.b	#112,	r14	;#0x0070
    ccb8:	0a 34       	jge	$+22     	;abs 0xccce
    ccba:	7e 90 69 00 	cmp.b	#105,	r14	;#0x0069
    ccbe:	e3 24       	jz	$+456    	;abs 0xce86
    ccc0:	7e 90 6c 00 	cmp.b	#108,	r14	;#0x006c
    ccc4:	22 24       	jz	$+70     	;abs 0xcd0a
    ccc6:	7e 90 64 00 	cmp.b	#100,	r14	;#0x0064
    ccca:	11 20       	jnz	$+36     	;abs 0xccee
    cccc:	dc 3c       	jmp	$+442    	;abs 0xce86
    ccce:	7e 90 73 00 	cmp.b	#115,	r14	;#0x0073
    ccd2:	98 24       	jz	$+306    	;abs 0xce04
    ccd4:	7e 90 74 00 	cmp.b	#116,	r14	;#0x0074
    ccd8:	04 34       	jge	$+10     	;abs 0xcce2
    ccda:	7e 90 70 00 	cmp.b	#112,	r14	;#0x0070
    ccde:	07 20       	jnz	$+16     	;abs 0xccee
    cce0:	b8 3c       	jmp	$+370    	;abs 0xce52
    cce2:	7e 90 75 00 	cmp.b	#117,	r14	;#0x0075
    cce6:	d1 24       	jz	$+420    	;abs 0xce8a
    cce8:	7e 90 78 00 	cmp.b	#120,	r14	;#0x0078
    ccec:	d2 24       	jz	$+422    	;abs 0xce92
    ccee:	19 41 3e 00 	mov	62(r1),	r9	;0x003e(r1)
    ccf2:	18 41 2c 00 	mov	44(r1),	r8	;0x002c(r1)
    ccf6:	08 89       	sub	r9,	r8	
    ccf8:	30 40 04 d2 	br	#0xd204	
    ccfc:	b1 42 28 00 	mov	#8,	40(r1)	;r2 As==11, 0x0028(r1)
    cd00:	cb 3c       	jmp	$+408    	;abs 0xce98
    cd02:	f1 d2 00 00 	bis.b	#8,	0(r1)	;r2 As==11, 0x0000(r1)
    cd06:	30 40 34 d2 	br	#0xd234	
    cd0a:	69 41       	mov.b	@r1,	r9	
    cd0c:	59 f3       	and.b	#1,	r9	;r3 As==01
    cd0e:	6e 41       	mov.b	@r1,	r14	
    cd10:	04 24       	jz	$+10     	;abs 0xcd1a
    cd12:	7e f0 fe ff 	and.b	#-2,	r14	;#0xfffe
    cd16:	6e d3       	bis.b	#2,	r14	;r3 As==10
    cd18:	01 3c       	jmp	$+4      	;abs 0xcd1c
    cd1a:	5e d3       	bis.b	#1,	r14	;r3 As==01
    cd1c:	c1 4e 00 00 	mov.b	r14,	0(r1)	;0x0000(r1)
    cd20:	30 40 34 d2 	br	#0xd234	
    cd24:	f1 d0 10 00 	bis.b	#16,	0(r1)	;#0x0010, 0x0000(r1)
    cd28:	00 00 
    cd2a:	30 40 34 d2 	br	#0xd234	
    cd2e:	f1 40 2b 00 	mov.b	#43,	2(r1)	;#0x002b, 0x0002(r1)
    cd32:	02 00 
    cd34:	30 40 34 d2 	br	#0xd234	
    cd38:	f1 90 2b 00 	cmp.b	#43,	2(r1)	;#0x002b, 0x0002(r1)
    cd3c:	02 00 
    cd3e:	02 20       	jnz	$+6      	;abs 0xcd44
    cd40:	30 40 34 d2 	br	#0xd234	
    cd44:	f1 40 20 00 	mov.b	#32,	2(r1)	;#0x0020, 0x0002(r1)
    cd48:	02 00 
    cd4a:	30 40 34 d2 	br	#0xd234	
    cd4e:	c1 93 2a 00 	tst.b	42(r1)		;0x002a(r1)
    cd52:	02 24       	jz	$+6      	;abs 0xcd58
    cd54:	30 40 1a d2 	br	#0xd21a	
    cd58:	d1 43 2e 00 	mov.b	#1,	46(r1)	;r3 As==01, 0x002e(r1)
    cd5c:	30 40 34 d2 	br	#0xd234	
    cd60:	0e 45       	mov	r5,	r14	
    cd62:	2e 53       	incd	r14		
    cd64:	2a 45       	mov	@r5,	r10	
    cd66:	0a 93       	tst	r10		
    cd68:	03 38       	jl	$+8      	;abs 0xcd70
    cd6a:	81 4a 26 00 	mov	r10,	38(r1)	;0x0026(r1)
    cd6e:	0d 3c       	jmp	$+28     	;abs 0xcd8a
    cd70:	c1 93 2e 00 	tst.b	46(r1)		;0x002e(r1)
    cd74:	02 24       	jz	$+6      	;abs 0xcd7a
    cd76:	30 40 2a d2 	br	#0xd22a	
    cd7a:	f1 d0 10 00 	bis.b	#16,	0(r1)	;#0x0010, 0x0000(r1)
    cd7e:	00 00 
    cd80:	3a e3       	inv	r10		
    cd82:	81 4a 26 00 	mov	r10,	38(r1)	;0x0026(r1)
    cd86:	91 53 26 00 	inc	38(r1)		;0x0026(r1)
    cd8a:	05 4e       	mov	r14,	r5	
    cd8c:	27 3c       	jmp	$+80     	;abs 0xcddc
    cd8e:	81 93 26 00 	tst	38(r1)		;0x0026(r1)
    cd92:	15 20       	jnz	$+44     	;abs 0xcdbe
    cd94:	c1 93 2e 00 	tst.b	46(r1)		;0x002e(r1)
    cd98:	12 20       	jnz	$+38     	;abs 0xcdbe
    cd9a:	69 41       	mov.b	@r1,	r9	
    cd9c:	79 f0 10 00 	and.b	#16,	r9	;#0x0010
    cda0:	5e 43       	mov.b	#1,	r14	;r3 As==01
    cda2:	01 24       	jz	$+4      	;abs 0xcda6
    cda4:	4e 43       	clr.b	r14		
    cda6:	4e 4e       	mov.b	r14,	r14	
    cda8:	0e 11       	rra	r14		
    cdaa:	0e 43       	clr	r14		
    cdac:	4e 10       	rrc.b	r14		
    cdae:	6a 41       	mov.b	@r1,	r10	
    cdb0:	7a f0 7f 00 	and.b	#127,	r10	;#0x007f
    cdb4:	4a de       	bis.b	r14,	r10	
    cdb6:	c1 4a 00 00 	mov.b	r10,	0(r1)	;0x0000(r1)
    cdba:	30 40 34 d2 	br	#0xd234	
    cdbe:	1a 41 26 00 	mov	38(r1),	r10	;0x0026(r1)
    cdc2:	0a 5a       	rla	r10		
    cdc4:	0c 4a       	mov	r10,	r12	
    cdc6:	0c 5c       	rla	r12		
    cdc8:	0c 5c       	rla	r12		
    cdca:	0a 5c       	add	r12,	r10	
    cdcc:	81 4a 26 00 	mov	r10,	38(r1)	;0x0026(r1)
    cdd0:	b1 50 d0 ff 	add	#-48,	38(r1)	;#0xffd0, 0x0026(r1)
    cdd4:	26 00 
    cdd6:	8e 11       	sxt	r14		
    cdd8:	81 5e 26 00 	add	r14,	38(r1)	;0x0026(r1)
    cddc:	d1 43 2a 00 	mov.b	#1,	42(r1)	;r3 As==01, 0x002a(r1)
    cde0:	30 40 34 d2 	br	#0xd234	
    cde4:	07 45       	mov	r5,	r7	
    cde6:	27 53       	incd	r7		
    cde8:	6e 45       	mov.b	@r5,	r14	
    cdea:	c1 93 2e 00 	tst.b	46(r1)		;0x002e(r1)
    cdee:	03 20       	jnz	$+8      	;abs 0xcdf6
    cdf0:	c1 93 2a 00 	tst.b	42(r1)		;0x002a(r1)
    cdf4:	26 27       	jz	$-434    	;abs 0xcc42
    cdf6:	c1 4e 04 00 	mov.b	r14,	4(r1)	;0x0004(r1)
    cdfa:	c1 43 05 00 	mov.b	#0,	5(r1)	;r3 As==00, 0x0005(r1)
    cdfe:	0e 41       	mov	r1,	r14	
    ce00:	2e 52       	add	#4,	r14	;r2 As==10
    ce02:	03 3c       	jmp	$+8      	;abs 0xce0a
    ce04:	07 45       	mov	r5,	r7	
    ce06:	27 53       	incd	r7		
    ce08:	2e 45       	mov	@r5,	r14	
    ce0a:	c1 93 2e 00 	tst.b	46(r1)		;0x002e(r1)
    ce0e:	07 24       	jz	$+16     	;abs 0xce1e
    ce10:	e1 d2 01 00 	bis.b	#4,	1(r1)	;r2 As==10, 0x0001(r1)
    ce14:	1f 41 26 00 	mov	38(r1),	r15	;0x0026(r1)
    ce18:	c1 4f 03 00 	mov.b	r15,	3(r1)	;0x0003(r1)
    ce1c:	06 3c       	jmp	$+14     	;abs 0xce2a
    ce1e:	c1 93 2a 00 	tst.b	42(r1)		;0x002a(r1)
    ce22:	03 24       	jz	$+8      	;abs 0xce2a
    ce24:	91 41 26 00 	mov	38(r1),	48(r1)	;0x0026(r1), 0x0030(r1)
    ce28:	30 00 
    ce2a:	0e 93       	tst	r14		
    ce2c:	02 20       	jnz	$+6      	;abs 0xce32
    ce2e:	3e 40 ac d3 	mov	#-11348,r14	;#0xd3ac
    ce32:	11 12 04 00 	push	4(r1)		;0x0004(r1)
    ce36:	11 12 04 00 	push	4(r1)		;0x0004(r1)
    ce3a:	1d 41 34 00 	mov	52(r1),	r13	;0x0034(r1)
    ce3e:	1f 41 3e 00 	mov	62(r1),	r15	;0x003e(r1)
    ce42:	b0 12 28 ca 	call	#0xca28	
    ce46:	21 52       	add	#4,	r1	;r2 As==10
    ce48:	81 5f 2c 00 	add	r15,	44(r1)	;0x002c(r1)
    ce4c:	05 47       	mov	r7,	r5	
    ce4e:	30 40 16 d2 	br	#0xd216	
    ce52:	07 45       	mov	r5,	r7	
    ce54:	27 53       	incd	r7		
    ce56:	29 45       	mov	@r5,	r9	
    ce58:	81 49 1e 00 	mov	r9,	30(r1)	;0x001e(r1)
    ce5c:	5e 43       	mov.b	#1,	r14	;r3 As==01
    ce5e:	09 93       	tst	r9		
    ce60:	01 20       	jnz	$+4      	;abs 0xce64
    ce62:	4e 43       	clr.b	r14		
    ce64:	4e 5e       	rla.b	r14		
    ce66:	4e 5e       	rla.b	r14		
    ce68:	4e 5e       	rla.b	r14		
    ce6a:	6a 41       	mov.b	@r1,	r10	
    ce6c:	7a f0 f7 ff 	and.b	#-9,	r10	;#0xfff7
    ce70:	4a de       	bis.b	r14,	r10	
    ce72:	c1 4a 00 00 	mov.b	r10,	0(r1)	;0x0000(r1)
    ce76:	05 47       	mov	r7,	r5	
    ce78:	b1 40 10 00 	mov	#16,	40(r1)	;#0x0010, 0x0028(r1)
    ce7c:	28 00 
    ce7e:	53 3c       	jmp	$+168    	;abs 0xcf26
    ce80:	d1 d3 01 00 	bis.b	#1,	1(r1)	;r3 As==01, 0x0001(r1)
    ce84:	06 3c       	jmp	$+14     	;abs 0xce92
    ce86:	e1 d2 00 00 	bis.b	#4,	0(r1)	;r2 As==10, 0x0000(r1)
    ce8a:	b1 40 0a 00 	mov	#10,	40(r1)	;#0x000a, 0x0028(r1)
    ce8e:	28 00 
    ce90:	03 3c       	jmp	$+8      	;abs 0xce98
    ce92:	b1 40 10 00 	mov	#16,	40(r1)	;#0x0010, 0x0028(r1)
    ce96:	28 00 
    ce98:	6b 41       	mov.b	@r1,	r11	
    ce9a:	6b b3       	bit.b	#2,	r11	;r3 As==10
    ce9c:	24 24       	jz	$+74     	;abs 0xcee6
    ce9e:	0c 45       	mov	r5,	r12	
    cea0:	3c 52       	add	#8,	r12	;r2 As==11
    cea2:	28 45       	mov	@r5,	r8	
    cea4:	17 45 02 00 	mov	2(r5),	r7	;0x0002(r5)
    cea8:	16 45 04 00 	mov	4(r5),	r6	;0x0004(r5)
    ceac:	1b 45 06 00 	mov	6(r5),	r11	;0x0006(r5)
    ceb0:	81 48 1e 00 	mov	r8,	30(r1)	;0x001e(r1)
    ceb4:	81 47 20 00 	mov	r7,	32(r1)	;0x0020(r1)
    ceb8:	81 46 22 00 	mov	r6,	34(r1)	;0x0022(r1)
    cebc:	81 4b 24 00 	mov	r11,	36(r1)	;0x0024(r1)
    cec0:	d1 43 2b 00 	mov.b	#1,	43(r1)	;r3 As==01, 0x002b(r1)
    cec4:	08 93       	tst	r8		
    cec6:	06 20       	jnz	$+14     	;abs 0xced4
    cec8:	07 93       	tst	r7		
    ceca:	04 20       	jnz	$+10     	;abs 0xced4
    cecc:	06 93       	tst	r6		
    cece:	02 20       	jnz	$+6      	;abs 0xced4
    ced0:	0b 93       	tst	r11		
    ced2:	02 24       	jz	$+6      	;abs 0xced8
    ced4:	c1 43 2b 00 	mov.b	#0,	43(r1)	;r3 As==00, 0x002b(r1)
    ced8:	0b 5b       	rla	r11		
    ceda:	0b 43       	clr	r11		
    cedc:	0b 6b       	rlc	r11		
    cede:	c1 4b 2f 00 	mov.b	r11,	47(r1)	;0x002f(r1)
    cee2:	05 4c       	mov	r12,	r5	
    cee4:	20 3c       	jmp	$+66     	;abs 0xcf26
    cee6:	5b f3       	and.b	#1,	r11	;r3 As==01
    cee8:	07 45       	mov	r5,	r7	
    ceea:	0d 24       	jz	$+28     	;abs 0xcf06
    ceec:	27 52       	add	#4,	r7	;r2 As==10
    ceee:	28 45       	mov	@r5,	r8	
    cef0:	1b 45 02 00 	mov	2(r5),	r11	;0x0002(r5)
    cef4:	81 48 1e 00 	mov	r8,	30(r1)	;0x001e(r1)
    cef8:	81 4b 20 00 	mov	r11,	32(r1)	;0x0020(r1)
    cefc:	d1 43 2b 00 	mov.b	#1,	43(r1)	;r3 As==01, 0x002b(r1)
    cf00:	08 93       	tst	r8		
    cf02:	09 20       	jnz	$+20     	;abs 0xcf16
    cf04:	06 3c       	jmp	$+14     	;abs 0xcf12
    cf06:	27 53       	incd	r7		
    cf08:	2b 45       	mov	@r5,	r11	
    cf0a:	81 4b 1e 00 	mov	r11,	30(r1)	;0x001e(r1)
    cf0e:	d1 43 2b 00 	mov.b	#1,	43(r1)	;r3 As==01, 0x002b(r1)
    cf12:	0b 93       	tst	r11		
    cf14:	02 24       	jz	$+6      	;abs 0xcf1a
    cf16:	c1 43 2b 00 	mov.b	#0,	43(r1)	;r3 As==00, 0x002b(r1)
    cf1a:	0b 5b       	rla	r11		
    cf1c:	0b 43       	clr	r11		
    cf1e:	0b 6b       	rlc	r11		
    cf20:	c1 4b 2f 00 	mov.b	r11,	47(r1)	;0x002f(r1)
    cf24:	05 47       	mov	r7,	r5	
    cf26:	f1 b2 00 00 	bit.b	#8,	0(r1)	;r2 As==11, 0x0000(r1)
    cf2a:	12 24       	jz	$+38     	;abs 0xcf50
    cf2c:	c1 93 2b 00 	tst.b	43(r1)		;0x002b(r1)
    cf30:	0f 20       	jnz	$+32     	;abs 0xcf50
    cf32:	68 41       	mov.b	@r1,	r8	
    cf34:	b1 90 10 00 	cmp	#16,	40(r1)	;#0x0010, 0x0028(r1)
    cf38:	28 00 
    cf3a:	03 20       	jnz	$+8      	;abs 0xcf42
    cf3c:	78 d0 40 00 	bis.b	#64,	r8	;#0x0040
    cf40:	05 3c       	jmp	$+12     	;abs 0xcf4c
    cf42:	b1 92 28 00 	cmp	#8,	40(r1)	;r2 As==11, 0x0028(r1)
    cf46:	04 20       	jnz	$+10     	;abs 0xcf50
    cf48:	78 d0 20 00 	bis.b	#32,	r8	;#0x0020
    cf4c:	c1 48 00 00 	mov.b	r8,	0(r1)	;0x0000(r1)
    cf50:	68 41       	mov.b	@r1,	r8	
    cf52:	68 b2       	bit.b	#4,	r8	;r2 As==10
    cf54:	30 24       	jz	$+98     	;abs 0xcfb6
    cf56:	c1 93 2f 00 	tst.b	47(r1)		;0x002f(r1)
    cf5a:	2d 24       	jz	$+92     	;abs 0xcfb6
    cf5c:	f1 40 2d 00 	mov.b	#45,	2(r1)	;#0x002d, 0x0002(r1)
    cf60:	02 00 
    cf62:	68 b3       	bit.b	#2,	r8	;r3 As==10
    cf64:	11 24       	jz	$+36     	;abs 0xcf88
    cf66:	b1 e3 1e 00 	xor	#-1,	30(r1)	;r3 As==11, 0x001e(r1)
    cf6a:	b1 e3 20 00 	xor	#-1,	32(r1)	;r3 As==11, 0x0020(r1)
    cf6e:	b1 e3 22 00 	xor	#-1,	34(r1)	;r3 As==11, 0x0022(r1)
    cf72:	b1 e3 24 00 	xor	#-1,	36(r1)	;r3 As==11, 0x0024(r1)
    cf76:	91 53 1e 00 	inc	30(r1)		;0x001e(r1)
    cf7a:	81 63 20 00 	adc	32(r1)		;0x0020(r1)
    cf7e:	81 63 22 00 	adc	34(r1)		;0x0022(r1)
    cf82:	81 63 24 00 	adc	36(r1)		;0x0024(r1)
    cf86:	17 3c       	jmp	$+48     	;abs 0xcfb6
    cf88:	58 b3       	bit.b	#1,	r8	;r3 As==01
    cf8a:	0f 24       	jz	$+32     	;abs 0xcfaa
    cf8c:	1a 41 1e 00 	mov	30(r1),	r10	;0x001e(r1)
    cf90:	1b 41 20 00 	mov	32(r1),	r11	;0x0020(r1)
    cf94:	3a e3       	inv	r10		
    cf96:	3b e3       	inv	r11		
    cf98:	0e 4a       	mov	r10,	r14	
    cf9a:	0f 4b       	mov	r11,	r15	
    cf9c:	1e 53       	inc	r14		
    cf9e:	0f 63       	adc	r15		
    cfa0:	81 4e 1e 00 	mov	r14,	30(r1)	;0x001e(r1)
    cfa4:	81 4f 20 00 	mov	r15,	32(r1)	;0x0020(r1)
    cfa8:	06 3c       	jmp	$+14     	;abs 0xcfb6
    cfaa:	1a 41 1e 00 	mov	30(r1),	r10	;0x001e(r1)
    cfae:	3a e3       	inv	r10		
    cfb0:	1a 53       	inc	r10		
    cfb2:	81 4a 1e 00 	mov	r10,	30(r1)	;0x001e(r1)
    cfb6:	c1 43 1b 00 	mov.b	#0,	27(r1)	;r3 As==00, 0x001b(r1)
    cfba:	68 b3       	bit.b	#2,	r8	;r3 As==10
    cfbc:	6a 24       	jz	$+214    	;abs 0xd092
    cfbe:	16 41 1e 00 	mov	30(r1),	r6	;0x001e(r1)
    cfc2:	91 41 20 00 	mov	32(r1),	60(r1)	;0x0020(r1), 0x003c(r1)
    cfc6:	3c 00 
    cfc8:	18 41 22 00 	mov	34(r1),	r8	;0x0022(r1)
    cfcc:	14 41 24 00 	mov	36(r1),	r4	;0x0024(r1)
    cfd0:	07 41       	mov	r1,	r7	
    cfd2:	37 50 1a 00 	add	#26,	r7	;#0x001a
    cfd6:	09 46       	mov	r6,	r9	
    cfd8:	91 41 28 00 	mov	40(r1),	50(r1)	;0x0028(r1), 0x0032(r1)
    cfdc:	32 00 
    cfde:	1b 41 28 00 	mov	40(r1),	r11	;0x0028(r1)
    cfe2:	8b 10       	swpb	r11		
    cfe4:	8b 11       	sxt	r11		
    cfe6:	8b 10       	swpb	r11		
    cfe8:	8b 11       	sxt	r11		
    cfea:	81 4b 34 00 	mov	r11,	52(r1)	;0x0034(r1)
    cfee:	81 4b 36 00 	mov	r11,	54(r1)	;0x0036(r1)
    cff2:	81 4b 38 00 	mov	r11,	56(r1)	;0x0038(r1)
    cff6:	11 12 3a 00 	push	58(r1)		;0x003a(r1)
    cffa:	11 12 3a 00 	push	58(r1)		;0x003a(r1)
    cffe:	11 12 3a 00 	push	58(r1)		;0x003a(r1)
    d002:	11 12 3a 00 	push	58(r1)		;0x003a(r1)
    d006:	0c 49       	mov	r9,	r12	
    d008:	1d 41 44 00 	mov	68(r1),	r13	;0x0044(r1)
    d00c:	0e 48       	mov	r8,	r14	
    d00e:	0f 44       	mov	r4,	r15	
    d010:	b0 12 22 d3 	call	#0xd322	
    d014:	31 52       	add	#8,	r1	;r2 As==11
    d016:	0b 4c       	mov	r12,	r11	
    d018:	3c 90 0a 00 	cmp	#10,	r12	;#0x000a
    d01c:	05 34       	jge	$+12     	;abs 0xd028
    d01e:	7b 50 30 00 	add.b	#48,	r11	;#0x0030
    d022:	c7 4b 00 00 	mov.b	r11,	0(r7)	;0x0000(r7)
    d026:	0c 3c       	jmp	$+26     	;abs 0xd040
    d028:	4b 4c       	mov.b	r12,	r11	
    d02a:	d1 b3 01 00 	bit.b	#1,	1(r1)	;r3 As==01, 0x0001(r1)
    d02e:	03 24       	jz	$+8      	;abs 0xd036
    d030:	7a 40 37 00 	mov.b	#55,	r10	;#0x0037
    d034:	02 3c       	jmp	$+6      	;abs 0xd03a
    d036:	7a 40 57 00 	mov.b	#87,	r10	;#0x0057
    d03a:	4a 5b       	add.b	r11,	r10	
    d03c:	c7 4a 00 00 	mov.b	r10,	0(r7)	;0x0000(r7)
    d040:	06 47       	mov	r7,	r6	
    d042:	36 53       	add	#-1,	r6	;r3 As==11
    d044:	11 12 3a 00 	push	58(r1)		;0x003a(r1)
    d048:	11 12 3a 00 	push	58(r1)		;0x003a(r1)
    d04c:	11 12 3a 00 	push	58(r1)		;0x003a(r1)
    d050:	11 12 3a 00 	push	58(r1)		;0x003a(r1)
    d054:	0c 49       	mov	r9,	r12	
    d056:	1d 41 44 00 	mov	68(r1),	r13	;0x0044(r1)
    d05a:	0e 48       	mov	r8,	r14	
    d05c:	0f 44       	mov	r4,	r15	
    d05e:	b0 12 fc d2 	call	#0xd2fc	
    d062:	31 52       	add	#8,	r1	;r2 As==11
    d064:	09 4c       	mov	r12,	r9	
    d066:	81 4d 3c 00 	mov	r13,	60(r1)	;0x003c(r1)
    d06a:	08 4e       	mov	r14,	r8	
    d06c:	04 4f       	mov	r15,	r4	
    d06e:	37 53       	add	#-1,	r7	;r3 As==11
    d070:	0c 93       	tst	r12		
    d072:	b2 23       	jnz	$-154    	;abs 0xcfd8
    d074:	0d 93       	tst	r13		
    d076:	b0 23       	jnz	$-158    	;abs 0xcfd8
    d078:	0e 93       	tst	r14		
    d07a:	ae 23       	jnz	$-162    	;abs 0xcfd8
    d07c:	0f 93       	tst	r15		
    d07e:	ac 23       	jnz	$-166    	;abs 0xcfd8
    d080:	81 43 1e 00 	mov	#0,	30(r1)	;r3 As==00, 0x001e(r1)
    d084:	81 43 20 00 	mov	#0,	32(r1)	;r3 As==00, 0x0020(r1)
    d088:	81 43 22 00 	mov	#0,	34(r1)	;r3 As==00, 0x0022(r1)
    d08c:	81 43 24 00 	mov	#0,	36(r1)	;r3 As==00, 0x0024(r1)
    d090:	6c 3c       	jmp	$+218    	;abs 0xd16a
    d092:	58 b3       	bit.b	#1,	r8	;r3 As==01
    d094:	3e 24       	jz	$+126    	;abs 0xd112
    d096:	14 41 1e 00 	mov	30(r1),	r4	;0x001e(r1)
    d09a:	17 41 20 00 	mov	32(r1),	r7	;0x0020(r1)
    d09e:	08 41       	mov	r1,	r8	
    d0a0:	38 50 1a 00 	add	#26,	r8	;#0x001a
    d0a4:	19 41 28 00 	mov	40(r1),	r9	;0x0028(r1)
    d0a8:	89 10       	swpb	r9		
    d0aa:	89 11       	sxt	r9		
    d0ac:	89 10       	swpb	r9		
    d0ae:	89 11       	sxt	r9		
    d0b0:	1c 41 28 00 	mov	40(r1),	r12	;0x0028(r1)
    d0b4:	0d 49       	mov	r9,	r13	
    d0b6:	0e 44       	mov	r4,	r14	
    d0b8:	0f 47       	mov	r7,	r15	
    d0ba:	b0 12 94 d2 	call	#0xd294	
    d0be:	0b 4e       	mov	r14,	r11	
    d0c0:	3e 90 0a 00 	cmp	#10,	r14	;#0x000a
    d0c4:	05 34       	jge	$+12     	;abs 0xd0d0
    d0c6:	7b 50 30 00 	add.b	#48,	r11	;#0x0030
    d0ca:	c8 4b 00 00 	mov.b	r11,	0(r8)	;0x0000(r8)
    d0ce:	0c 3c       	jmp	$+26     	;abs 0xd0e8
    d0d0:	4b 4e       	mov.b	r14,	r11	
    d0d2:	d1 b3 01 00 	bit.b	#1,	1(r1)	;r3 As==01, 0x0001(r1)
    d0d6:	03 24       	jz	$+8      	;abs 0xd0de
    d0d8:	7a 40 37 00 	mov.b	#55,	r10	;#0x0037
    d0dc:	02 3c       	jmp	$+6      	;abs 0xd0e2
    d0de:	7a 40 57 00 	mov.b	#87,	r10	;#0x0057
    d0e2:	4a 5b       	add.b	r11,	r10	
    d0e4:	c8 4a 00 00 	mov.b	r10,	0(r8)	;0x0000(r8)
    d0e8:	06 48       	mov	r8,	r6	
    d0ea:	36 53       	add	#-1,	r6	;r3 As==11
    d0ec:	1c 41 28 00 	mov	40(r1),	r12	;0x0028(r1)
    d0f0:	0d 49       	mov	r9,	r13	
    d0f2:	0e 44       	mov	r4,	r14	
    d0f4:	0f 47       	mov	r7,	r15	
    d0f6:	b0 12 5e d2 	call	#0xd25e	
    d0fa:	04 4e       	mov	r14,	r4	
    d0fc:	07 4f       	mov	r15,	r7	
    d0fe:	38 53       	add	#-1,	r8	;r3 As==11
    d100:	0e 93       	tst	r14		
    d102:	d0 23       	jnz	$-94     	;abs 0xd0a4
    d104:	0f 93       	tst	r15		
    d106:	ce 23       	jnz	$-98     	;abs 0xd0a4
    d108:	81 43 1e 00 	mov	#0,	30(r1)	;r3 As==00, 0x001e(r1)
    d10c:	81 43 20 00 	mov	#0,	32(r1)	;r3 As==00, 0x0020(r1)
    d110:	2c 3c       	jmp	$+90     	;abs 0xd16a
    d112:	17 41 1e 00 	mov	30(r1),	r7	;0x001e(r1)
    d116:	08 41       	mov	r1,	r8	
    d118:	38 50 1a 00 	add	#26,	r8	;#0x001a
    d11c:	1e 41 28 00 	mov	40(r1),	r14	;0x0028(r1)
    d120:	0f 47       	mov	r7,	r15	
    d122:	b0 12 64 c9 	call	#0xc964	
    d126:	0d 4f       	mov	r15,	r13	
    d128:	3f 90 0a 00 	cmp	#10,	r15	;#0x000a
    d12c:	05 34       	jge	$+12     	;abs 0xd138
    d12e:	7d 50 30 00 	add.b	#48,	r13	;#0x0030
    d132:	c8 4d 00 00 	mov.b	r13,	0(r8)	;0x0000(r8)
    d136:	0c 3c       	jmp	$+26     	;abs 0xd150
    d138:	4d 4f       	mov.b	r15,	r13	
    d13a:	d1 b3 01 00 	bit.b	#1,	1(r1)	;r3 As==01, 0x0001(r1)
    d13e:	03 24       	jz	$+8      	;abs 0xd146
    d140:	7c 40 37 00 	mov.b	#55,	r12	;#0x0037
    d144:	02 3c       	jmp	$+6      	;abs 0xd14a
    d146:	7c 40 57 00 	mov.b	#87,	r12	;#0x0057
    d14a:	4c 5d       	add.b	r13,	r12	
    d14c:	c8 4c 00 00 	mov.b	r12,	0(r8)	;0x0000(r8)
    d150:	06 48       	mov	r8,	r6	
    d152:	36 53       	add	#-1,	r6	;r3 As==11
    d154:	1e 41 28 00 	mov	40(r1),	r14	;0x0028(r1)
    d158:	0f 47       	mov	r7,	r15	
    d15a:	b0 12 4a c9 	call	#0xc94a	
    d15e:	07 4f       	mov	r15,	r7	
    d160:	38 53       	add	#-1,	r8	;r3 As==11
    d162:	0f 93       	tst	r15		
    d164:	db 23       	jnz	$-72     	;abs 0xd11c
    d166:	81 43 1e 00 	mov	#0,	30(r1)	;r3 As==00, 0x001e(r1)
    d16a:	b1 90 0a 00 	cmp	#10,	40(r1)	;#0x000a, 0x0028(r1)
    d16e:	28 00 
    d170:	02 24       	jz	$+6      	;abs 0xd176
    d172:	c1 43 02 00 	mov.b	#0,	2(r1)	;r3 As==00, 0x0002(r1)
    d176:	c1 93 2e 00 	tst.b	46(r1)		;0x002e(r1)
    d17a:	2a 24       	jz	$+86     	;abs 0xd1d0
    d17c:	0f 41       	mov	r1,	r15	
    d17e:	3f 50 1c 00 	add	#28,	r15	;#0x001c
    d182:	81 4f 42 00 	mov	r15,	66(r1)	;0x0042(r1)
    d186:	1a 41 1c 00 	mov	28(r1),	r10	;0x001c(r1)
    d18a:	8a 10       	swpb	r10		
    d18c:	8a 11       	sxt	r10		
    d18e:	8a 10       	swpb	r10		
    d190:	8a 11       	sxt	r10		
    d192:	81 4a 44 00 	mov	r10,	68(r1)	;0x0044(r1)
    d196:	81 46 46 00 	mov	r6,	70(r1)	;0x0046(r1)
    d19a:	0a 46       	mov	r6,	r10	
    d19c:	8a 10       	swpb	r10		
    d19e:	8a 11       	sxt	r10		
    d1a0:	8a 10       	swpb	r10		
    d1a2:	8a 11       	sxt	r10		
    d1a4:	81 4a 48 00 	mov	r10,	72(r1)	;0x0048(r1)
    d1a8:	1c 41 42 00 	mov	66(r1),	r12	;0x0042(r1)
    d1ac:	1d 41 44 00 	mov	68(r1),	r13	;0x0044(r1)
    d1b0:	1c 81 46 00 	sub	70(r1),	r12	;0x0046(r1)
    d1b4:	1d 71 48 00 	subc	72(r1),	r13	;0x0048(r1)
    d1b8:	2c 83       	decd	r12		
    d1ba:	1c 91 26 00 	cmp	38(r1),	r12	;0x0026(r1)
    d1be:	0e 2c       	jc	$+30     	;abs 0xd1dc
    d1c0:	e1 d3 01 00 	bis.b	#2,	1(r1)	;r3 As==10, 0x0001(r1)
    d1c4:	5e 41 26 00 	mov.b	38(r1),	r14	;0x0026(r1)
    d1c8:	4e 8c       	sub.b	r12,	r14	
    d1ca:	c1 4e 03 00 	mov.b	r14,	3(r1)	;0x0003(r1)
    d1ce:	06 3c       	jmp	$+14     	;abs 0xd1dc
    d1d0:	c1 93 2a 00 	tst.b	42(r1)		;0x002a(r1)
    d1d4:	03 24       	jz	$+8      	;abs 0xd1dc
    d1d6:	91 41 26 00 	mov	38(r1),	48(r1)	;0x0026(r1), 0x0030(r1)
    d1da:	30 00 
    d1dc:	11 12 04 00 	push	4(r1)		;0x0004(r1)
    d1e0:	11 12 04 00 	push	4(r1)		;0x0004(r1)
    d1e4:	1d 41 34 00 	mov	52(r1),	r13	;0x0034(r1)
    d1e8:	0e 46       	mov	r6,	r14	
    d1ea:	1e 53       	inc	r14		
    d1ec:	1f 41 3e 00 	mov	62(r1),	r15	;0x003e(r1)
    d1f0:	b0 12 28 ca 	call	#0xca28	
    d1f4:	21 52       	add	#4,	r1	;r2 As==10
    d1f6:	81 5f 2c 00 	add	r15,	44(r1)	;0x002c(r1)
    d1fa:	0d 3c       	jmp	$+28     	;abs 0xd216
    d1fc:	7f 49       	mov.b	@r9+,	r15	
    d1fe:	8f 11       	sxt	r15		
    d200:	91 12 3c 00 	call	60(r1)		;0x003c(r1)
    d204:	0e 49       	mov	r9,	r14	
    d206:	0e 58       	add	r8,	r14	
    d208:	19 91 40 00 	cmp	64(r1),	r9	;0x0040(r1)
    d20c:	f7 2b       	jnc	$-16     	;abs 0xd1fc
    d20e:	81 49 3e 00 	mov	r9,	62(r1)	;0x003e(r1)
    d212:	81 4e 2c 00 	mov	r14,	44(r1)	;0x002c(r1)
    d216:	07 43       	clr	r7		
    d218:	0e 3c       	jmp	$+30     	;abs 0xd236
    d21a:	91 41 26 00 	mov	38(r1),	48(r1)	;0x0026(r1), 0x0030(r1)
    d21e:	30 00 
    d220:	d1 43 2e 00 	mov.b	#1,	46(r1)	;r3 As==01, 0x002e(r1)
    d224:	c1 43 2a 00 	mov.b	#0,	42(r1)	;r3 As==00, 0x002a(r1)
    d228:	03 3c       	jmp	$+8      	;abs 0xd230
    d22a:	05 4e       	mov	r14,	r5	
    d22c:	d1 43 2a 00 	mov.b	#1,	42(r1)	;r3 As==01, 0x002a(r1)
    d230:	81 43 26 00 	mov	#0,	38(r1)	;r3 As==00, 0x0026(r1)
    d234:	17 43       	mov	#1,	r7	;r3 As==01
    d236:	16 41 40 00 	mov	64(r1),	r6	;0x0040(r1)
    d23a:	6e 46       	mov.b	@r6,	r14	
    d23c:	4e 93       	tst.b	r14		
    d23e:	02 24       	jz	$+6      	;abs 0xd244
    d240:	30 40 0c cc 	br	#0xcc0c	
    d244:	1f 41 2c 00 	mov	44(r1),	r15	;0x002c(r1)
    d248:	31 50 4a 00 	add	#74,	r1	;#0x004a
    d24c:	34 41       	pop	r4		
    d24e:	35 41       	pop	r5		
    d250:	36 41       	pop	r6		
    d252:	37 41       	pop	r7		
    d254:	38 41       	pop	r8		
    d256:	39 41       	pop	r9		
    d258:	3a 41       	pop	r10		
    d25a:	3b 41       	pop	r11		
    d25c:	30 41       	ret			

0000d25e <__udivsi3>:
    d25e:	0b 12       	push	r11		
    d260:	0a 12       	push	r10		
    d262:	09 12       	push	r9		
    d264:	79 40 20 00 	mov.b	#32,	r9	;#0x0020
    d268:	0a 4c       	mov	r12,	r10	
    d26a:	0b 4d       	mov	r13,	r11	
    d26c:	0c 43       	clr	r12		
    d26e:	0d 43       	clr	r13		
    d270:	0e 5e       	rla	r14		
    d272:	0f 6f       	rlc	r15		
    d274:	0c 6c       	rlc	r12		
    d276:	0d 6d       	rlc	r13		
    d278:	0d 9b       	cmp	r11,	r13	
    d27a:	06 28       	jnc	$+14     	;abs 0xd288
    d27c:	02 20       	jnz	$+6      	;abs 0xd282
    d27e:	0c 9a       	cmp	r10,	r12	
    d280:	03 28       	jnc	$+8      	;abs 0xd288
    d282:	0c 8a       	sub	r10,	r12	
    d284:	0d 7b       	subc	r11,	r13	
    d286:	1e d3       	bis	#1,	r14	;r3 As==01
    d288:	19 83       	dec	r9		
    d28a:	f2 23       	jnz	$-26     	;abs 0xd270
    d28c:	39 41       	pop	r9		
    d28e:	3a 41       	pop	r10		
    d290:	3b 41       	pop	r11		
    d292:	30 41       	ret			

0000d294 <__umodsi3>:
    d294:	b0 12 5e d2 	call	#0xd25e	
    d298:	0e 4c       	mov	r12,	r14	
    d29a:	0f 4d       	mov	r13,	r15	
    d29c:	30 41       	ret			

0000d29e <__xabi_udivmod64>:
    d29e:	07 12       	push	r7		
    d2a0:	06 12       	push	r6		
    d2a2:	05 12       	push	r5		
    d2a4:	04 12       	push	r4		
    d2a6:	30 12 40 00 	push	#64		;#0x0040
    d2aa:	04 48       	mov	r8,	r4	
    d2ac:	05 49       	mov	r9,	r5	
    d2ae:	06 4a       	mov	r10,	r6	
    d2b0:	07 4b       	mov	r11,	r7	
    d2b2:	08 43       	clr	r8		
    d2b4:	09 43       	clr	r9		
    d2b6:	0a 43       	clr	r10		
    d2b8:	0b 43       	clr	r11		
    d2ba:	0c 5c       	rla	r12		
    d2bc:	0d 6d       	rlc	r13		
    d2be:	0e 6e       	rlc	r14		
    d2c0:	0f 6f       	rlc	r15		
    d2c2:	08 68       	rlc	r8		
    d2c4:	09 69       	rlc	r9		
    d2c6:	0a 6a       	rlc	r10		
    d2c8:	0b 6b       	rlc	r11		
    d2ca:	0b 97       	cmp	r7,	r11	
    d2cc:	0e 28       	jnc	$+30     	;abs 0xd2ea
    d2ce:	08 20       	jnz	$+18     	;abs 0xd2e0
    d2d0:	0a 96       	cmp	r6,	r10	
    d2d2:	0b 28       	jnc	$+24     	;abs 0xd2ea
    d2d4:	05 20       	jnz	$+12     	;abs 0xd2e0
    d2d6:	09 95       	cmp	r5,	r9	
    d2d8:	08 28       	jnc	$+18     	;abs 0xd2ea
    d2da:	02 20       	jnz	$+6      	;abs 0xd2e0
    d2dc:	08 94       	cmp	r4,	r8	
    d2de:	05 28       	jnc	$+12     	;abs 0xd2ea
    d2e0:	08 84       	sub	r4,	r8	
    d2e2:	09 75       	subc	r5,	r9	
    d2e4:	0a 76       	subc	r6,	r10	
    d2e6:	0b 77       	subc	r7,	r11	
    d2e8:	1c d3       	bis	#1,	r12	;r3 As==01
    d2ea:	91 83 00 00 	dec	0(r1)		;0x0000(r1)
    d2ee:	e5 23       	jnz	$-52     	;abs 0xd2ba
    d2f0:	21 53       	incd	r1		
    d2f2:	34 41       	pop	r4		
    d2f4:	35 41       	pop	r5		
    d2f6:	36 41       	pop	r6		
    d2f8:	37 41       	pop	r7		
    d2fa:	30 41       	ret			

0000d2fc <__udivdi3>:
    d2fc:	0b 12       	push	r11		
    d2fe:	0a 12       	push	r10		
    d300:	09 12       	push	r9		
    d302:	08 12       	push	r8		
    d304:	18 41 0a 00 	mov	10(r1),	r8	;0x000a(r1)
    d308:	19 41 0c 00 	mov	12(r1),	r9	;0x000c(r1)
    d30c:	1a 41 0e 00 	mov	14(r1),	r10	;0x000e(r1)
    d310:	1b 41 10 00 	mov	16(r1),	r11	;0x0010(r1)
    d314:	b0 12 9e d2 	call	#0xd29e	
    d318:	38 41       	pop	r8		
    d31a:	39 41       	pop	r9		
    d31c:	3a 41       	pop	r10		
    d31e:	3b 41       	pop	r11		
    d320:	30 41       	ret			

0000d322 <__umoddi3>:
    d322:	0b 12       	push	r11		
    d324:	0a 12       	push	r10		
    d326:	09 12       	push	r9		
    d328:	08 12       	push	r8		
    d32a:	18 41 0a 00 	mov	10(r1),	r8	;0x000a(r1)
    d32e:	19 41 0c 00 	mov	12(r1),	r9	;0x000c(r1)
    d332:	1a 41 0e 00 	mov	14(r1),	r10	;0x000e(r1)
    d336:	1b 41 10 00 	mov	16(r1),	r11	;0x0010(r1)
    d33a:	b0 12 9e d2 	call	#0xd29e	
    d33e:	0c 48       	mov	r8,	r12	
    d340:	0d 49       	mov	r9,	r13	
    d342:	0e 4a       	mov	r10,	r14	
    d344:	0f 4b       	mov	r11,	r15	
    d346:	38 41       	pop	r8		
    d348:	39 41       	pop	r9		
    d34a:	3a 41       	pop	r10		
    d34c:	3b 41       	pop	r11		
    d34e:	30 41       	ret			

0000d350 <__udivmoddi4>:
    d350:	0b 12       	push	r11		
    d352:	0a 12       	push	r10		
    d354:	09 12       	push	r9		
    d356:	08 12       	push	r8		
    d358:	07 12       	push	r7		
    d35a:	18 41 0c 00 	mov	12(r1),	r8	;0x000c(r1)
    d35e:	19 41 0e 00 	mov	14(r1),	r9	;0x000e(r1)
    d362:	1a 41 10 00 	mov	16(r1),	r10	;0x0010(r1)
    d366:	1b 41 12 00 	mov	18(r1),	r11	;0x0012(r1)
    d36a:	b0 12 9e d2 	call	#0xd29e	
    d36e:	17 41 14 00 	mov	20(r1),	r7	;0x0014(r1)
    d372:	87 48 00 00 	mov	r8,	0(r7)	;0x0000(r7)
    d376:	87 49 02 00 	mov	r9,	2(r7)	;0x0002(r7)
    d37a:	87 4a 04 00 	mov	r10,	4(r7)	;0x0004(r7)
    d37e:	87 4b 06 00 	mov	r11,	6(r7)	;0x0006(r7)
    d382:	37 41       	pop	r7		
    d384:	38 41       	pop	r8		
    d386:	39 41       	pop	r9		
    d388:	3a 41       	pop	r10		
    d38a:	3b 41       	pop	r11		
    d38c:	30 41       	ret			

0000d38e <_unexpected_>:
    d38e:	00 13       	reti			

Disassembly of section .rodata:

0000d390 <__data_start+0xd190>:
    d390:	2e c2       	bic	#4,	r14	;r2 As==10
    d392:	3c c2       	bic	#8,	r12	;r2 As==11
    d394:	4a c2       	bic.b	r2,	r10	
    d396:	58 c2 68 c2 	bic.b	&0xc268,r8	
    d39a:	6b 69       	addc.b	@r9,	r11	
    d39c:	74 63       	addc.b	#-1,	r4	;r3 As==11
    d39e:	68 65       	addc.b	@r5,	r8	
    d3a0:	6e 20       	jnz	$+222    	;abs 0xd47e
    d3a2:	63 6c       	.word	0x6c63;	????	Illegal as 2-op instr
    d3a4:	6f 63       	addc.b	#2,	r15	;r3 As==10
    d3a6:	6b 00       	.word	0x006b;	????	
    d3a8:	00 25       	jz	$+514    	;abs 0xd5aa
    d3aa:	64 00       	.word	0x0064;	????	
    d3ac:	28 6e       	addc	@r14,	r8	
    d3ae:	75 6c       	addc.b	@r12+,	r5	
    d3b0:	6c 29       	jnc	$+730    	;abs 0xd68a
	...

Disassembly of section .bss:

00000200 <__bss_start>:
	...

00000202 <available_>:
	...

00000204 <bot_str>:
	...

00000214 <c_mode>:
	...

00000216 <top_str>:
	...

00000226 <init_flag>:
	...

00000228 <rec_oper>:
	...

0000022a <ht_data>:
	...

00000234 <bit_count>:
	...

Disassembly of section .noinit:

00000236 <__wdt_clear_value>:
	...

Disassembly of section .vectors:

0000ffe0 <__ivtbl_16>:
    ffe0:	e2 c0 e2 c0 	bic.b	@r0,	&0xc0e2	
    ffe4:	e2 c0 c2 c1 	bic.b	@r0,	&0xc1c2	
    ffe8:	e2 c0 e2 c0 	bic.b	@r0,	&0xc0e2	
    ffec:	e2 c0 e2 c0 	bic.b	@r0,	&0xc0e2	
    fff0:	e2 c0 e2 c0 	bic.b	@r0,	&0xc0e2	
    fff4:	e2 c0 e2 c0 	bic.b	@r0,	&0xc0e2	
    fff8:	e2 c0 e2 c0 	bic.b	@r0,	&0xc0e2	
    fffc:	e2 c0 00 c0 	bic.b	@r0,	&0xc000	

Disassembly of section .debug_aranges:

00000000 <.debug_aranges>:
   0:	10 00       	.word	0x0010;	????	
   2:	00 00       	.word	0x0000;	????	
   4:	02 00       	.word	0x0002;	????	
   6:	00 00       	.word	0x0000;	????	
   8:	00 00       	.word	0x0000;	????	
   a:	02 00       	.word	0x0002;	????	
   c:	4a c9       	bic.b	r9,	r10	
   e:	22 00       	.word	0x0022;	????	
  10:	00 00       	.word	0x0000;	????	
  12:	00 00       	.word	0x0000;	????	
  14:	10 00       	.word	0x0010;	????	
  16:	00 00       	.word	0x0000;	????	
  18:	02 00       	.word	0x0002;	????	
  1a:	ce 00       	.word	0x00ce;	????	
  1c:	00 00       	.word	0x0000;	????	
  1e:	02 00       	.word	0x0002;	????	
  20:	6c c9       	bic.b	@r9,	r12	
  22:	bc 00       	.word	0x00bc;	????	
  24:	00 00       	.word	0x0000;	????	
  26:	00 00       	.word	0x0000;	????	
  28:	10 00       	.word	0x0010;	????	
  2a:	00 00       	.word	0x0000;	????	
  2c:	02 00       	.word	0x0002;	????	
  2e:	45 03       	.word	0x0345;	????	
  30:	00 00       	.word	0x0000;	????	
  32:	02 00       	.word	0x0002;	????	
  34:	28 ca       	bic	@r10,	r8	
  36:	36 08       	.word	0x0836;	????	
  38:	00 00       	.word	0x0000;	????	
  3a:	00 00       	.word	0x0000;	????	
  3c:	10 00       	.word	0x0010;	????	
  3e:	00 00       	.word	0x0000;	????	
  40:	02 00       	.word	0x0002;	????	
  42:	aa 08       	.word	0x08aa;	????	
  44:	00 00       	.word	0x0000;	????	
  46:	02 00       	.word	0x0002;	????	
  48:	5e d2 40 00 	bis.b	&0x0040,r14	
  4c:	00 00       	.word	0x0000;	????	
  4e:	00 00       	.word	0x0000;	????	
  50:	10 00       	.word	0x0010;	????	
  52:	00 00       	.word	0x0000;	????	
  54:	02 00       	.word	0x0002;	????	
  56:	78 09       	.word	0x0978;	????	
  58:	00 00       	.word	0x0000;	????	
  5a:	02 00       	.word	0x0002;	????	
  5c:	9e d2 f0 00 	bis	&0x00f0,0(r14)	;0x0000(r14)
  60:	00 00 
  62:	00 00       	.word	0x0000;	????	
  64:	10 00       	.word	0x0010;	????	
  66:	00 00       	.word	0x0000;	????	
  68:	02 00       	.word	0x0002;	????	
  6a:	46 0a       	.word	0x0a46;	????	
  6c:	00 00       	.word	0x0000;	????	
  6e:	02 00       	.word	0x0002;	????	
  70:	00 c0       	bic	r0,	r0	
  72:	0c 00       	.word	0x000c;	????	
  74:	00 00       	.word	0x0000;	????	
  76:	00 00       	.word	0x0000;	????	
  78:	10 00       	.word	0x0010;	????	
  7a:	00 00       	.word	0x0000;	????	
  7c:	02 00       	.word	0x0002;	????	
  7e:	fe 0a       	.word	0x0afe;	????	
  80:	00 00       	.word	0x0000;	????	
  82:	02 00       	.word	0x0002;	????	
  84:	0c c0       	bic	r0,	r12	
  86:	04 00       	.word	0x0004;	????	
  88:	00 00       	.word	0x0000;	????	
  8a:	00 00       	.word	0x0000;	????	
  8c:	10 00       	.word	0x0010;	????	
  8e:	00 00       	.word	0x0000;	????	
  90:	02 00       	.word	0x0002;	????	
  92:	b6 0b       	.word	0x0bb6;	????	
  94:	00 00       	.word	0x0000;	????	
  96:	02 00       	.word	0x0002;	????	
  98:	10 c0 18 00 	bic	24(r0),	r0	;PC rel. 0x00b2
  9c:	00 00       	.word	0x0000;	????	
  9e:	00 00       	.word	0x0000;	????	
  a0:	10 00       	.word	0x0010;	????	
  a2:	00 00       	.word	0x0000;	????	
  a4:	02 00       	.word	0x0002;	????	
  a6:	6e 0c       	.word	0x0c6e;	????	
  a8:	00 00       	.word	0x0000;	????	
  aa:	02 00       	.word	0x0002;	????	
  ac:	28 c0       	bic	@r0,	r8	
  ae:	16 00       	.word	0x0016;	????	
  b0:	00 00       	.word	0x0000;	????	
  b2:	00 00       	.word	0x0000;	????	
  b4:	10 00       	.word	0x0010;	????	
  b6:	00 00       	.word	0x0000;	????	
  b8:	02 00       	.word	0x0002;	????	
  ba:	26 0d       	.word	0x0d26;	????	
  bc:	00 00       	.word	0x0000;	????	
  be:	02 00       	.word	0x0002;	????	
  c0:	dc c0 06 00 	bic.b	6(r0),	0(r12)	;PC rel. 0x00c8, 0x0000(r12)
  c4:	00 00 
  c6:	00 00       	.word	0x0000;	????	
  c8:	10 00       	.word	0x0010;	????	
  ca:	00 00       	.word	0x0000;	????	
  cc:	02 00       	.word	0x0002;	????	
  ce:	de 0d       	.word	0x0dde;	????	
  d0:	00 00       	.word	0x0000;	????	
  d2:	02 00       	.word	0x0002;	????	
  d4:	8e d3 02 00 	bis	#0,	2(r14)	;r3 As==00, 0x0002(r14)
  d8:	00 00       	.word	0x0000;	????	
	...

Disassembly of section .debug_info:

00000000 <.debug_info>:
   0:	ca 00       	.word	0x00ca;	????	
   2:	00 00       	.word	0x0000;	????	
   4:	02 00       	.word	0x0002;	????	
   6:	00 00       	.word	0x0000;	????	
   8:	00 00       	.word	0x0000;	????	
   a:	02 01       	.word	0x0102;	????	
   c:	00 00       	.word	0x0000;	????	
   e:	00 00       	.word	0x0000;	????	
  10:	4a c9       	bic.b	r9,	r10	
  12:	6c c9       	bic.b	@r9,	r12	
  14:	2f 62       	addc	#4,	r15	;r2 As==10
  16:	75 69       	addc.b	@r9+,	r5	
  18:	6c 64       	addc.b	@r4,	r12	
  1a:	2f 62       	addc	#4,	r15	;r2 As==10
  1c:	75 69       	addc.b	@r9+,	r5	
  1e:	6c 64       	addc.b	@r4,	r12	
  20:	64 2f       	jc	$-310    	;abs 0xfeea
  22:	67 63       	addc.b	#2,	r7	;r3 As==10
  24:	63 2d       	jc	$+712    	;abs 0x2ec
  26:	6d 73       	subc.b	#2,	r13	;r3 As==10
  28:	70 34       	jge	$+226    	;abs 0x10a
  2a:	33 30       	jn	$+104    	;abs 0x92
  2c:	2d 34       	jge	$+92     	;abs 0x88
  2e:	2e 36       	jge	$-930    	;abs 0xfc8c
  30:	2e 33       	jn	$-418    	;abs 0xfe8e
  32:	7e 6d       	addc.b	@r13+,	r14	
  34:	73 70       	.word	0x7073;	????	Illegal as 2-op instr
  36:	67 63       	addc.b	#2,	r7	;r3 As==10
  38:	63 2d       	jc	$+712    	;abs 0x300
  3a:	32 30       	jn	$+102    	;abs 0xa0
  3c:	31 32       	jn	$-924    	;abs 0xfca0
  3e:	30 34       	jge	$+98     	;abs 0xa0
  40:	30 36       	jge	$-926    	;abs 0xfca2
  42:	2f 2e       	jc	$-928    	;abs 0xfca2
  44:	2f 67       	addc	@r7,	r15	
  46:	63 63       	.word	0x6363;	????	Illegal as 2-op instr
  48:	2d 34       	jge	$+92     	;abs 0xa4
  4a:	2e 36       	jge	$-930    	;abs 0xfca8
  4c:	2e 33       	jn	$-418    	;abs 0xfeaa
  4e:	2f 6c       	addc	@r12,	r15	
  50:	69 62       	addc.b	#4,	r9	;r2 As==10
  52:	67 63       	addc.b	#2,	r7	;r3 As==10
  54:	63 2f       	jc	$-312    	;abs 0xff1c
  56:	2e 2e       	jc	$-930    	;abs 0xfcb4
  58:	2f 67       	addc	@r7,	r15	
  5a:	63 63       	.word	0x6363;	????	Illegal as 2-op instr
  5c:	2f 63       	addc	#2,	r15	;r3 As==10
  5e:	6f 6e       	addc.b	@r14,	r15	
  60:	66 69       	addc.b	@r9,	r6	
  62:	67 2f       	jc	$-304    	;abs 0xff32
  64:	6d 73       	subc.b	#2,	r13	;r3 As==10
  66:	70 34       	jge	$+226    	;abs 0x148
  68:	33 30       	jn	$+104    	;abs 0xd0
  6a:	2f 6c       	addc	@r12,	r15	
  6c:	69 62       	addc.b	#4,	r9	;r2 As==10
  6e:	67 63       	addc.b	#2,	r7	;r3 As==10
  70:	63 2e       	jc	$-824    	;abs 0xfd38
  72:	53 00       	.word	0x0053;	????	
  74:	2f 62       	addc	#4,	r15	;r2 As==10
  76:	75 69       	addc.b	@r9+,	r5	
  78:	6c 64       	addc.b	@r4,	r12	
  7a:	2f 62       	addc	#4,	r15	;r2 As==10
  7c:	75 69       	addc.b	@r9+,	r5	
  7e:	6c 64       	addc.b	@r4,	r12	
  80:	64 2f       	jc	$-310    	;abs 0xff4a
  82:	67 63       	addc.b	#2,	r7	;r3 As==10
  84:	63 2d       	jc	$+712    	;abs 0x34c
  86:	6d 73       	subc.b	#2,	r13	;r3 As==10
  88:	70 34       	jge	$+226    	;abs 0x16a
  8a:	33 30       	jn	$+104    	;abs 0xf2
  8c:	2d 34       	jge	$+92     	;abs 0xe8
  8e:	2e 36       	jge	$-930    	;abs 0xfcec
  90:	2e 33       	jn	$-418    	;abs 0xfeee
  92:	7e 6d       	addc.b	@r13+,	r14	
  94:	73 70       	.word	0x7073;	????	Illegal as 2-op instr
  96:	67 63       	addc.b	#2,	r7	;r3 As==10
  98:	63 2d       	jc	$+712    	;abs 0x360
  9a:	32 30       	jn	$+102    	;abs 0x100
  9c:	31 32       	jn	$-924    	;abs 0xfd00
  9e:	30 34       	jge	$+98     	;abs 0x100
  a0:	30 36       	jge	$-926    	;abs 0xfd02
  a2:	2f 62       	addc	#4,	r15	;r2 As==10
  a4:	75 69       	addc.b	@r9+,	r5	
  a6:	6c 64       	addc.b	@r4,	r12	
  a8:	2d 72       	subc	#4,	r13	;r2 As==10
  aa:	65 73       	subc.b	#2,	r5	;r3 As==10
  ac:	75 6c       	addc.b	@r12+,	r5	
  ae:	74 2f       	jc	$-278    	;abs 0xff98
  b0:	6d 73       	subc.b	#2,	r13	;r3 As==10
  b2:	70 34       	jge	$+226    	;abs 0x194
  b4:	33 30       	jn	$+104    	;abs 0x11c
  b6:	2f 6c       	addc	@r12,	r15	
  b8:	69 62       	addc.b	#4,	r9	;r2 As==10
  ba:	67 63       	addc.b	#2,	r7	;r3 As==10
  bc:	63 00       	.word	0x0063;	????	
  be:	47 4e       	mov.b	r14,	r7	
  c0:	55 20       	jnz	$+172    	;abs 0x16c
  c2:	41 53       	add.b	#0,	r1	;r3 As==00
  c4:	20 32       	jn	$-958    	;abs 0xfd06
  c6:	2e 32       	jn	$-930    	;abs 0xfd24
  c8:	31 2e       	jc	$-924    	;abs 0xfd2c
  ca:	31 00       	.word	0x0031;	????	
  cc:	01 80       	sub	r0,	r1	
  ce:	73 02       	.word	0x0273;	????	
  d0:	00 00       	.word	0x0000;	????	
  d2:	02 00       	.word	0x0002;	????	
  d4:	14 00       	.word	0x0014;	????	
  d6:	00 00       	.word	0x0000;	????	
  d8:	02 01       	.word	0x0102;	????	
  da:	e5 00       	.word	0x00e5;	????	
  dc:	00 00       	.word	0x0000;	????	
  de:	01 d2       	bis	r2,	r1	
  e0:	00 00       	.word	0x0000;	????	
  e2:	00 3e       	jmp	$-1022   	;abs 0xfce4
  e4:	00 00       	.word	0x0000;	????	
  e6:	00 6c       	addc	r12,	r0	
  e8:	c9 28       	jnc	$+404    	;abs 0x27c
  ea:	ca 9c 00 00 	cmp.b	r12,	0(r10)	;0x0000(r10)
  ee:	00 02       	.word	0x0200;	????	
  f0:	04 05       	.word	0x0504;	????	
  f2:	c9 00       	.word	0x00c9;	????	
  f4:	00 00       	.word	0x0000;	????	
  f6:	03 00       	.word	0x0003;	????	
  f8:	00 00       	.word	0x0000;	????	
  fa:	00 02       	.word	0x0200;	????	
  fc:	d4 33       	jn	$-86     	;abs 0xa6
  fe:	00 00       	.word	0x0000;	????	
 100:	00 02       	.word	0x0200;	????	
 102:	02 07       	.word	0x0702;	????	
 104:	9f 00       	.word	0x009f;	????	
 106:	00 00       	.word	0x0000;	????	
 108:	04 02       	.word	0x0204;	????	
 10a:	05 69       	addc	r9,	r5	
 10c:	6e 74       	subc.b	@r4,	r14	
 10e:	00 02       	.word	0x0200;	????	
 110:	01 06       	.word	0x0601;	????	
 112:	67 00       	.word	0x0067;	????	
 114:	00 00       	.word	0x0000;	????	
 116:	02 08       	.word	0x0802;	????	
 118:	05 c4       	bic	r4,	r5	
 11a:	00 00       	.word	0x0000;	????	
 11c:	00 02       	.word	0x0200;	????	
 11e:	01 08       	.word	0x0801;	????	
 120:	65 00       	.word	0x0065;	????	
 122:	00 00       	.word	0x0000;	????	
 124:	02 04       	.word	0x0402;	????	
 126:	07 9a       	cmp	r10,	r7	
 128:	00 00       	.word	0x0000;	????	
 12a:	00 02       	.word	0x0200;	????	
 12c:	08 07       	.word	0x0708;	????	
 12e:	95 00       	.word	0x0095;	????	
 130:	00 00       	.word	0x0000;	????	
 132:	02 02       	.word	0x0202;	????	
 134:	07 73       	sbc	r7		
 136:	00 00       	.word	0x0000;	????	
 138:	00 05       	.word	0x0500;	????	
 13a:	02 71       	subc	r1,	r2	
 13c:	00 00       	.word	0x0000;	????	
 13e:	00 02       	.word	0x0200;	????	
 140:	01 06       	.word	0x0601;	????	
 142:	6e 00       	.word	0x006e;	????	
 144:	00 00       	.word	0x0000;	????	
 146:	05 02       	.word	0x0205;	????	
 148:	7e 00       	.word	0x007e;	????	
 14a:	00 00       	.word	0x0000;	????	
 14c:	06 71       	subc	r1,	r6	
 14e:	00 00       	.word	0x0000;	????	
 150:	00 03       	.word	0x0300;	????	
 152:	2f 00       	.word	0x002f;	????	
 154:	00 00       	.word	0x0000;	????	
 156:	03 28       	jnc	$+8      	;abs 0x15e
 158:	8e 00       	.word	0x008e;	????	
 15a:	00 00       	.word	0x0000;	????	
 15c:	07 02       	.word	0x0207;	????	
 15e:	07 00       	.word	0x0007;	????	
 160:	00 00       	.word	0x0000;	????	
 162:	03 36       	jge	$-1016   	;abs 0xfd6a
 164:	00 00       	.word	0x0000;	????	
 166:	00 03       	.word	0x0300;	????	
 168:	66 83       	decd.b	r6		
 16a:	00 00       	.word	0x0000;	????	
 16c:	00 08       	.word	0x0800;	????	
 16e:	1a 01       	.word	0x011a;	????	
 170:	00 00       	.word	0x0000;	????	
 172:	01 2e       	jc	$-1020   	;abs 0xfd76
 174:	01 3a       	jl	$-1020   	;abs 0xfd78
 176:	00 00       	.word	0x0000;	????	
 178:	00 6c       	addc	r12,	r0	
 17a:	c9 8e c9 02 	sub.b	r14,	713(r9)	;0x02c9(r9)
 17e:	71 02       	.word	0x0271;	????	
 180:	c4 00       	.word	0x00c4;	????	
 182:	00 00       	.word	0x0000;	????	
 184:	09 63       	adc	r9		
 186:	00 01       	.word	0x0100;	????	
 188:	2e 3a       	jl	$-930    	;abs 0xfde6
	...
 192:	0a 21       	jnz	$+534    	;abs 0x3a8
 194:	01 00       	.word	0x0001;	????	
 196:	00 01       	.word	0x0100;	????	
 198:	38 01       	.word	0x0138;	????	
 19a:	3a 00       	.word	0x003a;	????	
 19c:	00 00       	.word	0x0000;	????	
 19e:	8e c9 ca c9 	bic	r9,	-13878(r14);0xc9ca(r14)
 1a2:	0b 00       	.word	0x000b;	????	
 1a4:	00 00       	.word	0x0000;	????	
 1a6:	25 01       	.word	0x0125;	????	
 1a8:	00 00       	.word	0x0000;	????	
 1aa:	09 66       	addc	r6,	r9	
 1ac:	6d 74       	subc.b	@r4,	r13	
 1ae:	00 01       	.word	0x0100;	????	
 1b0:	38 78       	subc	@r8+,	r8	
 1b2:	00 00       	.word	0x0000;	????	
 1b4:	00 2f       	jc	$-510    	;abs 0xffb6
 1b6:	00 00       	.word	0x0000;	????	
 1b8:	00 0b       	.word	0x0b00;	????	
 1ba:	90 00       	.word	0x0090;	????	
 1bc:	00 00       	.word	0x0000;	????	
 1be:	01 38       	jl	$+4      	;abs 0x1c2
 1c0:	94 00       	.word	0x0094;	????	
 1c2:	00 00       	.word	0x0000;	????	
 1c4:	41 00       	.word	0x0041;	????	
 1c6:	00 00       	.word	0x0000;	????	
 1c8:	0c 23       	jnz	$-486    	;abs 0xffe2
 1ca:	00 00       	.word	0x0000;	????	
 1cc:	00 01       	.word	0x0100;	????	
 1ce:	3a 6b       	addc	@r11+,	r10	
 1d0:	00 00       	.word	0x0000;	????	
 1d2:	00 54       	add	r4,	r0	
 1d4:	00 00       	.word	0x0000;	????	
 1d6:	00 0c       	.word	0x0c00;	????	
 1d8:	86 00       	.word	0x0086;	????	
 1da:	00 00       	.word	0x0000;	????	
 1dc:	01 3b       	jl	$-508    	;abs 0xffe0
 1de:	3a 00       	.word	0x003a;	????	
 1e0:	00 00       	.word	0x0000;	????	
 1e2:	68 00       	.word	0x0068;	????	
 1e4:	00 00       	.word	0x0000;	????	
 1e6:	0d 72       	subc	r2,	r13	
 1e8:	63 00       	.word	0x0063;	????	
 1ea:	01 3c       	jmp	$+4      	;abs 0x1ee
 1ec:	3a 00       	.word	0x003a;	????	
 1ee:	00 00       	.word	0x0000;	????	
 1f0:	01 5f       	add	r15,	r1	
 1f2:	00 0e       	.word	0x0e00;	????	
 1f4:	01 35       	jge	$+516    	;abs 0x3f8
 1f6:	01 00       	.word	0x0001;	????	
 1f8:	00 01       	.word	0x0100;	????	
 1fa:	48 01       	.word	0x0148;	????	
 1fc:	3a 00       	.word	0x003a;	????	
 1fe:	00 00       	.word	0x0000;	????	
 200:	ca c9 e6 c9 	bic.b	r9,	-13850(r10);0xc9e6(r10)
 204:	02 71       	subc	r1,	r2	
 206:	02 6a       	addc	r10,	r2	
 208:	01 00       	.word	0x0001;	????	
 20a:	00 0f       	.word	0x0f00;	????	
 20c:	62 75       	subc.b	@r5,	r2	
 20e:	66 00       	.word	0x0066;	????	
 210:	01 48       	mov	r8,	r1	
 212:	6b 00       	.word	0x006b;	????	
 214:	00 00       	.word	0x0000;	????	
 216:	02 91       	cmp	r1,	r2	
 218:	00 0f       	.word	0x0f00;	????	
 21a:	66 6d       	addc.b	@r13,	r6	
 21c:	74 00       	.word	0x0074;	????	
 21e:	01 48       	mov	r8,	r1	
 220:	78 00       	.word	0x0078;	????	
 222:	00 00       	.word	0x0000;	????	
 224:	02 91       	cmp	r1,	r2	
 226:	02 10       	rrc	r2		
 228:	11 90 00 00 	cmp	0(r0),	r1	;PC rel. 0x022a
 22c:	00 01       	.word	0x0100;	????	
 22e:	4a 94       	cmp.b	r4,	r10	
 230:	00 00       	.word	0x0000;	????	
 232:	00 03       	.word	0x0300;	????	
 234:	91 04       	.word	0x0491;	????	
 236:	9f 00       	.word	0x009f;	????	
 238:	0e 01       	.word	0x010e;	????	
 23a:	1a 00       	.word	0x001a;	????	
 23c:	00 00       	.word	0x0000;	????	
 23e:	01 53       	add	#0,	r1	;r3 As==00
 240:	01 3a       	jl	$-1020   	;abs 0xfe44
 242:	00 00       	.word	0x0000;	????	
 244:	00 e6       	xor	r6,	r0	
 246:	c9 00       	.word	0x00c9;	????	
 248:	ca 02       	.word	0x02ca;	????	
 24a:	71 02       	.word	0x0271;	????	
 24c:	bd 01       	.word	0x01bd;	????	
 24e:	00 00       	.word	0x0000;	????	
 250:	0f 62       	addc	r2,	r15	
 252:	75 66       	addc.b	@r6+,	r5	
 254:	00 01       	.word	0x0100;	????	
 256:	53 6b       	.word	0x6b53;	????	Illegal as 2-op instr
 258:	00 00       	.word	0x0000;	????	
 25a:	00 02       	.word	0x0200;	????	
 25c:	91 00       	.word	0x0091;	????	
 25e:	12 2f       	jc	$-474    	;abs 0x84
 260:	01 00       	.word	0x0001;	????	
 262:	00 01       	.word	0x0100;	????	
 264:	53 28       	jnc	$+168    	;abs 0x30c
 266:	00 00       	.word	0x0000;	????	
 268:	00 02       	.word	0x0200;	????	
 26a:	91 02       	.word	0x0291;	????	
 26c:	0f 66       	addc	r6,	r15	
 26e:	6d 74       	subc.b	@r4,	r13	
 270:	00 01       	.word	0x0100;	????	
 272:	53 78       	.word	0x7853;	????	Illegal as 2-op instr
 274:	00 00       	.word	0x0000;	????	
 276:	00 02       	.word	0x0200;	????	
 278:	91 04       	.word	0x0491;	????	
 27a:	10 11 90 00 	rra	144(r0)	;PC rel. 0x030c
 27e:	00 00       	.word	0x0000;	????	
 280:	01 55       	add	r5,	r1	
 282:	94 00       	.word	0x0094;	????	
 284:	00 00       	.word	0x0000;	????	
 286:	03 91       	.word	0x9103;	????	Illegal as 2-op instr
 288:	06 9f       	cmp	r15,	r6	
 28a:	00 0e       	.word	0x0e00;	????	
 28c:	01 34       	jge	$+4      	;abs 0x290
 28e:	01 00       	.word	0x0001;	????	
 290:	00 01       	.word	0x0100;	????	
 292:	5e 01       	.word	0x015e;	????	
 294:	3a 00       	.word	0x003a;	????	
 296:	00 00       	.word	0x0000;	????	
 298:	00 ca       	bic	r10,	r0	
 29a:	16 ca 02 71 	bic	28930(r10),r6	;0x7102(r10)
 29e:	02 03       	.word	0x0302;	????	
 2a0:	02 00       	.word	0x0002;	????	
 2a2:	00 09       	.word	0x0900;	????	
 2a4:	62 75       	subc.b	@r5,	r2	
 2a6:	66 00       	.word	0x0066;	????	
 2a8:	01 5e       	add	r14,	r1	
 2aa:	6b 00       	.word	0x006b;	????	
 2ac:	00 00       	.word	0x0000;	????	
 2ae:	7c 00       	.word	0x007c;	????	
 2b0:	00 00       	.word	0x0000;	????	
 2b2:	09 66       	addc	r6,	r9	
 2b4:	6d 74       	subc.b	@r4,	r13	
 2b6:	00 01       	.word	0x0100;	????	
 2b8:	5e 78 00 00 	subc.b	0(r8),	r14	;0x0000(r8)
 2bc:	00 90       	cmp	r0,	r0	
 2be:	00 00       	.word	0x0000;	????	
 2c0:	00 0b       	.word	0x0b00;	????	
 2c2:	90 00       	.word	0x0090;	????	
 2c4:	00 00       	.word	0x0000;	????	
 2c6:	01 5e       	add	r14,	r1	
 2c8:	94 00       	.word	0x0094;	????	
 2ca:	00 00       	.word	0x0000;	????	
 2cc:	a2 00       	.word	0x00a2;	????	
 2ce:	00 00       	.word	0x0000;	????	
 2d0:	00 0e       	.word	0x0e00;	????	
 2d2:	01 19       	.word	0x1901;	????	
 2d4:	00 00       	.word	0x0000;	????	
 2d6:	00 01       	.word	0x0100;	????	
 2d8:	66 01       	.word	0x0166;	????	
 2da:	3a 00       	.word	0x003a;	????	
 2dc:	00 00       	.word	0x0000;	????	
 2de:	16 ca 28 ca 	bic	-13784(r10),r6	;0xca28(r10)
 2e2:	02 71       	subc	r1,	r2	
 2e4:	02 58       	add	r8,	r2	
 2e6:	02 00       	.word	0x0002;	????	
 2e8:	00 09       	.word	0x0900;	????	
 2ea:	62 75       	subc.b	@r5,	r2	
 2ec:	66 00       	.word	0x0066;	????	
 2ee:	01 66       	addc	r6,	r1	
 2f0:	6b 00       	.word	0x006b;	????	
 2f2:	00 00       	.word	0x0000;	????	
 2f4:	ad 00       	.word	0x00ad;	????	
 2f6:	00 00       	.word	0x0000;	????	
 2f8:	0b 2f       	jc	$-488    	;abs 0x110
 2fa:	01 00       	.word	0x0001;	????	
 2fc:	00 01       	.word	0x0100;	????	
 2fe:	66 28       	jnc	$+206    	;abs 0x3cc
 300:	00 00       	.word	0x0000;	????	
 302:	00 c1       	bic	r1,	r0	
 304:	00 00       	.word	0x0000;	????	
 306:	00 09       	.word	0x0900;	????	
 308:	66 6d       	addc.b	@r13,	r6	
 30a:	74 00       	.word	0x0074;	????	
 30c:	01 66       	addc	r6,	r1	
 30e:	78 00       	.word	0x0078;	????	
 310:	00 00       	.word	0x0000;	????	
 312:	d5 00       	.word	0x00d5;	????	
 314:	00 00       	.word	0x0000;	????	
 316:	0b 90       	cmp	r0,	r11	
 318:	00 00       	.word	0x0000;	????	
 31a:	00 01       	.word	0x0100;	????	
 31c:	66 94       	cmp.b	@r4,	r6	
 31e:	00 00       	.word	0x0000;	????	
 320:	00 e0       	xor	r0,	r0	
 322:	00 00       	.word	0x0000;	????	
 324:	00 00       	.word	0x0000;	????	
 326:	11 ac 00 00 	dadd	0(r12),	r1	;0x0000(r12)
 32a:	00 01       	.word	0x0100;	????	
 32c:	28 3a       	jl	$-942    	;abs 0xff7e
 32e:	00 00       	.word	0x0000;	????	
 330:	00 03       	.word	0x0300;	????	
 332:	03 02       	.word	0x0203;	????	
 334:	02 11       	rra	r2		
 336:	b7 00       	.word	0x00b7;	????	
 338:	00 00       	.word	0x0000;	????	
 33a:	01 2b       	jnc	$-508    	;abs 0x13e
 33c:	6b 00       	.word	0x006b;	????	
 33e:	00 00       	.word	0x0000;	????	
 340:	03 03       	.word	0x0303;	????	
 342:	00 02       	.word	0x0200;	????	
 344:	00 61       	addc	r1,	r0	
 346:	05 00       	.word	0x0005;	????	
 348:	00 02       	.word	0x0200;	????	
 34a:	00 19       	.word	0x1900;	????	
 34c:	01 00       	.word	0x0001;	????	
 34e:	00 02       	.word	0x0200;	????	
 350:	01 e5       	xor	r5,	r1	
 352:	00 00       	.word	0x0000;	????	
 354:	00 01       	.word	0x0100;	????	
 356:	f3 02       	.word	0x02f3;	????	
 358:	00 00       	.word	0x0000;	????	
 35a:	3e 00       	.word	0x003e;	????	
 35c:	00 00       	.word	0x0000;	????	
 35e:	28 ca       	bic	@r10,	r8	
 360:	5e d2 38 01 	bis.b	&0x0138,r14	
 364:	00 00       	.word	0x0000;	????	
 366:	02 04       	.word	0x0402;	????	
 368:	05 c9       	bic	r9,	r5	
 36a:	00 00       	.word	0x0000;	????	
 36c:	00 02       	.word	0x0200;	????	
 36e:	02 07       	.word	0x0702;	????	
 370:	9f 00       	.word	0x009f;	????	
 372:	00 00       	.word	0x0000;	????	
 374:	03 02       	.word	0x0203;	????	
 376:	05 69       	addc	r9,	r5	
 378:	6e 74       	subc.b	@r4,	r14	
 37a:	00 02       	.word	0x0200;	????	
 37c:	01 06       	.word	0x0601;	????	
 37e:	67 00       	.word	0x0067;	????	
 380:	00 00       	.word	0x0000;	????	
 382:	04 67       	addc	r7,	r4	
 384:	02 00       	.word	0x0002;	????	
 386:	00 02       	.word	0x0200;	????	
 388:	27 2f       	jc	$-432    	;abs 0x1d8
 38a:	00 00       	.word	0x0000;	????	
 38c:	00 04       	.word	0x0400;	????	
 38e:	54 02       	.word	0x0254;	????	
 390:	00 00       	.word	0x0000;	????	
 392:	02 28       	jnc	$+6      	;abs 0x398
 394:	21 00       	.word	0x0021;	????	
 396:	00 00       	.word	0x0000;	????	
 398:	04 49       	mov	r9,	r4	
 39a:	01 00       	.word	0x0001;	????	
 39c:	00 02       	.word	0x0200;	????	
 39e:	29 5e       	add	@r14,	r9	
 3a0:	00 00       	.word	0x0000;	????	
 3a2:	00 02       	.word	0x0200;	????	
 3a4:	08 05       	.word	0x0508;	????	
 3a6:	c4 00       	.word	0x00c4;	????	
 3a8:	00 00       	.word	0x0000;	????	
 3aa:	04 89       	sub	r9,	r4	
 3ac:	01 00       	.word	0x0001;	????	
 3ae:	00 02       	.word	0x0200;	????	
 3b0:	2b 70       	subc	@r0,	r11	
 3b2:	00 00       	.word	0x0000;	????	
 3b4:	00 02       	.word	0x0200;	????	
 3b6:	01 08       	.word	0x0801;	????	
 3b8:	65 00       	.word	0x0065;	????	
 3ba:	00 00       	.word	0x0000;	????	
 3bc:	04 66       	addc	r6,	r4	
 3be:	02 00       	.word	0x0002;	????	
 3c0:	00 02       	.word	0x0200;	????	
 3c2:	2c 28       	jnc	$+90     	;abs 0x41c
 3c4:	00 00       	.word	0x0000;	????	
 3c6:	00 04       	.word	0x0400;	????	
 3c8:	53 02       	.word	0x0253;	????	
 3ca:	00 00       	.word	0x0000;	????	
 3cc:	02 2d       	jc	$+518    	;abs 0x5d2
 3ce:	8d 00       	.word	0x008d;	????	
 3d0:	00 00       	.word	0x0000;	????	
 3d2:	02 04       	.word	0x0402;	????	
 3d4:	07 9a       	cmp	r10,	r7	
 3d6:	00 00       	.word	0x0000;	????	
 3d8:	00 04       	.word	0x0400;	????	
 3da:	48 01       	.word	0x0148;	????	
 3dc:	00 00       	.word	0x0000;	????	
 3de:	02 2e       	jc	$-1018   	;abs 0xffe4
 3e0:	9f 00       	.word	0x009f;	????	
 3e2:	00 00       	.word	0x0000;	????	
 3e4:	02 08       	.word	0x0802;	????	
 3e6:	07 95       	cmp	r5,	r7	
 3e8:	00 00       	.word	0x0000;	????	
 3ea:	00 04       	.word	0x0400;	????	
 3ec:	51 01       	.word	0x0151;	????	
 3ee:	00 00       	.word	0x0000;	????	
 3f0:	02 56       	add	r6,	r2	
 3f2:	3d 00       	.word	0x003d;	????	
 3f4:	00 00       	.word	0x0000;	????	
 3f6:	02 02       	.word	0x0202;	????	
 3f8:	07 73       	sbc	r7		
 3fa:	00 00       	.word	0x0000;	????	
 3fc:	00 05       	.word	0x0500;	????	
 3fe:	02 be       	bit	r14,	r2	
 400:	00 00       	.word	0x0000;	????	
 402:	00 02       	.word	0x0200;	????	
 404:	01 06       	.word	0x0601;	????	
 406:	6e 00       	.word	0x006e;	????	
 408:	00 00       	.word	0x0000;	????	
 40a:	05 02       	.word	0x0205;	????	
 40c:	cb 00       	.word	0x00cb;	????	
 40e:	00 00       	.word	0x0000;	????	
 410:	06 be       	bit	r14,	r6	
 412:	00 00       	.word	0x0000;	????	
 414:	00 04       	.word	0x0400;	????	
 416:	2f 00       	.word	0x002f;	????	
 418:	00 00       	.word	0x0000;	????	
 41a:	03 28       	jnc	$+8      	;abs 0x422
 41c:	db 00       	.word	0x00db;	????	
 41e:	00 00       	.word	0x0000;	????	
 420:	07 02       	.word	0x0207;	????	
 422:	07 00       	.word	0x0007;	????	
 424:	00 00       	.word	0x0000;	????	
 426:	04 36       	jge	$-1014   	;abs 0x30
 428:	00 00       	.word	0x0000;	????	
 42a:	00 03       	.word	0x0300;	????	
 42c:	66 d0       	bis.b	@r0,	r6	
 42e:	00 00       	.word	0x0000;	????	
 430:	00 08       	.word	0x0800;	????	
 432:	04 01       	.word	0x0104;	????	
 434:	33 cc       	.word	0xcc33;	????	Illegal as 2-op instr
 436:	01 00       	.word	0x0001;	????	
 438:	00 09       	.word	0x0900;	????	
 43a:	5c 02       	.word	0x025c;	????	
 43c:	00 00       	.word	0x0000;	????	
 43e:	01 36       	jge	$-1020   	;abs 0x42
 440:	65 00       	.word	0x0065;	????	
 442:	00 00       	.word	0x0000;	????	
 444:	01 01       	.word	0x0101;	????	
 446:	07 02       	.word	0x0207;	????	
 448:	23 00       	.word	0x0023;	????	
 44a:	09 e0       	xor	r0,	r9	
 44c:	01 00       	.word	0x0001;	????	
 44e:	00 01       	.word	0x0100;	????	
 450:	39 65       	addc	@r5+,	r9	
 452:	00 00       	.word	0x0000;	????	
 454:	00 01       	.word	0x0100;	????	
 456:	01 06       	.word	0x0601;	????	
 458:	02 23       	jnz	$-506    	;abs 0x25e
 45a:	00 09       	.word	0x0900;	????	
 45c:	d7 02       	.word	0x02d7;	????	
 45e:	00 00       	.word	0x0000;	????	
 460:	01 3b       	jl	$-508    	;abs 0x264
 462:	65 00       	.word	0x0065;	????	
 464:	00 00       	.word	0x0000;	????	
 466:	01 01       	.word	0x0101;	????	
 468:	05 02       	.word	0x0205;	????	
 46a:	23 00       	.word	0x0023;	????	
 46c:	09 c2       	bic	r2,	r9	
 46e:	01 00       	.word	0x0001;	????	
 470:	00 01       	.word	0x0100;	????	
 472:	3c 65       	addc	@r5+,	r12	
 474:	00 00       	.word	0x0000;	????	
 476:	00 01       	.word	0x0100;	????	
 478:	01 04       	.word	0x0401;	????	
 47a:	02 23       	jnz	$-506    	;abs 0x280
 47c:	00 09       	.word	0x0900;	????	
 47e:	29 03       	.word	0x0329;	????	
 480:	00 00       	.word	0x0000;	????	
 482:	01 3d       	jmp	$+516    	;abs 0x686
 484:	65 00       	.word	0x0065;	????	
 486:	00 00       	.word	0x0000;	????	
 488:	01 01       	.word	0x0101;	????	
 48a:	03 02       	.word	0x0203;	????	
 48c:	23 00       	.word	0x0023;	????	
 48e:	09 5f       	add	r15,	r9	
 490:	01 00       	.word	0x0001;	????	
 492:	00 01       	.word	0x0100;	????	
 494:	3e 65       	addc	@r5+,	r14	
 496:	00 00       	.word	0x0000;	????	
 498:	00 01       	.word	0x0100;	????	
 49a:	01 02       	.word	0x0201;	????	
 49c:	02 23       	jnz	$-506    	;abs 0x2a2
 49e:	00 09       	.word	0x0900;	????	
 4a0:	91 01       	.word	0x0191;	????	
 4a2:	00 00       	.word	0x0000;	????	
 4a4:	01 3f       	jmp	$-508    	;abs 0x2a8
 4a6:	65 00       	.word	0x0065;	????	
 4a8:	00 00       	.word	0x0000;	????	
 4aa:	01 01       	.word	0x0101;	????	
 4ac:	01 02       	.word	0x0201;	????	
 4ae:	23 00       	.word	0x0023;	????	
 4b0:	09 e9       	xor	r9,	r9	
 4b2:	02 00       	.word	0x0002;	????	
 4b4:	00 01       	.word	0x0100;	????	
 4b6:	40 65       	addc.b	r5,	r0	
 4b8:	00 00       	.word	0x0000;	????	
 4ba:	00 01       	.word	0x0100;	????	
 4bc:	01 00       	.word	0x0001;	????	
 4be:	02 23       	jnz	$-506    	;abs 0x2c4
 4c0:	00 09       	.word	0x0900;	????	
 4c2:	f4 01       	.word	0x01f4;	????	
 4c4:	00 00       	.word	0x0000;	????	
 4c6:	01 41       	mov	r1,	r1	
 4c8:	65 00       	.word	0x0065;	????	
 4ca:	00 00       	.word	0x0000;	????	
 4cc:	01 01       	.word	0x0101;	????	
 4ce:	07 02       	.word	0x0207;	????	
 4d0:	23 01       	.word	0x0123;	????	
 4d2:	09 fe       	and	r14,	r9	
 4d4:	01 00       	.word	0x0001;	????	
 4d6:	00 01       	.word	0x0100;	????	
 4d8:	42 65       	addc.b	r5,	r2	
 4da:	00 00       	.word	0x0000;	????	
 4dc:	00 01       	.word	0x0100;	????	
 4de:	01 06       	.word	0x0601;	????	
 4e0:	02 23       	jnz	$-506    	;abs 0x2e6
 4e2:	01 09       	.word	0x0901;	????	
 4e4:	c4 02       	.word	0x02c4;	????	
 4e6:	00 00       	.word	0x0000;	????	
 4e8:	01 43       	clr	r1		
 4ea:	65 00       	.word	0x0065;	????	
 4ec:	00 00       	.word	0x0000;	????	
 4ee:	01 01       	.word	0x0101;	????	
 4f0:	05 02       	.word	0x0205;	????	
 4f2:	23 01       	.word	0x0123;	????	
 4f4:	0a ba       	bit	r10,	r10	
 4f6:	02 00       	.word	0x0002;	????	
 4f8:	00 01       	.word	0x0100;	????	
 4fa:	44 be       	bit.b	r14,	r4	
 4fc:	00 00       	.word	0x0000;	????	
 4fe:	00 02       	.word	0x0200;	????	
 500:	23 02       	.word	0x0223;	????	
 502:	0a 07       	.word	0x070a;	????	
 504:	02 00       	.word	0x0002;	????	
 506:	00 01       	.word	0x0100;	????	
 508:	45 65       	rlc.b	r5		
 50a:	00 00       	.word	0x0000;	????	
 50c:	00 02       	.word	0x0200;	????	
 50e:	23 03       	.word	0x0323;	????	
 510:	00 04       	.word	0x0400;	????	
 512:	e1 02       	.word	0x02e1;	????	
 514:	00 00       	.word	0x0000;	????	
 516:	01 46       	mov	r6,	r1	
 518:	ec 00       	.word	0x00ec;	????	
 51a:	00 00       	.word	0x0000;	????	
 51c:	0b 40       	mov	r0,	r11	
 51e:	03 00       	.word	0x0003;	????	
 520:	00 01       	.word	0x0100;	????	
 522:	60 01       	.word	0x0160;	????	
 524:	2f 00       	.word	0x002f;	????	
 526:	00 00       	.word	0x0000;	????	
 528:	01 08       	.word	0x0801;	????	
 52a:	02 00       	.word	0x0002;	????	
 52c:	00 0c       	.word	0x0c00;	????	
 52e:	74 02       	.word	0x0274;	????	
 530:	00 00       	.word	0x0000;	????	
 532:	01 60       	addc	r0,	r1	
 534:	b8 00       	.word	0x00b8;	????	
 536:	00 00       	.word	0x0000;	????	
 538:	0c 4d       	mov	r13,	r12	
 53a:	02 00       	.word	0x0002;	????	
 53c:	00 01       	.word	0x0100;	????	
 53e:	60 cc       	bic.b	@r12,	r0	
 540:	01 00       	.word	0x0001;	????	
 542:	00 0d       	.word	0x0d00;	????	
 544:	70 00       	.word	0x0070;	????	
 546:	01 62       	addc	r2,	r1	
 548:	b8 00       	.word	0x00b8;	????	
 54a:	00 00       	.word	0x0000;	????	
 54c:	00 0e       	.word	0x0e00;	????	
 54e:	29 02       	.word	0x0229;	????	
 550:	00 00       	.word	0x0000;	????	
 552:	01 7a       	subc	r10,	r1	
 554:	01 2f       	jc	$-508    	;abs 0x358
 556:	00 00       	.word	0x0000;	????	
 558:	00 28       	jnc	$+2      	;abs 0x55a
 55a:	ca c0 cb eb 	bic.b	r0,	-5173(r10);0xebcb(r10)
 55e:	00 00       	.word	0x0000;	????	
 560:	00 fa       	and	r10,	r0	
 562:	02 00       	.word	0x0002;	????	
 564:	00 0f       	.word	0x0f00;	????	
 566:	7e 01       	.word	0x017e;	????	
 568:	00 00       	.word	0x0000;	????	
 56a:	01 7a       	subc	r10,	r1	
 56c:	0a 03       	.word	0x030a;	????	
 56e:	00 00       	.word	0x0000;	????	
 570:	3f 01       	.word	0x013f;	????	
 572:	00 00       	.word	0x0000;	????	
 574:	0f ac       	dadd	r12,	r15	
 576:	01 00       	.word	0x0001;	????	
 578:	00 01       	.word	0x0100;	????	
 57a:	7a c5       	bic.b	@r5+,	r10	
 57c:	00 00       	.word	0x0000;	????	
 57e:	00 51       	add	r1,	r0	
 580:	01 00       	.word	0x0001;	????	
 582:	00 0f       	.word	0x0f00;	????	
 584:	a4 02       	.word	0x02a4;	????	
 586:	00 00       	.word	0x0000;	????	
 588:	01 7a       	subc	r10,	r1	
 58a:	28 00       	.word	0x0028;	????	
 58c:	00 00       	.word	0x0000;	????	
 58e:	64 01       	.word	0x0164;	????	
 590:	00 00       	.word	0x0000;	????	
 592:	0f 4d       	mov	r13,	r15	
 594:	02 00       	.word	0x0002;	????	
 596:	00 01       	.word	0x0100;	????	
 598:	7b cc       	bic.b	@r12+,	r11	
 59a:	01 00       	.word	0x0001;	????	
 59c:	00 76       	subc	r6,	r0	
 59e:	01 00       	.word	0x0001;	????	
 5a0:	00 10       	rrc	r0		
 5a2:	0d 03       	.word	0x030d;	????	
 5a4:	00 00       	.word	0x0000;	????	
 5a6:	01 7d       	subc	r13,	r1	
 5a8:	2f 00       	.word	0x002f;	????	
 5aa:	00 00       	.word	0x0000;	????	
 5ac:	e5 01       	.word	0x01e5;	????	
 5ae:	00 00       	.word	0x0000;	????	
 5b0:	11 74 02 00 	subc	2(r4),	r1	;0x0002(r4)
 5b4:	00 01       	.word	0x0100;	????	
 5b6:	7e 10       	rrc.b	@r14+		
 5b8:	03 00       	.word	0x0003;	????	
 5ba:	00 02       	.word	0x0200;	????	
 5bc:	91 66 10 42 	addc	16912(r6),2(r1)	;0x4210(r6), 0x0002(r1)
 5c0:	02 00 
 5c2:	00 01       	.word	0x0100;	????	
 5c4:	7f 2f       	jc	$-256    	;abs 0x4c4
 5c6:	00 00       	.word	0x0000;	????	
 5c8:	00 15       	.word	0x1500;	????	
 5ca:	02 00       	.word	0x0002;	????	
 5cc:	00 10       	rrc	r0		
 5ce:	c4 02       	.word	0x02c4;	????	
 5d0:	00 00       	.word	0x0000;	????	
 5d2:	01 80       	sub	r0,	r1	
 5d4:	28 00       	.word	0x0028;	????	
 5d6:	00 00       	.word	0x0000;	????	
 5d8:	4d 02       	.word	0x024d;	????	
 5da:	00 00       	.word	0x0000;	????	
 5dc:	11 a1 01 00 	dadd	1(r1),	r1	;0x0001(r1)
 5e0:	00 01       	.word	0x0100;	????	
 5e2:	81 2f       	jc	$-252    	;abs 0x4e6
 5e4:	00 00       	.word	0x0000;	????	
 5e6:	00 01       	.word	0x0100;	????	
 5e8:	5a 12 d7 01 	push.b	471(r10)	;0x01d7(r10)
 5ec:	00 00       	.word	0x0000;	????	
 5ee:	52 ca b8 ca 	bic.b	-13640(r10),r2	;0xcab8(r10)
 5f2:	01 81       	sub	r1,	r1	
 5f4:	d5 02       	.word	0x02d5;	????	
 5f6:	00 00       	.word	0x0000;	????	
 5f8:	13 f3       	.word	0xf313;	????	Illegal as 2-op instr
 5fa:	01 00       	.word	0x0001;	????	
 5fc:	00 78       	subc	r8,	r0	
 5fe:	02 00       	.word	0x0002;	????	
 600:	00 13       	reti			
 602:	e8 01       	.word	0x01e8;	????	
 604:	00 00       	.word	0x0000;	????	
 606:	af 02       	.word	0x02af;	????	
 608:	00 00       	.word	0x0000;	????	
 60a:	14 52 ca b8 	add	&0xb8ca,r4	
 60e:	ca 15       	.word	0x15ca;	????	
 610:	fe 01       	.word	0x01fe;	????	
 612:	00 00       	.word	0x0000;	????	
 614:	c3 02       	.word	0x02c3;	????	
 616:	00 00       	.word	0x0000;	????	
 618:	00 00       	.word	0x0000;	????	
 61a:	14 d2 ca 4a 	bis	&0x4aca,r4	
 61e:	cb 10       	.word	0x10cb;	????	
 620:	71 01       	.word	0x0171;	????	
 622:	00 00       	.word	0x0000;	????	
 624:	01 89       	sub	r9,	r1	
 626:	be 00       	.word	0x00be;	????	
 628:	00 00       	.word	0x0000;	????	
 62a:	15 03       	.word	0x0315;	????	
 62c:	00 00       	.word	0x0000;	????	
 62e:	16 6c 65 6e 	addc	28261(r12),r6	;0x6e65(r12)
 632:	00 01       	.word	0x0100;	????	
 634:	8a 28       	jnc	$+278    	;abs 0x74a
 636:	00 00       	.word	0x0000;	????	
 638:	00 2a       	jnc	$-1022   	;abs 0x23a
 63a:	03 00       	.word	0x0003;	????	
 63c:	00 00       	.word	0x0000;	????	
 63e:	00 17       	.word	0x1700;	????	
 640:	01 2f       	jc	$-508    	;abs 0x444
 642:	00 00       	.word	0x0000;	????	
 644:	00 0a       	.word	0x0a00;	????	
 646:	03 00       	.word	0x0003;	????	
 648:	00 18       	.word	0x1800;	????	
 64a:	2f 00       	.word	0x002f;	????	
 64c:	00 00       	.word	0x0000;	????	
 64e:	00 05       	.word	0x0500;	????	
 650:	02 fa       	and	r10,	r2	
 652:	02 00       	.word	0x0002;	????	
 654:	00 19       	.word	0x1900;	????	
 656:	be 00       	.word	0x00be;	????	
 658:	00 00       	.word	0x0000;	????	
 65a:	20 03       	.word	0x0320;	????	
 65c:	00 00       	.word	0x0000;	????	
 65e:	1a 28       	jnc	$+54     	;abs 0x694
 660:	00 00       	.word	0x0000;	????	
 662:	00 01       	.word	0x0100;	????	
 664:	00 1b       	.word	0x1b00;	????	
 666:	01 26       	jz	$-1020   	;abs 0x26a
 668:	01 00       	.word	0x0001;	????	
 66a:	00 01       	.word	0x0100;	????	
 66c:	f9 01       	.word	0x01f9;	????	
 66e:	2f 00       	.word	0x002f;	????	
 670:	00 00       	.word	0x0000;	????	
 672:	c0 cb 5e d2 	bic.b	r11,	-11682(r0);PC rel. 0xd8d2
 676:	3c 03       	.word	0x033c;	????	
 678:	00 00       	.word	0x0000;	????	
 67a:	51 05       	.word	0x0551;	????	
 67c:	00 00       	.word	0x0000;	????	
 67e:	0f 7e       	subc	r14,	r15	
 680:	01 00       	.word	0x0001;	????	
 682:	00 01       	.word	0x0100;	????	
 684:	f9 0a       	.word	0x0af9;	????	
 686:	03 00       	.word	0x0003;	????	
 688:	00 d9       	bis	r9,	r0	
 68a:	03 00       	.word	0x0003;	????	
 68c:	00 0f       	.word	0x0f00;	????	
 68e:	41 01       	.word	0x0141;	????	
 690:	00 00       	.word	0x0000;	????	
 692:	01 f9       	and	r9,	r1	
 694:	c5 00       	.word	0x00c5;	????	
 696:	00 00       	.word	0x0000;	????	
 698:	ec 03       	.word	0x03ec;	????	
 69a:	00 00       	.word	0x0000;	????	
 69c:	0f 6f       	rlc	r15		
 69e:	02 00       	.word	0x0002;	????	
 6a0:	00 01       	.word	0x0100;	????	
 6a2:	f9 e1 00 00 	xor.b	@r1+,	0(r9)	;0x0000(r9)
 6a6:	00 18       	.word	0x1800;	????	
 6a8:	04 00       	.word	0x0004;	????	
 6aa:	00 10       	rrc	r0		
 6ac:	0d 03       	.word	0x030d;	????	
 6ae:	00 00       	.word	0x0000;	????	
 6b0:	01 fb       	and	r11,	r1	
 6b2:	2f 00       	.word	0x002f;	????	
 6b4:	00 00       	.word	0x0000;	????	
 6b6:	a8 04       	.word	0x04a8;	????	
 6b8:	00 00       	.word	0x0000;	????	
 6ba:	1c 02       	.word	0x021c;	????	
 6bc:	01 fd       	and	r13,	r1	
 6be:	8a 03       	.word	0x038a;	????	
 6c0:	00 00       	.word	0x0000;	????	
 6c2:	1d b3       	bit	#1,	r13	;r3 As==01
 6c4:	01 00       	.word	0x0001;	????	
 6c6:	00 00       	.word	0x0000;	????	
 6c8:	1d 1f       	.word	0x1f1d;	????	
 6ca:	02 00       	.word	0x0002;	????	
 6cc:	00 01       	.word	0x0100;	????	
 6ce:	00 10       	rrc	r0		
 6d0:	5a 01       	.word	0x015a;	????	
 6d2:	00 00       	.word	0x0000;	????	
 6d4:	01 fd       	and	r13,	r1	
 6d6:	75 03       	.word	0x0375;	????	
 6d8:	00 00       	.word	0x0000;	????	
 6da:	d2 04       	.word	0x04d2;	????	
 6dc:	00 00       	.word	0x0000;	????	
 6de:	10 16       	.word	0x1610;	????	
 6e0:	02 00       	.word	0x0002;	????	
 6e2:	00 01       	.word	0x0100;	????	
 6e4:	fe 28       	jnc	$+510    	;abs 0x8e2
 6e6:	00 00       	.word	0x0000;	????	
 6e8:	00 3d       	jmp	$+514    	;abs 0x8ea
 6ea:	05 00       	.word	0x0005;	????	
 6ec:	00 10       	rrc	r0		
 6ee:	a4 02       	.word	0x02a4;	????	
 6f0:	00 00       	.word	0x0000;	????	
 6f2:	01 ff       	and	r15,	r1	
 6f4:	28 00       	.word	0x0028;	????	
 6f6:	00 00       	.word	0x0000;	????	
 6f8:	8d 05       	.word	0x058d;	????	
 6fa:	00 00       	.word	0x0000;	????	
 6fc:	1e 4d 02 00 	mov	2(r13),	r14	;0x0002(r13)
 700:	00 01       	.word	0x0100;	????	
 702:	00 01       	.word	0x0100;	????	
 704:	cc 01       	.word	0x01cc;	????	
 706:	00 00       	.word	0x0000;	????	
 708:	03 91       	.word	0x9103;	????	Illegal as 2-op instr
 70a:	a4 7f 1f ea 	subc	@r15,	-5601(r4);0xea1f(r4)
 70e:	01 00       	.word	0x0001;	????	
 710:	00 01       	.word	0x0100;	????	
 712:	01 01       	.word	0x0101;	????	
 714:	c5 00       	.word	0x00c5;	????	
 716:	00 00       	.word	0x0000;	????	
 718:	b9 05       	.word	0x05b9;	????	
 71a:	00 00       	.word	0x0000;	????	
 71c:	1f ac 01 00 	dadd	1(r12),	r15	;0x0001(r12)
 720:	00 01       	.word	0x0100;	????	
 722:	02 01       	.word	0x0102;	????	
 724:	b8 00       	.word	0x00b8;	????	
 726:	00 00       	.word	0x0000;	????	
 728:	08 06       	.word	0x0608;	????	
 72a:	00 00       	.word	0x0000;	????	
 72c:	1f b0 02 00 	bit	2(r0),	r15	;PC rel. 0x0730
 730:	00 01       	.word	0x0100;	????	
 732:	03 01       	.word	0x0103;	????	
 734:	be 00       	.word	0x00be;	????	
 736:	00 00       	.word	0x0000;	????	
 738:	5a 06       	.word	0x065a;	????	
 73a:	00 00       	.word	0x0000;	????	
 73c:	1f 82 02 00 	sub	&0x0002,r15	
 740:	00 01       	.word	0x0100;	????	
 742:	04 01       	.word	0x0104;	????	
 744:	2f 00       	.word	0x002f;	????	
 746:	00 00       	.word	0x0000;	????	
 748:	d5 06       	.word	0x06d5;	????	
 74a:	00 00       	.word	0x0000;	????	
 74c:	1f 11 02 00 	rra	2(r15)		;0x0002(r15)
 750:	00 01       	.word	0x0100;	????	
 752:	05 01       	.word	0x0105;	????	
 754:	51 05       	.word	0x0551;	????	
 756:	00 00       	.word	0x0000;	????	
 758:	e9 06       	.word	0x06e9;	????	
 75a:	00 00       	.word	0x0000;	????	
 75c:	1f 88 02 00 	sub	2(r8),	r15	;0x0002(r8)
 760:	00 01       	.word	0x0100;	????	
 762:	06 01       	.word	0x0106;	????	
 764:	51 05       	.word	0x0551;	????	
 766:	00 00       	.word	0x0000;	????	
 768:	25 07       	.word	0x0725;	????	
 76a:	00 00       	.word	0x0000;	????	
 76c:	1f ba 01 00 	bit	1(r10),	r15	;0x0001(r10)
 770:	00 01       	.word	0x0100;	????	
 772:	07 01       	.word	0x0107;	????	
 774:	51 05       	.word	0x0551;	????	
 776:	00 00       	.word	0x0000;	????	
 778:	51 07       	.word	0x0751;	????	
 77a:	00 00       	.word	0x0000;	????	
 77c:	1f d4 01 00 	bis	1(r4),	r15	;0x0001(r4)
 780:	00 01       	.word	0x0100;	????	
 782:	08 01       	.word	0x0108;	????	
 784:	51 05       	.word	0x0551;	????	
 786:	00 00       	.word	0x0000;	????	
 788:	7d 07       	.word	0x077d;	????	
 78a:	00 00       	.word	0x0000;	????	
 78c:	20 08       	.word	0x0820;	????	
 78e:	01 09       	.word	0x0901;	????	
 790:	01 81       	sub	r1,	r1	
 792:	04 00       	.word	0x0004;	????	
 794:	00 21       	jnz	$+514    	;abs 0x996
 796:	69 31       	jn	$+724    	;abs 0xa6a
 798:	36 00       	.word	0x0036;	????	
 79a:	01 0b       	.word	0x0b01;	????	
 79c:	01 3d       	jmp	$+516    	;abs 0x9a0
 79e:	00 00       	.word	0x0000;	????	
 7a0:	00 21       	jnz	$+514    	;abs 0x9a2
 7a2:	70 74       	subc.b	@r4+,	r0	
 7a4:	72 00       	.word	0x0072;	????	
 7a6:	01 0c       	.word	0x0c01;	????	
 7a8:	01 a6       	dadd	r6,	r1	
 7aa:	00 00       	.word	0x0000;	????	
 7ac:	00 21       	jnz	$+514    	;abs 0x9ae
 7ae:	69 33       	jn	$-300    	;abs 0x682
 7b0:	32 00       	.word	0x0032;	????	
 7b2:	01 0e       	.word	0x0e01;	????	
 7b4:	01 48       	mov	r8,	r1	
 7b6:	00 00       	.word	0x0000;	????	
 7b8:	00 21       	jnz	$+514    	;abs 0x9ba
 7ba:	69 36       	jge	$-812    	;abs 0x48e
 7bc:	34 00       	.word	0x0034;	????	
 7be:	01 11       	rra	r1		
 7c0:	01 53       	add	#0,	r1	;r3 As==00
 7c2:	00 00       	.word	0x0000;	????	
 7c4:	00 00       	.word	0x0000;	????	
 7c6:	1e 3b       	jl	$-450    	;abs 0x604
 7c8:	02 00       	.word	0x0002;	????	
 7ca:	00 01       	.word	0x0100;	????	
 7cc:	13 01       	.word	0x0113;	????	
 7ce:	47 04       	.word	0x0447;	????	
 7d0:	00 00       	.word	0x0000;	????	
 7d2:	02 71       	subc	r1,	r2	
 7d4:	1e 1e       	.word	0x1e1e;	????	
 7d6:	7b 02       	.word	0x027b;	????	
 7d8:	00 00       	.word	0x0000;	????	
 7da:	01 14       	.word	0x1401;	????	
 7dc:	01 58       	add	r8,	r1	
 7de:	05 00       	.word	0x0005;	????	
 7e0:	00 03       	.word	0x0300;	????	
 7e2:	91 a8 7f 22 	dadd	8831(r8),682(r1)	;0x227f(r8), 0x02aa(r1)
 7e6:	aa 02 
 7e8:	00 00       	.word	0x0000;	????	
 7ea:	01 26       	jz	$-1020   	;abs 0x3ee
 7ec:	01 44       	mov	r4,	r1	
 7ee:	cc 22       	jnz	$-614    	;abs 0x588
 7f0:	3d 01       	.word	0x013d;	????	
 7f2:	00 00       	.word	0x0000;	????	
 7f4:	01 42       	mov	r2,	r1	
 7f6:	02 ee       	xor	r14,	r2	
 7f8:	cc 22       	jnz	$-614    	;abs 0x592
 7fa:	1d 03       	.word	0x031d;	????	
 7fc:	00 00       	.word	0x0000;	????	
 7fe:	01 a7       	dadd	r7,	r1	
 800:	01 0a       	.word	0x0a01;	????	
 802:	ce 22       	jnz	$-610    	;abs 0x5a0
 804:	34 03       	.word	0x0334;	????	
 806:	00 00       	.word	0x0000;	????	
 808:	01 f2       	and	r2,	r1	
 80a:	01 26       	jz	$-1020   	;abs 0x40e
 80c:	cf 22       	jnz	$-608    	;abs 0x5ac
 80e:	35 02       	.word	0x0235;	????	
 810:	00 00       	.word	0x0000;	????	
 812:	01 d8       	bis	r8,	r1	
 814:	01 98       	cmp	r8,	r1	
 816:	ce 23       	jnz	$-98     	;abs 0x7b4
 818:	00 00       	.word	0x0000;	????	
 81a:	00 00       	.word	0x0000;	????	
 81c:	ec 04       	.word	0x04ec;	????	
 81e:	00 00       	.word	0x0000;	????	
 820:	1f 9d 02 00 	cmp	2(r13),	r15	;0x0002(r13)
 824:	00 01       	.word	0x0100;	????	
 826:	33 02       	.word	0x0233;	????	
 828:	2f 00       	.word	0x002f;	????	
 82a:	00 00       	.word	0x0000;	????	
 82c:	a9 07       	.word	0x07a9;	????	
 82e:	00 00       	.word	0x0000;	????	
 830:	00 23       	jnz	$-510    	;abs 0x632
 832:	0c 00       	.word	0x000c;	????	
 834:	00 00       	.word	0x0000;	????	
 836:	06 05       	.word	0x0506;	????	
 838:	00 00       	.word	0x0000;	????	
 83a:	24 76       	subc	@r6,	r4	
 83c:	61 6c       	addc.b	@r12,	r1	
 83e:	00 01       	.word	0x0100;	????	
 840:	6f 01       	.word	0x016f;	????	
 842:	2f 00       	.word	0x002f;	????	
 844:	00 00       	.word	0x0000;	????	
 846:	b4 07       	.word	0x07b4;	????	
 848:	00 00       	.word	0x0000;	????	
 84a:	00 25       	jz	$+514    	;abs 0xa4c
 84c:	d8 cf 70 d0 	bic.b	-12176(r15),1312(r8);0xd070(r15), 0x0520(r8)
 850:	20 05 
 852:	00 00       	.word	0x0000;	????	
 854:	1f 07       	.word	0x071f;	????	
 856:	03 00       	.word	0x0003;	????	
 858:	00 01       	.word	0x0100;	????	
 85a:	20 02       	.word	0x0220;	????	
 85c:	2f 00       	.word	0x002f;	????	
 85e:	00 00       	.word	0x0000;	????	
 860:	cf 07       	.word	0x07cf;	????	
 862:	00 00       	.word	0x0000;	????	
 864:	00 25       	jz	$+514    	;abs 0xa66
 866:	a4 d0 00 d1 	bis	@r0,	-12032(r4);0xd100(r4)
 86a:	3a 05       	.word	0x053a;	????	
 86c:	00 00       	.word	0x0000;	????	
 86e:	1f 07       	.word	0x071f;	????	
 870:	03 00       	.word	0x0003;	????	
 872:	00 01       	.word	0x0100;	????	
 874:	25 02       	.word	0x0225;	????	
 876:	2f 00       	.word	0x002f;	????	
 878:	00 00       	.word	0x0000;	????	
 87a:	da 07       	.word	0x07da;	????	
 87c:	00 00       	.word	0x0000;	????	
 87e:	00 14       	.word	0x1400;	????	
 880:	1c d1 62 d1 	bis	-11934(r1),r12	;0xd162(r1)
 884:	1f 07       	.word	0x071f;	????	
 886:	03 00       	.word	0x0003;	????	
 888:	00 01       	.word	0x0100;	????	
 88a:	28 02       	.word	0x0228;	????	
 88c:	2f 00       	.word	0x002f;	????	
 88e:	00 00       	.word	0x0000;	????	
 890:	e5 07       	.word	0x07e5;	????	
 892:	00 00       	.word	0x0000;	????	
 894:	00 00       	.word	0x0000;	????	
 896:	02 01       	.word	0x0102;	????	
 898:	02 97       	cmp	r7,	r2	
 89a:	02 00       	.word	0x0002;	????	
 89c:	00 26       	jz	$-1022   	;abs 0x49e
 89e:	be 00       	.word	0x00be;	????	
 8a0:	00 00       	.word	0x0000;	????	
 8a2:	1a 28       	jnc	$+54     	;abs 0x8d8
 8a4:	00 00       	.word	0x0000;	????	
 8a6:	00 17       	.word	0x1700;	????	
 8a8:	00 00       	.word	0x0000;	????	
 8aa:	ca 00       	.word	0x00ca;	????	
 8ac:	00 00       	.word	0x0000;	????	
 8ae:	02 00       	.word	0x0002;	????	
 8b0:	08 03       	.word	0x0308;	????	
 8b2:	00 00       	.word	0x0000;	????	
 8b4:	02 01       	.word	0x0102;	????	
 8b6:	0a 04       	.word	0x040a;	????	
 8b8:	00 00       	.word	0x0000;	????	
 8ba:	5e d2 9e d2 	bis.b	&0xd29e,r14	
 8be:	2f 62       	addc	#4,	r15	;r2 As==10
 8c0:	75 69       	addc.b	@r9+,	r5	
 8c2:	6c 64       	addc.b	@r4,	r12	
 8c4:	2f 62       	addc	#4,	r15	;r2 As==10
 8c6:	75 69       	addc.b	@r9+,	r5	
 8c8:	6c 64       	addc.b	@r4,	r12	
 8ca:	64 2f       	jc	$-310    	;abs 0x794
 8cc:	67 63       	addc.b	#2,	r7	;r3 As==10
 8ce:	63 2d       	jc	$+712    	;abs 0xb96
 8d0:	6d 73       	subc.b	#2,	r13	;r3 As==10
 8d2:	70 34       	jge	$+226    	;abs 0x9b4
 8d4:	33 30       	jn	$+104    	;abs 0x93c
 8d6:	2d 34       	jge	$+92     	;abs 0x932
 8d8:	2e 36       	jge	$-930    	;abs 0x536
 8da:	2e 33       	jn	$-418    	;abs 0x738
 8dc:	7e 6d       	addc.b	@r13+,	r14	
 8de:	73 70       	.word	0x7073;	????	Illegal as 2-op instr
 8e0:	67 63       	addc.b	#2,	r7	;r3 As==10
 8e2:	63 2d       	jc	$+712    	;abs 0xbaa
 8e4:	32 30       	jn	$+102    	;abs 0x94a
 8e6:	31 32       	jn	$-924    	;abs 0x54a
 8e8:	30 34       	jge	$+98     	;abs 0x94a
 8ea:	30 36       	jge	$-926    	;abs 0x54c
 8ec:	2f 2e       	jc	$-928    	;abs 0x54c
 8ee:	2f 67       	addc	@r7,	r15	
 8f0:	63 63       	.word	0x6363;	????	Illegal as 2-op instr
 8f2:	2d 34       	jge	$+92     	;abs 0x94e
 8f4:	2e 36       	jge	$-930    	;abs 0x552
 8f6:	2e 33       	jn	$-418    	;abs 0x754
 8f8:	2f 6c       	addc	@r12,	r15	
 8fa:	69 62       	addc.b	#4,	r9	;r2 As==10
 8fc:	67 63       	addc.b	#2,	r7	;r3 As==10
 8fe:	63 2f       	jc	$-312    	;abs 0x7c6
 900:	2e 2e       	jc	$-930    	;abs 0x55e
 902:	2f 67       	addc	@r7,	r15	
 904:	63 63       	.word	0x6363;	????	Illegal as 2-op instr
 906:	2f 63       	addc	#2,	r15	;r3 As==10
 908:	6f 6e       	addc.b	@r14,	r15	
 90a:	66 69       	addc.b	@r9,	r6	
 90c:	67 2f       	jc	$-304    	;abs 0x7dc
 90e:	6d 73       	subc.b	#2,	r13	;r3 As==10
 910:	70 34       	jge	$+226    	;abs 0x9f2
 912:	33 30       	jn	$+104    	;abs 0x97a
 914:	2f 6c       	addc	@r12,	r15	
 916:	69 62       	addc.b	#4,	r9	;r2 As==10
 918:	67 63       	addc.b	#2,	r7	;r3 As==10
 91a:	63 2e       	jc	$-824    	;abs 0x5e2
 91c:	53 00       	.word	0x0053;	????	
 91e:	2f 62       	addc	#4,	r15	;r2 As==10
 920:	75 69       	addc.b	@r9+,	r5	
 922:	6c 64       	addc.b	@r4,	r12	
 924:	2f 62       	addc	#4,	r15	;r2 As==10
 926:	75 69       	addc.b	@r9+,	r5	
 928:	6c 64       	addc.b	@r4,	r12	
 92a:	64 2f       	jc	$-310    	;abs 0x7f4
 92c:	67 63       	addc.b	#2,	r7	;r3 As==10
 92e:	63 2d       	jc	$+712    	;abs 0xbf6
 930:	6d 73       	subc.b	#2,	r13	;r3 As==10
 932:	70 34       	jge	$+226    	;abs 0xa14
 934:	33 30       	jn	$+104    	;abs 0x99c
 936:	2d 34       	jge	$+92     	;abs 0x992
 938:	2e 36       	jge	$-930    	;abs 0x596
 93a:	2e 33       	jn	$-418    	;abs 0x798
 93c:	7e 6d       	addc.b	@r13+,	r14	
 93e:	73 70       	.word	0x7073;	????	Illegal as 2-op instr
 940:	67 63       	addc.b	#2,	r7	;r3 As==10
 942:	63 2d       	jc	$+712    	;abs 0xc0a
 944:	32 30       	jn	$+102    	;abs 0x9aa
 946:	31 32       	jn	$-924    	;abs 0x5aa
 948:	30 34       	jge	$+98     	;abs 0x9aa
 94a:	30 36       	jge	$-926    	;abs 0x5ac
 94c:	2f 62       	addc	#4,	r15	;r2 As==10
 94e:	75 69       	addc.b	@r9+,	r5	
 950:	6c 64       	addc.b	@r4,	r12	
 952:	2d 72       	subc	#4,	r13	;r2 As==10
 954:	65 73       	subc.b	#2,	r5	;r3 As==10
 956:	75 6c       	addc.b	@r12+,	r5	
 958:	74 2f       	jc	$-278    	;abs 0x842
 95a:	6d 73       	subc.b	#2,	r13	;r3 As==10
 95c:	70 34       	jge	$+226    	;abs 0xa3e
 95e:	33 30       	jn	$+104    	;abs 0x9c6
 960:	2f 6c       	addc	@r12,	r15	
 962:	69 62       	addc.b	#4,	r9	;r2 As==10
 964:	67 63       	addc.b	#2,	r7	;r3 As==10
 966:	63 00       	.word	0x0063;	????	
 968:	47 4e       	mov.b	r14,	r7	
 96a:	55 20       	jnz	$+172    	;abs 0xa16
 96c:	41 53       	add.b	#0,	r1	;r3 As==00
 96e:	20 32       	jn	$-958    	;abs 0x5b0
 970:	2e 32       	jn	$-930    	;abs 0x5ce
 972:	31 2e       	jc	$-924    	;abs 0x5d6
 974:	31 00       	.word	0x0031;	????	
 976:	01 80       	sub	r0,	r1	
 978:	ca 00       	.word	0x00ca;	????	
 97a:	00 00       	.word	0x0000;	????	
 97c:	02 00       	.word	0x0002;	????	
 97e:	1c 03       	.word	0x031c;	????	
 980:	00 00       	.word	0x0000;	????	
 982:	02 01       	.word	0x0102;	????	
 984:	b5 04       	.word	0x04b5;	????	
 986:	00 00       	.word	0x0000;	????	
 988:	9e d2 8e d3 	bis	&0xd38e,25135(r14);0x622f(r14)
 98c:	2f 62 
 98e:	75 69       	addc.b	@r9+,	r5	
 990:	6c 64       	addc.b	@r4,	r12	
 992:	2f 62       	addc	#4,	r15	;r2 As==10
 994:	75 69       	addc.b	@r9+,	r5	
 996:	6c 64       	addc.b	@r4,	r12	
 998:	64 2f       	jc	$-310    	;abs 0x862
 99a:	67 63       	addc.b	#2,	r7	;r3 As==10
 99c:	63 2d       	jc	$+712    	;abs 0xc64
 99e:	6d 73       	subc.b	#2,	r13	;r3 As==10
 9a0:	70 34       	jge	$+226    	;abs 0xa82
 9a2:	33 30       	jn	$+104    	;abs 0xa0a
 9a4:	2d 34       	jge	$+92     	;abs 0xa00
 9a6:	2e 36       	jge	$-930    	;abs 0x604
 9a8:	2e 33       	jn	$-418    	;abs 0x806
 9aa:	7e 6d       	addc.b	@r13+,	r14	
 9ac:	73 70       	.word	0x7073;	????	Illegal as 2-op instr
 9ae:	67 63       	addc.b	#2,	r7	;r3 As==10
 9b0:	63 2d       	jc	$+712    	;abs 0xc78
 9b2:	32 30       	jn	$+102    	;abs 0xa18
 9b4:	31 32       	jn	$-924    	;abs 0x618
 9b6:	30 34       	jge	$+98     	;abs 0xa18
 9b8:	30 36       	jge	$-926    	;abs 0x61a
 9ba:	2f 2e       	jc	$-928    	;abs 0x61a
 9bc:	2f 67       	addc	@r7,	r15	
 9be:	63 63       	.word	0x6363;	????	Illegal as 2-op instr
 9c0:	2d 34       	jge	$+92     	;abs 0xa1c
 9c2:	2e 36       	jge	$-930    	;abs 0x620
 9c4:	2e 33       	jn	$-418    	;abs 0x822
 9c6:	2f 6c       	addc	@r12,	r15	
 9c8:	69 62       	addc.b	#4,	r9	;r2 As==10
 9ca:	67 63       	addc.b	#2,	r7	;r3 As==10
 9cc:	63 2f       	jc	$-312    	;abs 0x894
 9ce:	2e 2e       	jc	$-930    	;abs 0x62c
 9d0:	2f 67       	addc	@r7,	r15	
 9d2:	63 63       	.word	0x6363;	????	Illegal as 2-op instr
 9d4:	2f 63       	addc	#2,	r15	;r3 As==10
 9d6:	6f 6e       	addc.b	@r14,	r15	
 9d8:	66 69       	addc.b	@r9,	r6	
 9da:	67 2f       	jc	$-304    	;abs 0x8aa
 9dc:	6d 73       	subc.b	#2,	r13	;r3 As==10
 9de:	70 34       	jge	$+226    	;abs 0xac0
 9e0:	33 30       	jn	$+104    	;abs 0xa48
 9e2:	2f 6c       	addc	@r12,	r15	
 9e4:	69 62       	addc.b	#4,	r9	;r2 As==10
 9e6:	67 63       	addc.b	#2,	r7	;r3 As==10
 9e8:	63 2e       	jc	$-824    	;abs 0x6b0
 9ea:	53 00       	.word	0x0053;	????	
 9ec:	2f 62       	addc	#4,	r15	;r2 As==10
 9ee:	75 69       	addc.b	@r9+,	r5	
 9f0:	6c 64       	addc.b	@r4,	r12	
 9f2:	2f 62       	addc	#4,	r15	;r2 As==10
 9f4:	75 69       	addc.b	@r9+,	r5	
 9f6:	6c 64       	addc.b	@r4,	r12	
 9f8:	64 2f       	jc	$-310    	;abs 0x8c2
 9fa:	67 63       	addc.b	#2,	r7	;r3 As==10
 9fc:	63 2d       	jc	$+712    	;abs 0xcc4
 9fe:	6d 73       	subc.b	#2,	r13	;r3 As==10
 a00:	70 34       	jge	$+226    	;abs 0xae2
 a02:	33 30       	jn	$+104    	;abs 0xa6a
 a04:	2d 34       	jge	$+92     	;abs 0xa60
 a06:	2e 36       	jge	$-930    	;abs 0x664
 a08:	2e 33       	jn	$-418    	;abs 0x866
 a0a:	7e 6d       	addc.b	@r13+,	r14	
 a0c:	73 70       	.word	0x7073;	????	Illegal as 2-op instr
 a0e:	67 63       	addc.b	#2,	r7	;r3 As==10
 a10:	63 2d       	jc	$+712    	;abs 0xcd8
 a12:	32 30       	jn	$+102    	;abs 0xa78
 a14:	31 32       	jn	$-924    	;abs 0x678
 a16:	30 34       	jge	$+98     	;abs 0xa78
 a18:	30 36       	jge	$-926    	;abs 0x67a
 a1a:	2f 62       	addc	#4,	r15	;r2 As==10
 a1c:	75 69       	addc.b	@r9+,	r5	
 a1e:	6c 64       	addc.b	@r4,	r12	
 a20:	2d 72       	subc	#4,	r13	;r2 As==10
 a22:	65 73       	subc.b	#2,	r5	;r3 As==10
 a24:	75 6c       	addc.b	@r12+,	r5	
 a26:	74 2f       	jc	$-278    	;abs 0x910
 a28:	6d 73       	subc.b	#2,	r13	;r3 As==10
 a2a:	70 34       	jge	$+226    	;abs 0xb0c
 a2c:	33 30       	jn	$+104    	;abs 0xa94
 a2e:	2f 6c       	addc	@r12,	r15	
 a30:	69 62       	addc.b	#4,	r9	;r2 As==10
 a32:	67 63       	addc.b	#2,	r7	;r3 As==10
 a34:	63 00       	.word	0x0063;	????	
 a36:	47 4e       	mov.b	r14,	r7	
 a38:	55 20       	jnz	$+172    	;abs 0xae4
 a3a:	41 53       	add.b	#0,	r1	;r3 As==00
 a3c:	20 32       	jn	$-958    	;abs 0x67e
 a3e:	2e 32       	jn	$-930    	;abs 0x69c
 a40:	31 2e       	jc	$-924    	;abs 0x6a4
 a42:	31 00       	.word	0x0031;	????	
 a44:	01 80       	sub	r0,	r1	
 a46:	b4 00       	.word	0x00b4;	????	
 a48:	00 00       	.word	0x0000;	????	
 a4a:	02 00       	.word	0x0002;	????	
 a4c:	30 03       	.word	0x0330;	????	
 a4e:	00 00       	.word	0x0000;	????	
 a50:	02 01       	.word	0x0102;	????	
 a52:	a6 05       	.word	0x05a6;	????	
 a54:	00 00       	.word	0x0000;	????	
 a56:	00 c0       	bic	r0,	r0	
 a58:	0c c0       	bic	r0,	r12	
 a5a:	2f 62       	addc	#4,	r15	;r2 As==10
 a5c:	75 69       	addc.b	@r9+,	r5	
 a5e:	6c 64       	addc.b	@r4,	r12	
 a60:	2f 62       	addc	#4,	r15	;r2 As==10
 a62:	75 69       	addc.b	@r9+,	r5	
 a64:	6c 64       	addc.b	@r4,	r12	
 a66:	64 2f       	jc	$-310    	;abs 0x930
 a68:	67 63       	addc.b	#2,	r7	;r3 As==10
 a6a:	63 2d       	jc	$+712    	;abs 0xd32
 a6c:	6d 73       	subc.b	#2,	r13	;r3 As==10
 a6e:	70 34       	jge	$+226    	;abs 0xb50
 a70:	33 30       	jn	$+104    	;abs 0xad8
 a72:	2d 34       	jge	$+92     	;abs 0xace
 a74:	2e 36       	jge	$-930    	;abs 0x6d2
 a76:	2e 33       	jn	$-418    	;abs 0x8d4
 a78:	7e 6d       	addc.b	@r13+,	r14	
 a7a:	73 70       	.word	0x7073;	????	Illegal as 2-op instr
 a7c:	67 63       	addc.b	#2,	r7	;r3 As==10
 a7e:	63 2d       	jc	$+712    	;abs 0xd46
 a80:	32 30       	jn	$+102    	;abs 0xae6
 a82:	31 32       	jn	$-924    	;abs 0x6e6
 a84:	30 34       	jge	$+98     	;abs 0xae6
 a86:	30 36       	jge	$-926    	;abs 0x6e8
 a88:	2f 2e       	jc	$-928    	;abs 0x6e8
 a8a:	2f 67       	addc	@r7,	r15	
 a8c:	63 63       	.word	0x6363;	????	Illegal as 2-op instr
 a8e:	2d 34       	jge	$+92     	;abs 0xaea
 a90:	2e 36       	jge	$-930    	;abs 0x6ee
 a92:	2e 33       	jn	$-418    	;abs 0x8f0
 a94:	2f 67       	addc	@r7,	r15	
 a96:	63 63       	.word	0x6363;	????	Illegal as 2-op instr
 a98:	2f 63       	addc	#2,	r15	;r3 As==10
 a9a:	6f 6e       	addc.b	@r14,	r15	
 a9c:	66 69       	addc.b	@r9,	r6	
 a9e:	67 2f       	jc	$-304    	;abs 0x96e
 aa0:	6d 73       	subc.b	#2,	r13	;r3 As==10
 aa2:	70 34       	jge	$+226    	;abs 0xb84
 aa4:	33 30       	jn	$+104    	;abs 0xb0c
 aa6:	2f 63       	addc	#2,	r15	;r3 As==10
 aa8:	72 74       	subc.b	@r4+,	r2	
 aaa:	30 2e       	jc	$-926    	;abs 0x70c
 aac:	53 00       	.word	0x0053;	????	
 aae:	2f 62       	addc	#4,	r15	;r2 As==10
 ab0:	75 69       	addc.b	@r9+,	r5	
 ab2:	6c 64       	addc.b	@r4,	r12	
 ab4:	2f 62       	addc	#4,	r15	;r2 As==10
 ab6:	75 69       	addc.b	@r9+,	r5	
 ab8:	6c 64       	addc.b	@r4,	r12	
 aba:	64 2f       	jc	$-310    	;abs 0x984
 abc:	67 63       	addc.b	#2,	r7	;r3 As==10
 abe:	63 2d       	jc	$+712    	;abs 0xd86
 ac0:	6d 73       	subc.b	#2,	r13	;r3 As==10
 ac2:	70 34       	jge	$+226    	;abs 0xba4
 ac4:	33 30       	jn	$+104    	;abs 0xb2c
 ac6:	2d 34       	jge	$+92     	;abs 0xb22
 ac8:	2e 36       	jge	$-930    	;abs 0x726
 aca:	2e 33       	jn	$-418    	;abs 0x928
 acc:	7e 6d       	addc.b	@r13+,	r14	
 ace:	73 70       	.word	0x7073;	????	Illegal as 2-op instr
 ad0:	67 63       	addc.b	#2,	r7	;r3 As==10
 ad2:	63 2d       	jc	$+712    	;abs 0xd9a
 ad4:	32 30       	jn	$+102    	;abs 0xb3a
 ad6:	31 32       	jn	$-924    	;abs 0x73a
 ad8:	30 34       	jge	$+98     	;abs 0xb3a
 ada:	30 36       	jge	$-926    	;abs 0x73c
 adc:	2f 62       	addc	#4,	r15	;r2 As==10
 ade:	75 69       	addc.b	@r9+,	r5	
 ae0:	6c 64       	addc.b	@r4,	r12	
 ae2:	2d 72       	subc	#4,	r13	;r2 As==10
 ae4:	65 73       	subc.b	#2,	r5	;r3 As==10
 ae6:	75 6c       	addc.b	@r12+,	r5	
 ae8:	74 2f       	jc	$-278    	;abs 0x9d2
 aea:	67 63       	addc.b	#2,	r7	;r3 As==10
 aec:	63 00       	.word	0x0063;	????	
 aee:	47 4e       	mov.b	r14,	r7	
 af0:	55 20       	jnz	$+172    	;abs 0xb9c
 af2:	41 53       	add.b	#0,	r1	;r3 As==00
 af4:	20 32       	jn	$-958    	;abs 0x736
 af6:	2e 32       	jn	$-930    	;abs 0x754
 af8:	31 2e       	jc	$-924    	;abs 0x75c
 afa:	31 00       	.word	0x0031;	????	
 afc:	01 80       	sub	r0,	r1	
 afe:	b4 00       	.word	0x00b4;	????	
 b00:	00 00       	.word	0x0000;	????	
 b02:	02 00       	.word	0x0002;	????	
 b04:	44 03       	.word	0x0344;	????	
 b06:	00 00       	.word	0x0000;	????	
 b08:	02 01       	.word	0x0102;	????	
 b0a:	2a 06       	.word	0x062a;	????	
 b0c:	00 00       	.word	0x0000;	????	
 b0e:	0c c0       	bic	r0,	r12	
 b10:	10 c0 2f 62 	bic	25135(r0),r0	;PC rel. 0x6d41
 b14:	75 69       	addc.b	@r9+,	r5	
 b16:	6c 64       	addc.b	@r4,	r12	
 b18:	2f 62       	addc	#4,	r15	;r2 As==10
 b1a:	75 69       	addc.b	@r9+,	r5	
 b1c:	6c 64       	addc.b	@r4,	r12	
 b1e:	64 2f       	jc	$-310    	;abs 0x9e8
 b20:	67 63       	addc.b	#2,	r7	;r3 As==10
 b22:	63 2d       	jc	$+712    	;abs 0xdea
 b24:	6d 73       	subc.b	#2,	r13	;r3 As==10
 b26:	70 34       	jge	$+226    	;abs 0xc08
 b28:	33 30       	jn	$+104    	;abs 0xb90
 b2a:	2d 34       	jge	$+92     	;abs 0xb86
 b2c:	2e 36       	jge	$-930    	;abs 0x78a
 b2e:	2e 33       	jn	$-418    	;abs 0x98c
 b30:	7e 6d       	addc.b	@r13+,	r14	
 b32:	73 70       	.word	0x7073;	????	Illegal as 2-op instr
 b34:	67 63       	addc.b	#2,	r7	;r3 As==10
 b36:	63 2d       	jc	$+712    	;abs 0xdfe
 b38:	32 30       	jn	$+102    	;abs 0xb9e
 b3a:	31 32       	jn	$-924    	;abs 0x79e
 b3c:	30 34       	jge	$+98     	;abs 0xb9e
 b3e:	30 36       	jge	$-926    	;abs 0x7a0
 b40:	2f 2e       	jc	$-928    	;abs 0x7a0
 b42:	2f 67       	addc	@r7,	r15	
 b44:	63 63       	.word	0x6363;	????	Illegal as 2-op instr
 b46:	2d 34       	jge	$+92     	;abs 0xba2
 b48:	2e 36       	jge	$-930    	;abs 0x7a6
 b4a:	2e 33       	jn	$-418    	;abs 0x9a8
 b4c:	2f 67       	addc	@r7,	r15	
 b4e:	63 63       	.word	0x6363;	????	Illegal as 2-op instr
 b50:	2f 63       	addc	#2,	r15	;r3 As==10
 b52:	6f 6e       	addc.b	@r14,	r15	
 b54:	66 69       	addc.b	@r9,	r6	
 b56:	67 2f       	jc	$-304    	;abs 0xa26
 b58:	6d 73       	subc.b	#2,	r13	;r3 As==10
 b5a:	70 34       	jge	$+226    	;abs 0xc3c
 b5c:	33 30       	jn	$+104    	;abs 0xbc4
 b5e:	2f 63       	addc	#2,	r15	;r3 As==10
 b60:	72 74       	subc.b	@r4+,	r2	
 b62:	30 2e       	jc	$-926    	;abs 0x7c4
 b64:	53 00       	.word	0x0053;	????	
 b66:	2f 62       	addc	#4,	r15	;r2 As==10
 b68:	75 69       	addc.b	@r9+,	r5	
 b6a:	6c 64       	addc.b	@r4,	r12	
 b6c:	2f 62       	addc	#4,	r15	;r2 As==10
 b6e:	75 69       	addc.b	@r9+,	r5	
 b70:	6c 64       	addc.b	@r4,	r12	
 b72:	64 2f       	jc	$-310    	;abs 0xa3c
 b74:	67 63       	addc.b	#2,	r7	;r3 As==10
 b76:	63 2d       	jc	$+712    	;abs 0xe3e
 b78:	6d 73       	subc.b	#2,	r13	;r3 As==10
 b7a:	70 34       	jge	$+226    	;abs 0xc5c
 b7c:	33 30       	jn	$+104    	;abs 0xbe4
 b7e:	2d 34       	jge	$+92     	;abs 0xbda
 b80:	2e 36       	jge	$-930    	;abs 0x7de
 b82:	2e 33       	jn	$-418    	;abs 0x9e0
 b84:	7e 6d       	addc.b	@r13+,	r14	
 b86:	73 70       	.word	0x7073;	????	Illegal as 2-op instr
 b88:	67 63       	addc.b	#2,	r7	;r3 As==10
 b8a:	63 2d       	jc	$+712    	;abs 0xe52
 b8c:	32 30       	jn	$+102    	;abs 0xbf2
 b8e:	31 32       	jn	$-924    	;abs 0x7f2
 b90:	30 34       	jge	$+98     	;abs 0xbf2
 b92:	30 36       	jge	$-926    	;abs 0x7f4
 b94:	2f 62       	addc	#4,	r15	;r2 As==10
 b96:	75 69       	addc.b	@r9+,	r5	
 b98:	6c 64       	addc.b	@r4,	r12	
 b9a:	2d 72       	subc	#4,	r13	;r2 As==10
 b9c:	65 73       	subc.b	#2,	r5	;r3 As==10
 b9e:	75 6c       	addc.b	@r12+,	r5	
 ba0:	74 2f       	jc	$-278    	;abs 0xa8a
 ba2:	67 63       	addc.b	#2,	r7	;r3 As==10
 ba4:	63 00       	.word	0x0063;	????	
 ba6:	47 4e       	mov.b	r14,	r7	
 ba8:	55 20       	jnz	$+172    	;abs 0xc54
 baa:	41 53       	add.b	#0,	r1	;r3 As==00
 bac:	20 32       	jn	$-958    	;abs 0x7ee
 bae:	2e 32       	jn	$-930    	;abs 0x80c
 bb0:	31 2e       	jc	$-924    	;abs 0x814
 bb2:	31 00       	.word	0x0031;	????	
 bb4:	01 80       	sub	r0,	r1	
 bb6:	b4 00       	.word	0x00b4;	????	
 bb8:	00 00       	.word	0x0000;	????	
 bba:	02 00       	.word	0x0002;	????	
 bbc:	58 03       	.word	0x0358;	????	
 bbe:	00 00       	.word	0x0000;	????	
 bc0:	02 01       	.word	0x0102;	????	
 bc2:	ac 06       	.word	0x06ac;	????	
 bc4:	00 00       	.word	0x0000;	????	
 bc6:	10 c0 28 c0 	bic	-16344(r0),r0	;PC rel. 0xcbf0
 bca:	2f 62       	addc	#4,	r15	;r2 As==10
 bcc:	75 69       	addc.b	@r9+,	r5	
 bce:	6c 64       	addc.b	@r4,	r12	
 bd0:	2f 62       	addc	#4,	r15	;r2 As==10
 bd2:	75 69       	addc.b	@r9+,	r5	
 bd4:	6c 64       	addc.b	@r4,	r12	
 bd6:	64 2f       	jc	$-310    	;abs 0xaa0
 bd8:	67 63       	addc.b	#2,	r7	;r3 As==10
 bda:	63 2d       	jc	$+712    	;abs 0xea2
 bdc:	6d 73       	subc.b	#2,	r13	;r3 As==10
 bde:	70 34       	jge	$+226    	;abs 0xcc0
 be0:	33 30       	jn	$+104    	;abs 0xc48
 be2:	2d 34       	jge	$+92     	;abs 0xc3e
 be4:	2e 36       	jge	$-930    	;abs 0x842
 be6:	2e 33       	jn	$-418    	;abs 0xa44
 be8:	7e 6d       	addc.b	@r13+,	r14	
 bea:	73 70       	.word	0x7073;	????	Illegal as 2-op instr
 bec:	67 63       	addc.b	#2,	r7	;r3 As==10
 bee:	63 2d       	jc	$+712    	;abs 0xeb6
 bf0:	32 30       	jn	$+102    	;abs 0xc56
 bf2:	31 32       	jn	$-924    	;abs 0x856
 bf4:	30 34       	jge	$+98     	;abs 0xc56
 bf6:	30 36       	jge	$-926    	;abs 0x858
 bf8:	2f 2e       	jc	$-928    	;abs 0x858
 bfa:	2f 67       	addc	@r7,	r15	
 bfc:	63 63       	.word	0x6363;	????	Illegal as 2-op instr
 bfe:	2d 34       	jge	$+92     	;abs 0xc5a
 c00:	2e 36       	jge	$-930    	;abs 0x85e
 c02:	2e 33       	jn	$-418    	;abs 0xa60
 c04:	2f 67       	addc	@r7,	r15	
 c06:	63 63       	.word	0x6363;	????	Illegal as 2-op instr
 c08:	2f 63       	addc	#2,	r15	;r3 As==10
 c0a:	6f 6e       	addc.b	@r14,	r15	
 c0c:	66 69       	addc.b	@r9,	r6	
 c0e:	67 2f       	jc	$-304    	;abs 0xade
 c10:	6d 73       	subc.b	#2,	r13	;r3 As==10
 c12:	70 34       	jge	$+226    	;abs 0xcf4
 c14:	33 30       	jn	$+104    	;abs 0xc7c
 c16:	2f 63       	addc	#2,	r15	;r3 As==10
 c18:	72 74       	subc.b	@r4+,	r2	
 c1a:	30 2e       	jc	$-926    	;abs 0x87c
 c1c:	53 00       	.word	0x0053;	????	
 c1e:	2f 62       	addc	#4,	r15	;r2 As==10
 c20:	75 69       	addc.b	@r9+,	r5	
 c22:	6c 64       	addc.b	@r4,	r12	
 c24:	2f 62       	addc	#4,	r15	;r2 As==10
 c26:	75 69       	addc.b	@r9+,	r5	
 c28:	6c 64       	addc.b	@r4,	r12	
 c2a:	64 2f       	jc	$-310    	;abs 0xaf4
 c2c:	67 63       	addc.b	#2,	r7	;r3 As==10
 c2e:	63 2d       	jc	$+712    	;abs 0xef6
 c30:	6d 73       	subc.b	#2,	r13	;r3 As==10
 c32:	70 34       	jge	$+226    	;abs 0xd14
 c34:	33 30       	jn	$+104    	;abs 0xc9c
 c36:	2d 34       	jge	$+92     	;abs 0xc92
 c38:	2e 36       	jge	$-930    	;abs 0x896
 c3a:	2e 33       	jn	$-418    	;abs 0xa98
 c3c:	7e 6d       	addc.b	@r13+,	r14	
 c3e:	73 70       	.word	0x7073;	????	Illegal as 2-op instr
 c40:	67 63       	addc.b	#2,	r7	;r3 As==10
 c42:	63 2d       	jc	$+712    	;abs 0xf0a
 c44:	32 30       	jn	$+102    	;abs 0xcaa
 c46:	31 32       	jn	$-924    	;abs 0x8aa
 c48:	30 34       	jge	$+98     	;abs 0xcaa
 c4a:	30 36       	jge	$-926    	;abs 0x8ac
 c4c:	2f 62       	addc	#4,	r15	;r2 As==10
 c4e:	75 69       	addc.b	@r9+,	r5	
 c50:	6c 64       	addc.b	@r4,	r12	
 c52:	2d 72       	subc	#4,	r13	;r2 As==10
 c54:	65 73       	subc.b	#2,	r5	;r3 As==10
 c56:	75 6c       	addc.b	@r12+,	r5	
 c58:	74 2f       	jc	$-278    	;abs 0xb42
 c5a:	67 63       	addc.b	#2,	r7	;r3 As==10
 c5c:	63 00       	.word	0x0063;	????	
 c5e:	47 4e       	mov.b	r14,	r7	
 c60:	55 20       	jnz	$+172    	;abs 0xd0c
 c62:	41 53       	add.b	#0,	r1	;r3 As==00
 c64:	20 32       	jn	$-958    	;abs 0x8a6
 c66:	2e 32       	jn	$-930    	;abs 0x8c4
 c68:	31 2e       	jc	$-924    	;abs 0x8cc
 c6a:	31 00       	.word	0x0031;	????	
 c6c:	01 80       	sub	r0,	r1	
 c6e:	b4 00       	.word	0x00b4;	????	
 c70:	00 00       	.word	0x0000;	????	
 c72:	02 00       	.word	0x0002;	????	
 c74:	6c 03       	.word	0x036c;	????	
 c76:	00 00       	.word	0x0000;	????	
 c78:	02 01       	.word	0x0102;	????	
 c7a:	34 07       	.word	0x0734;	????	
 c7c:	00 00       	.word	0x0000;	????	
 c7e:	28 c0       	bic	@r0,	r8	
 c80:	3e c0 2f 62 	bic	#25135,	r14	;#0x622f
 c84:	75 69       	addc.b	@r9+,	r5	
 c86:	6c 64       	addc.b	@r4,	r12	
 c88:	2f 62       	addc	#4,	r15	;r2 As==10
 c8a:	75 69       	addc.b	@r9+,	r5	
 c8c:	6c 64       	addc.b	@r4,	r12	
 c8e:	64 2f       	jc	$-310    	;abs 0xb58
 c90:	67 63       	addc.b	#2,	r7	;r3 As==10
 c92:	63 2d       	jc	$+712    	;abs 0xf5a
 c94:	6d 73       	subc.b	#2,	r13	;r3 As==10
 c96:	70 34       	jge	$+226    	;abs 0xd78
 c98:	33 30       	jn	$+104    	;abs 0xd00
 c9a:	2d 34       	jge	$+92     	;abs 0xcf6
 c9c:	2e 36       	jge	$-930    	;abs 0x8fa
 c9e:	2e 33       	jn	$-418    	;abs 0xafc
 ca0:	7e 6d       	addc.b	@r13+,	r14	
 ca2:	73 70       	.word	0x7073;	????	Illegal as 2-op instr
 ca4:	67 63       	addc.b	#2,	r7	;r3 As==10
 ca6:	63 2d       	jc	$+712    	;abs 0xf6e
 ca8:	32 30       	jn	$+102    	;abs 0xd0e
 caa:	31 32       	jn	$-924    	;abs 0x90e
 cac:	30 34       	jge	$+98     	;abs 0xd0e
 cae:	30 36       	jge	$-926    	;abs 0x910
 cb0:	2f 2e       	jc	$-928    	;abs 0x910
 cb2:	2f 67       	addc	@r7,	r15	
 cb4:	63 63       	.word	0x6363;	????	Illegal as 2-op instr
 cb6:	2d 34       	jge	$+92     	;abs 0xd12
 cb8:	2e 36       	jge	$-930    	;abs 0x916
 cba:	2e 33       	jn	$-418    	;abs 0xb18
 cbc:	2f 67       	addc	@r7,	r15	
 cbe:	63 63       	.word	0x6363;	????	Illegal as 2-op instr
 cc0:	2f 63       	addc	#2,	r15	;r3 As==10
 cc2:	6f 6e       	addc.b	@r14,	r15	
 cc4:	66 69       	addc.b	@r9,	r6	
 cc6:	67 2f       	jc	$-304    	;abs 0xb96
 cc8:	6d 73       	subc.b	#2,	r13	;r3 As==10
 cca:	70 34       	jge	$+226    	;abs 0xdac
 ccc:	33 30       	jn	$+104    	;abs 0xd34
 cce:	2f 63       	addc	#2,	r15	;r3 As==10
 cd0:	72 74       	subc.b	@r4+,	r2	
 cd2:	30 2e       	jc	$-926    	;abs 0x934
 cd4:	53 00       	.word	0x0053;	????	
 cd6:	2f 62       	addc	#4,	r15	;r2 As==10
 cd8:	75 69       	addc.b	@r9+,	r5	
 cda:	6c 64       	addc.b	@r4,	r12	
 cdc:	2f 62       	addc	#4,	r15	;r2 As==10
 cde:	75 69       	addc.b	@r9+,	r5	
 ce0:	6c 64       	addc.b	@r4,	r12	
 ce2:	64 2f       	jc	$-310    	;abs 0xbac
 ce4:	67 63       	addc.b	#2,	r7	;r3 As==10
 ce6:	63 2d       	jc	$+712    	;abs 0xfae
 ce8:	6d 73       	subc.b	#2,	r13	;r3 As==10
 cea:	70 34       	jge	$+226    	;abs 0xdcc
 cec:	33 30       	jn	$+104    	;abs 0xd54
 cee:	2d 34       	jge	$+92     	;abs 0xd4a
 cf0:	2e 36       	jge	$-930    	;abs 0x94e
 cf2:	2e 33       	jn	$-418    	;abs 0xb50
 cf4:	7e 6d       	addc.b	@r13+,	r14	
 cf6:	73 70       	.word	0x7073;	????	Illegal as 2-op instr
 cf8:	67 63       	addc.b	#2,	r7	;r3 As==10
 cfa:	63 2d       	jc	$+712    	;abs 0xfc2
 cfc:	32 30       	jn	$+102    	;abs 0xd62
 cfe:	31 32       	jn	$-924    	;abs 0x962
 d00:	30 34       	jge	$+98     	;abs 0xd62
 d02:	30 36       	jge	$-926    	;abs 0x964
 d04:	2f 62       	addc	#4,	r15	;r2 As==10
 d06:	75 69       	addc.b	@r9+,	r5	
 d08:	6c 64       	addc.b	@r4,	r12	
 d0a:	2d 72       	subc	#4,	r13	;r2 As==10
 d0c:	65 73       	subc.b	#2,	r5	;r3 As==10
 d0e:	75 6c       	addc.b	@r12+,	r5	
 d10:	74 2f       	jc	$-278    	;abs 0xbfa
 d12:	67 63       	addc.b	#2,	r7	;r3 As==10
 d14:	63 00       	.word	0x0063;	????	
 d16:	47 4e       	mov.b	r14,	r7	
 d18:	55 20       	jnz	$+172    	;abs 0xdc4
 d1a:	41 53       	add.b	#0,	r1	;r3 As==00
 d1c:	20 32       	jn	$-958    	;abs 0x95e
 d1e:	2e 32       	jn	$-930    	;abs 0x97c
 d20:	31 2e       	jc	$-924    	;abs 0x984
 d22:	31 00       	.word	0x0031;	????	
 d24:	01 80       	sub	r0,	r1	
 d26:	b4 00       	.word	0x00b4;	????	
 d28:	00 00       	.word	0x0000;	????	
 d2a:	02 00       	.word	0x0002;	????	
 d2c:	80 03       	.word	0x0380;	????	
 d2e:	00 00       	.word	0x0000;	????	
 d30:	02 01       	.word	0x0102;	????	
 d32:	bc 07       	.word	0x07bc;	????	
 d34:	00 00       	.word	0x0000;	????	
 d36:	dc c0 e2 c0 	bic.b	-16158(r0),25135(r12);PC rel. 0xce1a, 0x622f(r12)
 d3a:	2f 62 
 d3c:	75 69       	addc.b	@r9+,	r5	
 d3e:	6c 64       	addc.b	@r4,	r12	
 d40:	2f 62       	addc	#4,	r15	;r2 As==10
 d42:	75 69       	addc.b	@r9+,	r5	
 d44:	6c 64       	addc.b	@r4,	r12	
 d46:	64 2f       	jc	$-310    	;abs 0xc10
 d48:	67 63       	addc.b	#2,	r7	;r3 As==10
 d4a:	63 2d       	jc	$+712    	;abs 0x1012
 d4c:	6d 73       	subc.b	#2,	r13	;r3 As==10
 d4e:	70 34       	jge	$+226    	;abs 0xe30
 d50:	33 30       	jn	$+104    	;abs 0xdb8
 d52:	2d 34       	jge	$+92     	;abs 0xdae
 d54:	2e 36       	jge	$-930    	;abs 0x9b2
 d56:	2e 33       	jn	$-418    	;abs 0xbb4
 d58:	7e 6d       	addc.b	@r13+,	r14	
 d5a:	73 70       	.word	0x7073;	????	Illegal as 2-op instr
 d5c:	67 63       	addc.b	#2,	r7	;r3 As==10
 d5e:	63 2d       	jc	$+712    	;abs 0x1026
 d60:	32 30       	jn	$+102    	;abs 0xdc6
 d62:	31 32       	jn	$-924    	;abs 0x9c6
 d64:	30 34       	jge	$+98     	;abs 0xdc6
 d66:	30 36       	jge	$-926    	;abs 0x9c8
 d68:	2f 2e       	jc	$-928    	;abs 0x9c8
 d6a:	2f 67       	addc	@r7,	r15	
 d6c:	63 63       	.word	0x6363;	????	Illegal as 2-op instr
 d6e:	2d 34       	jge	$+92     	;abs 0xdca
 d70:	2e 36       	jge	$-930    	;abs 0x9ce
 d72:	2e 33       	jn	$-418    	;abs 0xbd0
 d74:	2f 67       	addc	@r7,	r15	
 d76:	63 63       	.word	0x6363;	????	Illegal as 2-op instr
 d78:	2f 63       	addc	#2,	r15	;r3 As==10
 d7a:	6f 6e       	addc.b	@r14,	r15	
 d7c:	66 69       	addc.b	@r9,	r6	
 d7e:	67 2f       	jc	$-304    	;abs 0xc4e
 d80:	6d 73       	subc.b	#2,	r13	;r3 As==10
 d82:	70 34       	jge	$+226    	;abs 0xe64
 d84:	33 30       	jn	$+104    	;abs 0xdec
 d86:	2f 63       	addc	#2,	r15	;r3 As==10
 d88:	72 74       	subc.b	@r4+,	r2	
 d8a:	30 2e       	jc	$-926    	;abs 0x9ec
 d8c:	53 00       	.word	0x0053;	????	
 d8e:	2f 62       	addc	#4,	r15	;r2 As==10
 d90:	75 69       	addc.b	@r9+,	r5	
 d92:	6c 64       	addc.b	@r4,	r12	
 d94:	2f 62       	addc	#4,	r15	;r2 As==10
 d96:	75 69       	addc.b	@r9+,	r5	
 d98:	6c 64       	addc.b	@r4,	r12	
 d9a:	64 2f       	jc	$-310    	;abs 0xc64
 d9c:	67 63       	addc.b	#2,	r7	;r3 As==10
 d9e:	63 2d       	jc	$+712    	;abs 0x1066
 da0:	6d 73       	subc.b	#2,	r13	;r3 As==10
 da2:	70 34       	jge	$+226    	;abs 0xe84
 da4:	33 30       	jn	$+104    	;abs 0xe0c
 da6:	2d 34       	jge	$+92     	;abs 0xe02
 da8:	2e 36       	jge	$-930    	;abs 0xa06
 daa:	2e 33       	jn	$-418    	;abs 0xc08
 dac:	7e 6d       	addc.b	@r13+,	r14	
 dae:	73 70       	.word	0x7073;	????	Illegal as 2-op instr
 db0:	67 63       	addc.b	#2,	r7	;r3 As==10
 db2:	63 2d       	jc	$+712    	;abs 0x107a
 db4:	32 30       	jn	$+102    	;abs 0xe1a
 db6:	31 32       	jn	$-924    	;abs 0xa1a
 db8:	30 34       	jge	$+98     	;abs 0xe1a
 dba:	30 36       	jge	$-926    	;abs 0xa1c
 dbc:	2f 62       	addc	#4,	r15	;r2 As==10
 dbe:	75 69       	addc.b	@r9+,	r5	
 dc0:	6c 64       	addc.b	@r4,	r12	
 dc2:	2d 72       	subc	#4,	r13	;r2 As==10
 dc4:	65 73       	subc.b	#2,	r5	;r3 As==10
 dc6:	75 6c       	addc.b	@r12+,	r5	
 dc8:	74 2f       	jc	$-278    	;abs 0xcb2
 dca:	67 63       	addc.b	#2,	r7	;r3 As==10
 dcc:	63 00       	.word	0x0063;	????	
 dce:	47 4e       	mov.b	r14,	r7	
 dd0:	55 20       	jnz	$+172    	;abs 0xe7c
 dd2:	41 53       	add.b	#0,	r1	;r3 As==00
 dd4:	20 32       	jn	$-958    	;abs 0xa16
 dd6:	2e 32       	jn	$-930    	;abs 0xa34
 dd8:	31 2e       	jc	$-924    	;abs 0xa3c
 dda:	31 00       	.word	0x0031;	????	
 ddc:	01 80       	sub	r0,	r1	
 dde:	b4 00       	.word	0x00b4;	????	
 de0:	00 00       	.word	0x0000;	????	
 de2:	02 00       	.word	0x0002;	????	
 de4:	94 03       	.word	0x0394;	????	
 de6:	00 00       	.word	0x0000;	????	
 de8:	02 01       	.word	0x0102;	????	
 dea:	3f 08       	.word	0x083f;	????	
 dec:	00 00       	.word	0x0000;	????	
 dee:	8e d3 90 d3 	bis	#0,	-11376(r14);r3 As==00, 0xd390(r14)
 df2:	2f 62       	addc	#4,	r15	;r2 As==10
 df4:	75 69       	addc.b	@r9+,	r5	
 df6:	6c 64       	addc.b	@r4,	r12	
 df8:	2f 62       	addc	#4,	r15	;r2 As==10
 dfa:	75 69       	addc.b	@r9+,	r5	
 dfc:	6c 64       	addc.b	@r4,	r12	
 dfe:	64 2f       	jc	$-310    	;abs 0xcc8
 e00:	67 63       	addc.b	#2,	r7	;r3 As==10
 e02:	63 2d       	jc	$+712    	;abs 0x10ca
 e04:	6d 73       	subc.b	#2,	r13	;r3 As==10
 e06:	70 34       	jge	$+226    	;abs 0xee8
 e08:	33 30       	jn	$+104    	;abs 0xe70
 e0a:	2d 34       	jge	$+92     	;abs 0xe66
 e0c:	2e 36       	jge	$-930    	;abs 0xa6a
 e0e:	2e 33       	jn	$-418    	;abs 0xc6c
 e10:	7e 6d       	addc.b	@r13+,	r14	
 e12:	73 70       	.word	0x7073;	????	Illegal as 2-op instr
 e14:	67 63       	addc.b	#2,	r7	;r3 As==10
 e16:	63 2d       	jc	$+712    	;abs 0x10de
 e18:	32 30       	jn	$+102    	;abs 0xe7e
 e1a:	31 32       	jn	$-924    	;abs 0xa7e
 e1c:	30 34       	jge	$+98     	;abs 0xe7e
 e1e:	30 36       	jge	$-926    	;abs 0xa80
 e20:	2f 2e       	jc	$-928    	;abs 0xa80
 e22:	2f 67       	addc	@r7,	r15	
 e24:	63 63       	.word	0x6363;	????	Illegal as 2-op instr
 e26:	2d 34       	jge	$+92     	;abs 0xe82
 e28:	2e 36       	jge	$-930    	;abs 0xa86
 e2a:	2e 33       	jn	$-418    	;abs 0xc88
 e2c:	2f 67       	addc	@r7,	r15	
 e2e:	63 63       	.word	0x6363;	????	Illegal as 2-op instr
 e30:	2f 63       	addc	#2,	r15	;r3 As==10
 e32:	6f 6e       	addc.b	@r14,	r15	
 e34:	66 69       	addc.b	@r9,	r6	
 e36:	67 2f       	jc	$-304    	;abs 0xd06
 e38:	6d 73       	subc.b	#2,	r13	;r3 As==10
 e3a:	70 34       	jge	$+226    	;abs 0xf1c
 e3c:	33 30       	jn	$+104    	;abs 0xea4
 e3e:	2f 63       	addc	#2,	r15	;r3 As==10
 e40:	72 74       	subc.b	@r4+,	r2	
 e42:	30 2e       	jc	$-926    	;abs 0xaa4
 e44:	53 00       	.word	0x0053;	????	
 e46:	2f 62       	addc	#4,	r15	;r2 As==10
 e48:	75 69       	addc.b	@r9+,	r5	
 e4a:	6c 64       	addc.b	@r4,	r12	
 e4c:	2f 62       	addc	#4,	r15	;r2 As==10
 e4e:	75 69       	addc.b	@r9+,	r5	
 e50:	6c 64       	addc.b	@r4,	r12	
 e52:	64 2f       	jc	$-310    	;abs 0xd1c
 e54:	67 63       	addc.b	#2,	r7	;r3 As==10
 e56:	63 2d       	jc	$+712    	;abs 0x111e
 e58:	6d 73       	subc.b	#2,	r13	;r3 As==10
 e5a:	70 34       	jge	$+226    	;abs 0xf3c
 e5c:	33 30       	jn	$+104    	;abs 0xec4
 e5e:	2d 34       	jge	$+92     	;abs 0xeba
 e60:	2e 36       	jge	$-930    	;abs 0xabe
 e62:	2e 33       	jn	$-418    	;abs 0xcc0
 e64:	7e 6d       	addc.b	@r13+,	r14	
 e66:	73 70       	.word	0x7073;	????	Illegal as 2-op instr
 e68:	67 63       	addc.b	#2,	r7	;r3 As==10
 e6a:	63 2d       	jc	$+712    	;abs 0x1132
 e6c:	32 30       	jn	$+102    	;abs 0xed2
 e6e:	31 32       	jn	$-924    	;abs 0xad2
 e70:	30 34       	jge	$+98     	;abs 0xed2
 e72:	30 36       	jge	$-926    	;abs 0xad4
 e74:	2f 62       	addc	#4,	r15	;r2 As==10
 e76:	75 69       	addc.b	@r9+,	r5	
 e78:	6c 64       	addc.b	@r4,	r12	
 e7a:	2d 72       	subc	#4,	r13	;r2 As==10
 e7c:	65 73       	subc.b	#2,	r5	;r3 As==10
 e7e:	75 6c       	addc.b	@r12+,	r5	
 e80:	74 2f       	jc	$-278    	;abs 0xd6a
 e82:	67 63       	addc.b	#2,	r7	;r3 As==10
 e84:	63 00       	.word	0x0063;	????	
 e86:	47 4e       	mov.b	r14,	r7	
 e88:	55 20       	jnz	$+172    	;abs 0xf34
 e8a:	41 53       	add.b	#0,	r1	;r3 As==00
 e8c:	20 32       	jn	$-958    	;abs 0xace
 e8e:	2e 32       	jn	$-930    	;abs 0xaec
 e90:	31 2e       	jc	$-924    	;abs 0xaf4
 e92:	31 00       	.word	0x0031;	????	
 e94:	01 80       	sub	r0,	r1	

Disassembly of section .debug_abbrev:

00000000 <.debug_abbrev>:
   0:	01 11       	rra	r1		
   2:	00 10       	rrc	r0		
   4:	06 11       	rra	r6		
   6:	01 12       	push	r1		
   8:	01 03       	.word	0x0301;	????	
   a:	08 1b       	.word	0x1b08;	????	
   c:	08 25       	jz	$+530    	;abs 0x21e
   e:	08 13       	reti			;return from interupt
  10:	05 00       	.word	0x0005;	????	
  12:	00 00       	.word	0x0000;	????	
  14:	01 11       	rra	r1		
  16:	01 25       	jz	$+516    	;abs 0x21a
  18:	0e 13       	reti			;return from interupt
  1a:	0b 03       	.word	0x030b;	????	
  1c:	0e 1b       	.word	0x1b0e;	????	
  1e:	0e 11       	rra	r14		
  20:	01 12       	push	r1		
  22:	01 10       	rrc	r1		
  24:	06 00       	.word	0x0006;	????	
  26:	00 02       	.word	0x0200;	????	
  28:	24 00       	.word	0x0024;	????	
  2a:	0b 0b       	.word	0x0b0b;	????	
  2c:	3e 0b       	.word	0x0b3e;	????	
  2e:	03 0e       	.word	0x0e03;	????	
  30:	00 00       	.word	0x0000;	????	
  32:	03 16       	.word	0x1603;	????	
  34:	00 03       	.word	0x0300;	????	
  36:	0e 3a       	jl	$-994    	;abs 0xfc54
  38:	0b 3b       	jl	$-488    	;abs 0xfe50
  3a:	0b 49       	mov	r9,	r11	
  3c:	13 00       	.word	0x0013;	????	
  3e:	00 04       	.word	0x0400;	????	
  40:	24 00       	.word	0x0024;	????	
  42:	0b 0b       	.word	0x0b0b;	????	
  44:	3e 0b       	.word	0x0b3e;	????	
  46:	03 08       	.word	0x0803;	????	
  48:	00 00       	.word	0x0000;	????	
  4a:	05 0f       	.word	0x0f05;	????	
  4c:	00 0b       	.word	0x0b00;	????	
  4e:	0b 49       	mov	r9,	r11	
  50:	13 00       	.word	0x0013;	????	
  52:	00 06       	.word	0x0600;	????	
  54:	26 00       	.word	0x0026;	????	
  56:	49 13       	.word	0x1349;	????	
  58:	00 00       	.word	0x0000;	????	
  5a:	07 0f       	.word	0x0f07;	????	
  5c:	00 0b       	.word	0x0b00;	????	
  5e:	0b 03       	.word	0x030b;	????	
  60:	0e 00       	.word	0x000e;	????	
  62:	00 08       	.word	0x0800;	????	
  64:	2e 01       	.word	0x012e;	????	
  66:	03 0e       	.word	0x0e03;	????	
  68:	3a 0b       	.word	0x0b3a;	????	
  6a:	3b 0b       	.word	0x0b3b;	????	
  6c:	27 0c       	.word	0x0c27;	????	
  6e:	49 13       	.word	0x1349;	????	
  70:	11 01       	.word	0x0111;	????	
  72:	12 01       	.word	0x0112;	????	
  74:	40 0a       	.word	0x0a40;	????	
  76:	01 13       	reti			;return from interupt
  78:	00 00       	.word	0x0000;	????	
  7a:	09 05       	.word	0x0509;	????	
  7c:	00 03       	.word	0x0300;	????	
  7e:	08 3a       	jl	$-1006   	;abs 0xfc90
  80:	0b 3b       	jl	$-488    	;abs 0xfe98
  82:	0b 49       	mov	r9,	r11	
  84:	13 02       	.word	0x0213;	????	
  86:	06 00       	.word	0x0006;	????	
  88:	00 0a       	.word	0x0a00;	????	
  8a:	2e 01       	.word	0x012e;	????	
  8c:	03 0e       	.word	0x0e03;	????	
  8e:	3a 0b       	.word	0x0b3a;	????	
  90:	3b 0b       	.word	0x0b3b;	????	
  92:	27 0c       	.word	0x0c27;	????	
  94:	49 13       	.word	0x1349;	????	
  96:	11 01       	.word	0x0111;	????	
  98:	12 01       	.word	0x0112;	????	
  9a:	40 06       	.word	0x0640;	????	
  9c:	01 13       	reti			;return from interupt
  9e:	00 00       	.word	0x0000;	????	
  a0:	0b 05       	.word	0x050b;	????	
  a2:	00 03       	.word	0x0300;	????	
  a4:	0e 3a       	jl	$-994    	;abs 0xfcc2
  a6:	0b 3b       	jl	$-488    	;abs 0xfebe
  a8:	0b 49       	mov	r9,	r11	
  aa:	13 02       	.word	0x0213;	????	
  ac:	06 00       	.word	0x0006;	????	
  ae:	00 0c       	.word	0x0c00;	????	
  b0:	34 00       	.word	0x0034;	????	
  b2:	03 0e       	.word	0x0e03;	????	
  b4:	3a 0b       	.word	0x0b3a;	????	
  b6:	3b 0b       	.word	0x0b3b;	????	
  b8:	49 13       	.word	0x1349;	????	
  ba:	02 06       	.word	0x0602;	????	
  bc:	00 00       	.word	0x0000;	????	
  be:	0d 34       	jge	$+28     	;abs 0xda
  c0:	00 03       	.word	0x0300;	????	
  c2:	08 3a       	jl	$-1006   	;abs 0xfcd4
  c4:	0b 3b       	jl	$-488    	;abs 0xfedc
  c6:	0b 49       	mov	r9,	r11	
  c8:	13 02       	.word	0x0213;	????	
  ca:	0a 00       	.word	0x000a;	????	
  cc:	00 0e       	.word	0x0e00;	????	
  ce:	2e 01       	.word	0x012e;	????	
  d0:	3f 0c       	.word	0x0c3f;	????	
  d2:	03 0e       	.word	0x0e03;	????	
  d4:	3a 0b       	.word	0x0b3a;	????	
  d6:	3b 0b       	.word	0x0b3b;	????	
  d8:	27 0c       	.word	0x0c27;	????	
  da:	49 13       	.word	0x1349;	????	
  dc:	11 01       	.word	0x0111;	????	
  de:	12 01       	.word	0x0112;	????	
  e0:	40 0a       	.word	0x0a40;	????	
  e2:	01 13       	reti			;return from interupt
  e4:	00 00       	.word	0x0000;	????	
  e6:	0f 05       	.word	0x050f;	????	
  e8:	00 03       	.word	0x0300;	????	
  ea:	08 3a       	jl	$-1006   	;abs 0xfcfc
  ec:	0b 3b       	jl	$-488    	;abs 0xff04
  ee:	0b 49       	mov	r9,	r11	
  f0:	13 02       	.word	0x0213;	????	
  f2:	0a 00       	.word	0x000a;	????	
  f4:	00 10       	rrc	r0		
  f6:	18 00       	.word	0x0018;	????	
  f8:	00 00       	.word	0x0000;	????	
  fa:	11 34       	jge	$+36     	;abs 0x11e
  fc:	00 03       	.word	0x0300;	????	
  fe:	0e 3a       	jl	$-994    	;abs 0xfd1c
 100:	0b 3b       	jl	$-488    	;abs 0xff18
 102:	0b 49       	mov	r9,	r11	
 104:	13 02       	.word	0x0213;	????	
 106:	0a 00       	.word	0x000a;	????	
 108:	00 12       	push	r0		
 10a:	05 00       	.word	0x0005;	????	
 10c:	03 0e       	.word	0x0e03;	????	
 10e:	3a 0b       	.word	0x0b3a;	????	
 110:	3b 0b       	.word	0x0b3b;	????	
 112:	49 13       	.word	0x1349;	????	
 114:	02 0a       	.word	0x0a02;	????	
 116:	00 00       	.word	0x0000;	????	
 118:	00 01       	.word	0x0100;	????	
 11a:	11 01       	.word	0x0111;	????	
 11c:	25 0e       	.word	0x0e25;	????	
 11e:	13 0b       	.word	0x0b13;	????	
 120:	03 0e       	.word	0x0e03;	????	
 122:	1b 0e       	.word	0x0e1b;	????	
 124:	11 01       	.word	0x0111;	????	
 126:	12 01       	.word	0x0112;	????	
 128:	10 06       	.word	0x0610;	????	
 12a:	00 00       	.word	0x0000;	????	
 12c:	02 24       	jz	$+6      	;abs 0x132
 12e:	00 0b       	.word	0x0b00;	????	
 130:	0b 3e       	jmp	$-1000   	;abs 0xfd48
 132:	0b 03       	.word	0x030b;	????	
 134:	0e 00       	.word	0x000e;	????	
 136:	00 03       	.word	0x0300;	????	
 138:	24 00       	.word	0x0024;	????	
 13a:	0b 0b       	.word	0x0b0b;	????	
 13c:	3e 0b       	.word	0x0b3e;	????	
 13e:	03 08       	.word	0x0803;	????	
 140:	00 00       	.word	0x0000;	????	
 142:	04 16       	.word	0x1604;	????	
 144:	00 03       	.word	0x0300;	????	
 146:	0e 3a       	jl	$-994    	;abs 0xfd64
 148:	0b 3b       	jl	$-488    	;abs 0xff60
 14a:	0b 49       	mov	r9,	r11	
 14c:	13 00       	.word	0x0013;	????	
 14e:	00 05       	.word	0x0500;	????	
 150:	0f 00       	.word	0x000f;	????	
 152:	0b 0b       	.word	0x0b0b;	????	
 154:	49 13       	.word	0x1349;	????	
 156:	00 00       	.word	0x0000;	????	
 158:	06 26       	jz	$-1010   	;abs 0xfd66
 15a:	00 49       	br	r9		
 15c:	13 00       	.word	0x0013;	????	
 15e:	00 07       	.word	0x0700;	????	
 160:	0f 00       	.word	0x000f;	????	
 162:	0b 0b       	.word	0x0b0b;	????	
 164:	03 0e       	.word	0x0e03;	????	
 166:	00 00       	.word	0x0000;	????	
 168:	08 13       	reti			;return from interupt
 16a:	01 0b       	.word	0x0b01;	????	
 16c:	0b 3a       	jl	$-1000   	;abs 0xfd84
 16e:	0b 3b       	jl	$-488    	;abs 0xff86
 170:	0b 01       	.word	0x010b;	????	
 172:	13 00       	.word	0x0013;	????	
 174:	00 09       	.word	0x0900;	????	
 176:	0d 00       	.word	0x000d;	????	
 178:	03 0e       	.word	0x0e03;	????	
 17a:	3a 0b       	.word	0x0b3a;	????	
 17c:	3b 0b       	.word	0x0b3b;	????	
 17e:	49 13       	.word	0x1349;	????	
 180:	0b 0b       	.word	0x0b0b;	????	
 182:	0d 0b       	.word	0x0b0d;	????	
 184:	0c 0b       	.word	0x0b0c;	????	
 186:	38 0a       	.word	0x0a38;	????	
 188:	00 00       	.word	0x0000;	????	
 18a:	0a 0d       	.word	0x0d0a;	????	
 18c:	00 03       	.word	0x0300;	????	
 18e:	0e 3a       	jl	$-994    	;abs 0xfdac
 190:	0b 3b       	jl	$-488    	;abs 0xffa8
 192:	0b 49       	mov	r9,	r11	
 194:	13 38       	jl	$+40     	;abs 0x1bc
 196:	0a 00       	.word	0x000a;	????	
 198:	00 0b       	.word	0x0b00;	????	
 19a:	2e 01       	.word	0x012e;	????	
 19c:	03 0e       	.word	0x0e03;	????	
 19e:	3a 0b       	.word	0x0b3a;	????	
 1a0:	3b 0b       	.word	0x0b3b;	????	
 1a2:	27 0c       	.word	0x0c27;	????	
 1a4:	49 13       	.word	0x1349;	????	
 1a6:	20 0b       	.word	0x0b20;	????	
 1a8:	01 13       	reti			;return from interupt
 1aa:	00 00       	.word	0x0000;	????	
 1ac:	0c 05       	.word	0x050c;	????	
 1ae:	00 03       	.word	0x0300;	????	
 1b0:	0e 3a       	jl	$-994    	;abs 0xfdce
 1b2:	0b 3b       	jl	$-488    	;abs 0xffca
 1b4:	0b 49       	mov	r9,	r11	
 1b6:	13 00       	.word	0x0013;	????	
 1b8:	00 0d       	.word	0x0d00;	????	
 1ba:	34 00       	.word	0x0034;	????	
 1bc:	03 08       	.word	0x0803;	????	
 1be:	3a 0b       	.word	0x0b3a;	????	
 1c0:	3b 0b       	.word	0x0b3b;	????	
 1c2:	49 13       	.word	0x1349;	????	
 1c4:	00 00       	.word	0x0000;	????	
 1c6:	0e 2e       	jc	$-994    	;abs 0xfde4
 1c8:	01 03       	.word	0x0301;	????	
 1ca:	0e 3a       	jl	$-994    	;abs 0xfde8
 1cc:	0b 3b       	jl	$-488    	;abs 0xffe4
 1ce:	0b 27       	jz	$-488    	;abs 0xffe6
 1d0:	0c 49       	mov	r9,	r12	
 1d2:	13 11       	rra	#1		;r3 As==01
 1d4:	01 12       	push	r1		
 1d6:	01 40       	mov	r0,	r1	
 1d8:	06 01       	.word	0x0106;	????	
 1da:	13 00       	.word	0x0013;	????	
 1dc:	00 0f       	.word	0x0f00;	????	
 1de:	05 00       	.word	0x0005;	????	
 1e0:	03 0e       	.word	0x0e03;	????	
 1e2:	3a 0b       	.word	0x0b3a;	????	
 1e4:	3b 0b       	.word	0x0b3b;	????	
 1e6:	49 13       	.word	0x1349;	????	
 1e8:	02 06       	.word	0x0602;	????	
 1ea:	00 00       	.word	0x0000;	????	
 1ec:	10 34       	jge	$+34     	;abs 0x20e
 1ee:	00 03       	.word	0x0300;	????	
 1f0:	0e 3a       	jl	$-994    	;abs 0xfe0e
 1f2:	0b 3b       	jl	$-488    	;abs 0xa
 1f4:	0b 49       	mov	r9,	r11	
 1f6:	13 02       	.word	0x0213;	????	
 1f8:	06 00       	.word	0x0006;	????	
 1fa:	00 11       	rra	r0		
 1fc:	34 00       	.word	0x0034;	????	
 1fe:	03 0e       	.word	0x0e03;	????	
 200:	3a 0b       	.word	0x0b3a;	????	
 202:	3b 0b       	.word	0x0b3b;	????	
 204:	49 13       	.word	0x1349;	????	
 206:	02 0a       	.word	0x0a02;	????	
 208:	00 00       	.word	0x0000;	????	
 20a:	12 1d       	.word	0x1d12;	????	
 20c:	01 31       	jn	$+516    	;abs 0x410
 20e:	13 11       	rra	#1		;r3 As==01
 210:	01 12       	push	r1		
 212:	01 58       	add	r8,	r1	
 214:	0b 59       	add	r9,	r11	
 216:	0b 01       	.word	0x010b;	????	
 218:	13 00       	.word	0x0013;	????	
 21a:	00 13       	reti			
 21c:	05 00       	.word	0x0005;	????	
 21e:	31 13       	reti			;return from interupt
 220:	02 06       	.word	0x0602;	????	
 222:	00 00       	.word	0x0000;	????	
 224:	14 0b       	.word	0x0b14;	????	
 226:	01 11       	rra	r1		
 228:	01 12       	push	r1		
 22a:	01 00       	.word	0x0001;	????	
 22c:	00 15       	.word	0x1500;	????	
 22e:	34 00       	.word	0x0034;	????	
 230:	31 13       	reti			;return from interupt
 232:	02 06       	.word	0x0602;	????	
 234:	00 00       	.word	0x0000;	????	
 236:	16 34       	jge	$+46     	;abs 0x264
 238:	00 03       	.word	0x0300;	????	
 23a:	08 3a       	jl	$-1006   	;abs 0xfe4c
 23c:	0b 3b       	jl	$-488    	;abs 0x54
 23e:	0b 49       	mov	r9,	r11	
 240:	13 02       	.word	0x0213;	????	
 242:	06 00       	.word	0x0006;	????	
 244:	00 17       	.word	0x1700;	????	
 246:	15 01       	.word	0x0115;	????	
 248:	27 0c       	.word	0x0c27;	????	
 24a:	49 13       	.word	0x1349;	????	
 24c:	01 13       	reti			;return from interupt
 24e:	00 00       	.word	0x0000;	????	
 250:	18 05       	.word	0x0518;	????	
 252:	00 49       	br	r9		
 254:	13 00       	.word	0x0013;	????	
 256:	00 19       	.word	0x1900;	????	
 258:	01 01       	.word	0x0101;	????	
 25a:	49 13       	.word	0x1349;	????	
 25c:	01 13       	reti			;return from interupt
 25e:	00 00       	.word	0x0000;	????	
 260:	1a 21       	jnz	$+566    	;abs 0x496
 262:	00 49       	br	r9		
 264:	13 2f       	jc	$-472    	;abs 0x8c
 266:	0b 00       	.word	0x000b;	????	
 268:	00 1b       	.word	0x1b00;	????	
 26a:	2e 01       	.word	0x012e;	????	
 26c:	3f 0c       	.word	0x0c3f;	????	
 26e:	03 0e       	.word	0x0e03;	????	
 270:	3a 0b       	.word	0x0b3a;	????	
 272:	3b 0b       	.word	0x0b3b;	????	
 274:	27 0c       	.word	0x0c27;	????	
 276:	49 13       	.word	0x1349;	????	
 278:	11 01       	.word	0x0111;	????	
 27a:	12 01       	.word	0x0112;	????	
 27c:	40 06       	.word	0x0640;	????	
 27e:	01 13       	reti			;return from interupt
 280:	00 00       	.word	0x0000;	????	
 282:	1c 04       	.word	0x041c;	????	
 284:	01 0b       	.word	0x0b01;	????	
 286:	0b 3a       	jl	$-1000   	;abs 0xfe9e
 288:	0b 3b       	jl	$-488    	;abs 0xa0
 28a:	0b 01       	.word	0x010b;	????	
 28c:	13 00       	.word	0x0013;	????	
 28e:	00 1d       	.word	0x1d00;	????	
 290:	28 00       	.word	0x0028;	????	
 292:	03 0e       	.word	0x0e03;	????	
 294:	1c 0d       	.word	0x0d1c;	????	
 296:	00 00       	.word	0x0000;	????	
 298:	1e 34       	jge	$+62     	;abs 0x2d6
 29a:	00 03       	.word	0x0300;	????	
 29c:	0e 3a       	jl	$-994    	;abs 0xfeba
 29e:	0b 3b       	jl	$-488    	;abs 0xb6
 2a0:	05 49       	mov	r9,	r5	
 2a2:	13 02       	.word	0x0213;	????	
 2a4:	0a 00       	.word	0x000a;	????	
 2a6:	00 1f       	.word	0x1f00;	????	
 2a8:	34 00       	.word	0x0034;	????	
 2aa:	03 0e       	.word	0x0e03;	????	
 2ac:	3a 0b       	.word	0x0b3a;	????	
 2ae:	3b 05       	.word	0x053b;	????	
 2b0:	49 13       	.word	0x1349;	????	
 2b2:	02 06       	.word	0x0602;	????	
 2b4:	00 00       	.word	0x0000;	????	
 2b6:	20 17       	.word	0x1720;	????	
 2b8:	01 0b       	.word	0x0b01;	????	
 2ba:	0b 3a       	jl	$-1000   	;abs 0xfed2
 2bc:	0b 3b       	jl	$-488    	;abs 0xd4
 2be:	05 01       	.word	0x0105;	????	
 2c0:	13 00       	.word	0x0013;	????	
 2c2:	00 21       	jnz	$+514    	;abs 0x4c4
 2c4:	0d 00       	.word	0x000d;	????	
 2c6:	03 08       	.word	0x0803;	????	
 2c8:	3a 0b       	.word	0x0b3a;	????	
 2ca:	3b 05       	.word	0x053b;	????	
 2cc:	49 13       	.word	0x1349;	????	
 2ce:	00 00       	.word	0x0000;	????	
 2d0:	22 0a       	.word	0x0a22;	????	
 2d2:	00 03       	.word	0x0300;	????	
 2d4:	0e 3a       	jl	$-994    	;abs 0xfef2
 2d6:	0b 3b       	jl	$-488    	;abs 0xee
 2d8:	05 11       	rra	r5		
 2da:	01 00       	.word	0x0001;	????	
 2dc:	00 23       	jnz	$-510    	;abs 0xde
 2de:	0b 01       	.word	0x010b;	????	
 2e0:	55 06       	.word	0x0655;	????	
 2e2:	01 13       	reti			;return from interupt
 2e4:	00 00       	.word	0x0000;	????	
 2e6:	24 34       	jge	$+74     	;abs 0x330
 2e8:	00 03       	.word	0x0300;	????	
 2ea:	08 3a       	jl	$-1006   	;abs 0xfefc
 2ec:	0b 3b       	jl	$-488    	;abs 0x104
 2ee:	05 49       	mov	r9,	r5	
 2f0:	13 02       	.word	0x0213;	????	
 2f2:	06 00       	.word	0x0006;	????	
 2f4:	00 25       	jz	$+514    	;abs 0x4f6
 2f6:	0b 01       	.word	0x010b;	????	
 2f8:	11 01       	.word	0x0111;	????	
 2fa:	12 01       	.word	0x0112;	????	
 2fc:	01 13       	reti			;return from interupt
 2fe:	00 00       	.word	0x0000;	????	
 300:	26 01       	.word	0x0126;	????	
 302:	01 49       	mov	r9,	r1	
 304:	13 00       	.word	0x0013;	????	
 306:	00 00       	.word	0x0000;	????	
 308:	01 11       	rra	r1		
 30a:	00 10       	rrc	r0		
 30c:	06 11       	rra	r6		
 30e:	01 12       	push	r1		
 310:	01 03       	.word	0x0301;	????	
 312:	08 1b       	.word	0x1b08;	????	
 314:	08 25       	jz	$+530    	;abs 0x526
 316:	08 13       	reti			;return from interupt
 318:	05 00       	.word	0x0005;	????	
 31a:	00 00       	.word	0x0000;	????	
 31c:	01 11       	rra	r1		
 31e:	00 10       	rrc	r0		
 320:	06 11       	rra	r6		
 322:	01 12       	push	r1		
 324:	01 03       	.word	0x0301;	????	
 326:	08 1b       	.word	0x1b08;	????	
 328:	08 25       	jz	$+530    	;abs 0x53a
 32a:	08 13       	reti			;return from interupt
 32c:	05 00       	.word	0x0005;	????	
 32e:	00 00       	.word	0x0000;	????	
 330:	01 11       	rra	r1		
 332:	00 10       	rrc	r0		
 334:	06 11       	rra	r6		
 336:	01 12       	push	r1		
 338:	01 03       	.word	0x0301;	????	
 33a:	08 1b       	.word	0x1b08;	????	
 33c:	08 25       	jz	$+530    	;abs 0x54e
 33e:	08 13       	reti			;return from interupt
 340:	05 00       	.word	0x0005;	????	
 342:	00 00       	.word	0x0000;	????	
 344:	01 11       	rra	r1		
 346:	00 10       	rrc	r0		
 348:	06 11       	rra	r6		
 34a:	01 12       	push	r1		
 34c:	01 03       	.word	0x0301;	????	
 34e:	08 1b       	.word	0x1b08;	????	
 350:	08 25       	jz	$+530    	;abs 0x562
 352:	08 13       	reti			;return from interupt
 354:	05 00       	.word	0x0005;	????	
 356:	00 00       	.word	0x0000;	????	
 358:	01 11       	rra	r1		
 35a:	00 10       	rrc	r0		
 35c:	06 11       	rra	r6		
 35e:	01 12       	push	r1		
 360:	01 03       	.word	0x0301;	????	
 362:	08 1b       	.word	0x1b08;	????	
 364:	08 25       	jz	$+530    	;abs 0x576
 366:	08 13       	reti			;return from interupt
 368:	05 00       	.word	0x0005;	????	
 36a:	00 00       	.word	0x0000;	????	
 36c:	01 11       	rra	r1		
 36e:	00 10       	rrc	r0		
 370:	06 11       	rra	r6		
 372:	01 12       	push	r1		
 374:	01 03       	.word	0x0301;	????	
 376:	08 1b       	.word	0x1b08;	????	
 378:	08 25       	jz	$+530    	;abs 0x58a
 37a:	08 13       	reti			;return from interupt
 37c:	05 00       	.word	0x0005;	????	
 37e:	00 00       	.word	0x0000;	????	
 380:	01 11       	rra	r1		
 382:	00 10       	rrc	r0		
 384:	06 11       	rra	r6		
 386:	01 12       	push	r1		
 388:	01 03       	.word	0x0301;	????	
 38a:	08 1b       	.word	0x1b08;	????	
 38c:	08 25       	jz	$+530    	;abs 0x59e
 38e:	08 13       	reti			;return from interupt
 390:	05 00       	.word	0x0005;	????	
 392:	00 00       	.word	0x0000;	????	
 394:	01 11       	rra	r1		
 396:	00 10       	rrc	r0		
 398:	06 11       	rra	r6		
 39a:	01 12       	push	r1		
 39c:	01 03       	.word	0x0301;	????	
 39e:	08 1b       	.word	0x1b08;	????	
 3a0:	08 25       	jz	$+530    	;abs 0x5b2
 3a2:	08 13       	reti			;return from interupt
 3a4:	05 00       	.word	0x0005;	????	
	...

Disassembly of section .debug_line:

00000000 <.debug_line>:
   0:	98 00       	.word	0x0098;	????	
   2:	00 00       	.word	0x0000;	????	
   4:	02 00       	.word	0x0002;	????	
   6:	76 00       	.word	0x0076;	????	
   8:	00 00       	.word	0x0000;	????	
   a:	01 01       	.word	0x0101;	????	
   c:	fb 0e       	.word	0x0efb;	????	
   e:	0d 00       	.word	0x000d;	????	
  10:	01 01       	.word	0x0101;	????	
  12:	01 01       	.word	0x0101;	????	
  14:	00 00       	.word	0x0000;	????	
  16:	00 01       	.word	0x0100;	????	
  18:	00 00       	.word	0x0000;	????	
  1a:	01 2f       	jc	$-508    	;abs 0xfe1e
  1c:	62 75       	subc.b	@r5,	r2	
  1e:	69 6c       	addc.b	@r12,	r9	
  20:	64 2f       	jc	$-310    	;abs 0xfeea
  22:	62 75       	subc.b	@r5,	r2	
  24:	69 6c       	addc.b	@r12,	r9	
  26:	64 64       	addc.b	@r4,	r4	
  28:	2f 67       	addc	@r7,	r15	
  2a:	63 63       	.word	0x6363;	????	Illegal as 2-op instr
  2c:	2d 6d       	addc	@r13,	r13	
  2e:	73 70       	.word	0x7073;	????	Illegal as 2-op instr
  30:	34 33       	jn	$-406    	;abs 0xfe9a
  32:	30 2d       	jc	$+610    	;abs 0x294
  34:	34 2e       	jc	$-918    	;abs 0xfc9e
  36:	36 2e       	jc	$-914    	;abs 0xfca4
  38:	33 7e       	.word	0x7e33;	????	Illegal as 2-op instr
  3a:	6d 73       	subc.b	#2,	r13	;r3 As==10
  3c:	70 67       	addc.b	@r7+,	r0	
  3e:	63 63       	.word	0x6363;	????	Illegal as 2-op instr
  40:	2d 32       	jn	$-932    	;abs 0xfc9c
  42:	30 31       	jn	$+610    	;abs 0x2a4
  44:	32 30       	jn	$+102    	;abs 0xaa
  46:	34 30       	jn	$+106    	;abs 0xb0
  48:	36 2f       	jc	$-402    	;abs 0xfeb6
  4a:	2e 2f       	jc	$-418    	;abs 0xfea8
  4c:	67 63       	addc.b	#2,	r7	;r3 As==10
  4e:	63 2d       	jc	$+712    	;abs 0x316
  50:	34 2e       	jc	$-918    	;abs 0xfcba
  52:	36 2e       	jc	$-914    	;abs 0xfcc0
  54:	33 2f       	jc	$-408    	;abs 0xfebc
  56:	6c 69       	addc.b	@r9,	r12	
  58:	62 67       	addc.b	@r7,	r2	
  5a:	63 63       	.word	0x6363;	????	Illegal as 2-op instr
  5c:	2f 2e       	jc	$-928    	;abs 0xfcbc
  5e:	2e 2f       	jc	$-418    	;abs 0xfebc
  60:	67 63       	addc.b	#2,	r7	;r3 As==10
  62:	63 2f       	jc	$-312    	;abs 0xff2a
  64:	63 6f       	.word	0x6f63;	????	Illegal as 2-op instr
  66:	6e 66       	addc.b	@r6,	r14	
  68:	69 67       	addc.b	@r7,	r9	
  6a:	2f 6d       	addc	@r13,	r15	
  6c:	73 70       	.word	0x7073;	????	Illegal as 2-op instr
  6e:	34 33       	jn	$-406    	;abs 0xfed8
  70:	30 00       	.word	0x0030;	????	
  72:	00 6c       	addc	r12,	r0	
  74:	69 62       	addc.b	#4,	r9	;r2 As==10
  76:	67 63       	addc.b	#2,	r7	;r3 As==10
  78:	63 2e       	jc	$-824    	;abs 0xfd40
  7a:	53 00       	.word	0x0053;	????	
  7c:	01 00       	.word	0x0001;	????	
  7e:	00 00       	.word	0x0000;	????	
  80:	00 03       	.word	0x0300;	????	
  82:	02 4a       	mov	r10,	r2	
  84:	c9 03       	.word	0x03c9;	????	
  86:	a4 04       	.word	0x04a4;	????	
  88:	01 4b       	mov	r11,	r1	
  8a:	2f 2f       	jc	$-416    	;abs 0xfeea
  8c:	2f 2f       	jc	$-416    	;abs 0xfeec
  8e:	2f 2f       	jc	$-416    	;abs 0xfeee
  90:	2f 2f       	jc	$-416    	;abs 0xfef0
  92:	2f 2f       	jc	$-416    	;abs 0xfef2
  94:	34 4b       	mov	@r11+,	r4	
  96:	2f 02       	.word	0x022f;	????	
  98:	02 00       	.word	0x0002;	????	
  9a:	01 01       	.word	0x0101;	????	
  9c:	98 00       	.word	0x0098;	????	
  9e:	00 00       	.word	0x0000;	????	
  a0:	02 00       	.word	0x0002;	????	
  a2:	63 00       	.word	0x0063;	????	
  a4:	00 00       	.word	0x0000;	????	
  a6:	01 01       	.word	0x0101;	????	
  a8:	fb 0e       	.word	0x0efb;	????	
  aa:	0d 00       	.word	0x000d;	????	
  ac:	01 01       	.word	0x0101;	????	
  ae:	01 01       	.word	0x0101;	????	
  b0:	00 00       	.word	0x0000;	????	
  b2:	00 01       	.word	0x0100;	????	
  b4:	00 00       	.word	0x0000;	????	
  b6:	01 2e       	jc	$-1020   	;abs 0xfcba
  b8:	2f 73       	subc	#2,	r15	;r3 As==10
  ba:	74 64       	addc.b	@r4+,	r4	
  bc:	6c 69       	addc.b	@r9,	r12	
  be:	62 00       	.word	0x0062;	????	
  c0:	2f 75       	subc	@r5,	r15	
  c2:	73 72       	.word	0x7273;	????	Illegal as 2-op instr
  c4:	2f 6c       	addc	@r12,	r15	
  c6:	69 62       	addc.b	#4,	r9	;r2 As==10
  c8:	2f 67       	addc	@r7,	r15	
  ca:	63 63       	.word	0x6363;	????	Illegal as 2-op instr
  cc:	2f 6d       	addc	@r13,	r15	
  ce:	73 70       	.word	0x7073;	????	Illegal as 2-op instr
  d0:	34 33       	jn	$-406    	;abs 0xff3a
  d2:	30 2f       	jc	$-414    	;abs 0xff34
  d4:	34 2e       	jc	$-918    	;abs 0xfd3e
  d6:	36 2e       	jc	$-914    	;abs 0xfd44
  d8:	33 2f       	jc	$-408    	;abs 0xff40
  da:	69 6e       	addc.b	@r14,	r9	
  dc:	63 6c       	.word	0x6c63;	????	Illegal as 2-op instr
  de:	75 64       	addc.b	@r4+,	r5	
  e0:	65 00       	.word	0x0065;	????	
  e2:	00 73       	sbc	r0		
  e4:	70 72       	subc.b	#8,	r0	;r2 As==11
  e6:	69 6e       	addc.b	@r14,	r9	
  e8:	74 66       	addc.b	@r6+,	r4	
  ea:	2e 63       	addc	#2,	r14	;r3 As==10
  ec:	00 01       	.word	0x0100;	????	
  ee:	00 00       	.word	0x0000;	????	
  f0:	73 74       	.word	0x7473;	????	Illegal as 2-op instr
  f2:	64 64       	addc.b	@r4,	r4	
  f4:	65 66       	addc.b	@r6,	r5	
  f6:	2e 68       	addc	@r8,	r14	
  f8:	00 02       	.word	0x0200;	????	
  fa:	00 00       	.word	0x0000;	????	
  fc:	73 74       	.word	0x7473;	????	Illegal as 2-op instr
  fe:	64 61       	addc.b	@r1,	r4	
 100:	72 67       	addc.b	@r7+,	r2	
 102:	2e 68       	addc	@r8,	r14	
 104:	00 02       	.word	0x0200;	????	
 106:	00 00       	.word	0x0000;	????	
 108:	00 00       	.word	0x0000;	????	
 10a:	03 02       	.word	0x0203;	????	
 10c:	6c c9       	bic.b	@r9,	r12	
 10e:	03 2e       	jc	$-1016   	;abs 0xfd16
 110:	01 13       	reti			;return from interupt
 112:	84 d7 67 2b 	bis	r7,	11111(r4);0x2b67(r4)
 116:	32 32       	jn	$-922    	;abs 0xfd7c
 118:	9f 4b 4d bc 	mov	-17331(r11),-24501(r15);0xbc4d(r11), 0xa04b(r15)
 11c:	4b a0 
 11e:	84 86 16 67 	sub	r6,	26390(r4);0x6716(r4)
 122:	67 d7       	bis.b	@r7,	r7	
 124:	32 16       	.word	0x1632;	????	
 126:	67 67       	addc.b	@r7,	r7	
 128:	bb 32       	jn	$-648    	;abs 0xfea0
 12a:	2f 4b       	mov	@r11,	r15	
 12c:	67 83       	decd.b	r7		
 12e:	32 13       	reti			;return from interupt
 130:	4b 4b       	mov.b	r11,	r11	
 132:	83 02       	.word	0x0283;	????	
 134:	02 00       	.word	0x0002;	????	
 136:	01 01       	.word	0x0101;	????	
 138:	ce 02       	.word	0x02ce;	????	
 13a:	00 00       	.word	0x0000;	????	
 13c:	02 00       	.word	0x0002;	????	
 13e:	71 00       	.word	0x0071;	????	
 140:	00 00       	.word	0x0000;	????	
 142:	01 01       	.word	0x0101;	????	
 144:	fb 0e       	.word	0x0efb;	????	
 146:	0d 00       	.word	0x000d;	????	
 148:	01 01       	.word	0x0101;	????	
 14a:	01 01       	.word	0x0101;	????	
 14c:	00 00       	.word	0x0000;	????	
 14e:	00 01       	.word	0x0100;	????	
 150:	00 00       	.word	0x0000;	????	
 152:	01 2e       	jc	$-1020   	;abs 0xfd56
 154:	2f 73       	subc	#2,	r15	;r3 As==10
 156:	74 64       	addc.b	@r4+,	r4	
 158:	6c 69       	addc.b	@r9,	r12	
 15a:	62 00       	.word	0x0062;	????	
 15c:	2e 2f       	jc	$-418    	;abs 0xffba
 15e:	2e 2e       	jc	$-930    	;abs 0xfdbc
 160:	2f 69       	addc	@r9,	r15	
 162:	6e 63       	addc.b	#2,	r14	;r3 As==10
 164:	6c 75       	subc.b	@r5,	r12	
 166:	64 65       	addc.b	@r5,	r4	
 168:	00 2f       	jc	$-510    	;abs 0xff6a
 16a:	75 73       	subc.b	#-1,	r5	;r3 As==11
 16c:	72 2f       	jc	$-282    	;abs 0x52
 16e:	6c 69       	addc.b	@r9,	r12	
 170:	62 2f       	jc	$-314    	;abs 0x36
 172:	67 63       	addc.b	#2,	r7	;r3 As==10
 174:	63 2f       	jc	$-312    	;abs 0x3c
 176:	6d 73       	subc.b	#2,	r13	;r3 As==10
 178:	70 34       	jge	$+226    	;abs 0x25a
 17a:	33 30       	jn	$+104    	;abs 0x1e2
 17c:	2f 34       	jge	$+96     	;abs 0x1dc
 17e:	2e 36       	jge	$-930    	;abs 0xfddc
 180:	2e 33       	jn	$-418    	;abs 0xffde
 182:	2f 69       	addc	@r9,	r15	
 184:	6e 63       	addc.b	#2,	r14	;r3 As==10
 186:	6c 75       	subc.b	@r5,	r12	
 188:	64 65       	addc.b	@r5,	r4	
 18a:	00 00       	.word	0x0000;	????	
 18c:	76 75       	subc.b	@r5+,	r6	
 18e:	70 72       	subc.b	#8,	r0	;r2 As==11
 190:	69 6e       	addc.b	@r14,	r9	
 192:	74 66       	addc.b	@r6+,	r4	
 194:	2e 63       	addc	#2,	r14	;r3 As==10
 196:	00 01       	.word	0x0100;	????	
 198:	00 00       	.word	0x0000;	????	
 19a:	73 74       	.word	0x7473;	????	Illegal as 2-op instr
 19c:	64 69       	addc.b	@r9,	r4	
 19e:	6e 74       	subc.b	@r4,	r14	
 1a0:	2e 68       	addc	@r8,	r14	
 1a2:	00 02       	.word	0x0200;	????	
 1a4:	00 00       	.word	0x0000;	????	
 1a6:	73 74       	.word	0x7473;	????	Illegal as 2-op instr
 1a8:	64 61       	addc.b	@r1,	r4	
 1aa:	72 67       	addc.b	@r7+,	r2	
 1ac:	2e 68       	addc	@r8,	r14	
 1ae:	00 03       	.word	0x0300;	????	
 1b0:	00 00       	.word	0x0000;	????	
 1b2:	00 00       	.word	0x0000;	????	
 1b4:	03 02       	.word	0x0203;	????	
 1b6:	28 ca       	bic	@r10,	r8	
 1b8:	03 fb       	.word	0xfb03;	????	Illegal as 2-op instr
 1ba:	00 01       	.word	0x0100;	????	
 1bc:	03 3c       	jmp	$+8      	;abs 0x1c4
 1be:	02 22       	jnz	$-1018   	;abs 0xfdc4
 1c0:	01 03       	.word	0x0301;	????	
 1c2:	48 66       	addc.b	r6,	r8	
 1c4:	03 63       	adc	#0		;r3 As==00
 1c6:	2e 84       	sub	@r4,	r14	
 1c8:	67 08       	.word	0x0867;	????	
 1ca:	ae 67 83 4b 	addc	@r7,	19331(r14);0x4b83(r14)
 1ce:	03 77       	.word	0x7703;	????	Illegal as 2-op instr
 1d0:	9e 03       	.word	0x039e;	????	
 1d2:	0a 2e       	jc	$-1002   	;abs 0xfde8
 1d4:	03 17       	.word	0x1703;	????	
 1d6:	08 c8       	bic	r8,	r8	
 1d8:	b7 4e 31 85 	mov	@r14+,	-31439(r7);0x8531(r7)
 1dc:	08 23       	jnz	$-494    	;abs 0xffee
 1de:	4b 4c       	mov.b	r12,	r11	
 1e0:	31 68       	addc	@r8+,	r1	
 1e2:	4b 4c       	mov.b	r12,	r11	
 1e4:	2c 03       	.word	0x032c;	????	
 1e6:	0a 82       	sub	r2,	r10	
 1e8:	03 69       	.word	0x6903;	????	Illegal as 2-op instr
 1ea:	4a 03       	.word	0x034a;	????	
 1ec:	76 66       	addc.b	@r6+,	r6	
 1ee:	2c 47       	mov	@r7,	r12	
 1f0:	03 2b       	jnc	$-504    	;abs 0xfff8
 1f2:	4a 99       	cmp.b	r9,	r10	
 1f4:	00 02       	.word	0x0200;	????	
 1f6:	04 01       	.word	0x0104;	????	
 1f8:	32 06       	.word	0x0632;	????	
 1fa:	4a 06       	.word	0x064a;	????	
 1fc:	2c 00       	.word	0x002c;	????	
 1fe:	02 04       	.word	0x0402;	????	
 200:	01 03       	.word	0x0301;	????	
 202:	58 66 03 30 	addc.b	12291(r6),r8	;0x3003(r6)
 206:	4a 83       	sub.b	#0,	r10	;r3 As==00
 208:	00 02       	.word	0x0200;	????	
 20a:	04 01       	.word	0x0104;	????	
 20c:	2b 03       	.word	0x032b;	????	
 20e:	57 9e 2c 03 	cmp.b	812(r14),r7	;0x032c(r14)
 212:	36 4a       	mov	@r10+,	r6	
 214:	03 47       	.word	0x4703;	????	Illegal as 2-op instr
 216:	2e 03       	.word	0x032e;	????	
 218:	3a 4a       	mov	@r10+,	r10	
 21a:	00 02       	.word	0x0200;	????	
 21c:	04 01       	.word	0x0104;	????	
 21e:	7f 51       	add.b	@r1+,	r15	
 220:	00 02       	.word	0x0200;	????	
 222:	04 01       	.word	0x0104;	????	
 224:	06 66       	rlc	r6		
 226:	00 02       	.word	0x0200;	????	
 228:	04 01       	.word	0x0104;	????	
 22a:	06 03       	.word	0x0306;	????	
 22c:	42 4a       	mov.b	r10,	r2	
 22e:	03 c2       	.word	0xc203;	????	Illegal as 2-op instr
 230:	00 82       	sub	r2,	r0	
 232:	00 02       	.word	0x0200;	????	
 234:	04 01       	.word	0x0104;	????	
 236:	80 03       	.word	0x0380;	????	
 238:	40 4a       	br	r10		
 23a:	03 c0       	.word	0xc003;	????	Illegal as 2-op instr
 23c:	00 2e       	jc	$-1022   	;abs 0xfe3e
 23e:	52 30       	jn	$+166    	;abs 0x2e4
 240:	4c 00       	.word	0x004c;	????	
 242:	02 04       	.word	0x0402;	????	
 244:	01 03       	.word	0x0301;	????	
 246:	b4 7f 2e 00 	subc	@r15+,	46(r4)	;0x002e(r4)
 24a:	02 04       	.word	0x0402;	????	
 24c:	01 03       	.word	0x0301;	????	
 24e:	c8 00       	.word	0x00c8;	????	
 250:	4a 00       	.word	0x004a;	????	
 252:	02 04       	.word	0x0402;	????	
 254:	02 06       	.word	0x0602;	????	
 256:	66 06       	.word	0x0666;	????	
 258:	03 09       	.word	0x0903;	????	
 25a:	66 67       	addc.b	@r7,	r6	
 25c:	00 02       	.word	0x0200;	????	
 25e:	04 01       	.word	0x0104;	????	
 260:	2b 51       	add	@r1,	r11	
 262:	03 2a       	jnc	$-1016   	;abs 0xfe6a
 264:	08 58       	rla	r8		
 266:	08 b3       	bit	#0,	r8	;r3 As==00
 268:	51 49 49 49 	mov.b	18761(r9),r1	;0x4949(r9)
 26c:	03 7a       	.word	0x7a03;	????	Illegal as 2-op instr
 26e:	4a 49       	mov.b	r9,	r10	
 270:	49 2c       	jc	$+148    	;abs 0x304
 272:	03 b8       	.word	0xb803;	????	Illegal as 2-op instr
 274:	02 4a       	mov	r10,	r2	
 276:	03 e3       	.word	0xe303;	????	Illegal as 2-op instr
 278:	7d 9e       	cmp.b	@r14+,	r13	
 27a:	bc 4e 69 bb 	mov	@r14+,	-17559(r12);0xbb69(r12)
 27e:	f0 03       	.word	0x03f0;	????	
 280:	fd 00       	.word	0x00fd;	????	
 282:	82 03       	.word	0x0382;	????	
 284:	8c 7f 2e 83 	subc	r15,	-31954(r12);0x832e(r12)
 288:	89 00       	.word	0x0089;	????	
 28a:	02 04       	.word	0x0402;	????	
 28c:	01 06       	.word	0x0601;	????	
 28e:	02 9a       	cmp	r10,	r2	
 290:	01 12       	push	r1		
 292:	00 02       	.word	0x0200;	????	
 294:	04 01       	.word	0x0104;	????	
 296:	06 03       	.word	0x0306;	????	
 298:	4a 4a       	mov.b	r10,	r10	
 29a:	03 d3       	.word	0xd303;	????	Illegal as 2-op instr
 29c:	01 9e       	cmp	r14,	r1	
 29e:	03 eb       	.word	0xeb03;	????	Illegal as 2-op instr
 2a0:	7e 66       	addc.b	@r6+,	r14	
 2a2:	88 84 4b 51 	sub	r4,	20811(r8);0x514b(r8)
 2a6:	03 0b       	.word	0x0b03;	????	
 2a8:	9e a3 a4 bb 	dadd	#1,	-17500(r14);r3 As==01, 0xbba4(r14)
 2ac:	a3 a4       	dadd	@r4,	#1	;r3 As==01
 2ae:	88 68 4b 67 	addc	r8,	26443(r8);0x674b(r8)
 2b2:	a2 67 03 77 	addc	@r7,	&0x7703	
 2b6:	9e 03       	.word	0x039e;	????	
 2b8:	16 4a 00 02 	mov	512(r10),r6	;0x0200(r10)
 2bc:	04 01       	.word	0x0104;	????	
 2be:	06 66       	rlc	r6		
 2c0:	06 68       	addc	r8,	r6	
 2c2:	03 0d       	.word	0x0d03;	????	
 2c4:	02 24       	jz	$+6      	;abs 0x2ca
 2c6:	01 08       	.word	0x0801;	????	
 2c8:	21 bb       	bit	@r11,	r1	
 2ca:	87 67 00 02 	addc	r7,	512(r7)	;0x0200(r7)
 2ce:	04 01       	.word	0x0104;	????	
 2d0:	06 66       	rlc	r6		
 2d2:	06 69       	addc	r9,	r6	
 2d4:	4b 48       	mov.b	r8,	r11	
 2d6:	4d 33       	jn	$-356    	;abs 0x172
 2d8:	6a 68       	addc.b	@r8,	r10	
 2da:	4b a0       	dadd.b	r0,	r11	
 2dc:	bc 00       	.word	0x00bc;	????	
 2de:	02 04       	.word	0x0402;	????	
 2e0:	03 06       	.word	0x0603;	????	
 2e2:	82 00       	.word	0x0082;	????	
 2e4:	02 04       	.word	0x0402;	????	
 2e6:	03 06       	.word	0x0603;	????	
 2e8:	08 95       	cmp	r5,	r8	
 2ea:	6c a1       	dadd.b	@r1,	r12	
 2ec:	08 8d       	sub	r13,	r8	
 2ee:	30 68       	addc	@r8+,	r0	
 2f0:	32 03       	.word	0x0332;	????	
 2f2:	0e 66       	addc	r6,	r14	
 2f4:	4e 03       	.word	0x034e;	????	
 2f6:	71 82       	sub.b	#8,	r1	;r2 As==11
 2f8:	03 13       	reti			;return from interupt
 2fa:	66 68       	addc.b	@r8,	r6	
 2fc:	02 22       	jnz	$-1018   	;abs 0xff02
 2fe:	13 08       	.word	0x0813;	????	
 300:	75 9c       	cmp.b	@r12+,	r5	
 302:	51 30       	jn	$+164    	;abs 0x3a6
 304:	2c 30       	jn	$+90     	;abs 0x35e
 306:	f3 a4       	dadd.b	@r4+,	#1	;r3 As==01
 308:	83 bb       	bit	r11,	#1	;r3 As==01
 30a:	9c 36       	jge	$-710    	;abs 0x44
 30c:	00 02       	.word	0x0200;	????	
 30e:	04 01       	.word	0x0104;	????	
 310:	06 66       	rlc	r6		
 312:	06 84       	sub	r4,	r6	
 314:	83 67       	addc	r7,	#1	;r3 As==01
 316:	67 84       	sub.b	@r4,	r7	
 318:	00 02       	.word	0x0200;	????	
 31a:	04 01       	.word	0x0104;	????	
 31c:	06 66       	rlc	r6		
 31e:	06 69       	addc	r9,	r6	
 320:	68 4b       	mov.b	@r11,	r8	
 322:	02 22       	jnz	$-1018   	;abs 0xff28
 324:	16 4b 08 cb 	mov	-13560(r11),r6	;0xcb08(r11)
 328:	bf 03       	.word	0x03bf;	????	
 32a:	11 4a 00 02 	mov	512(r10),r1	;0x0200(r10)
 32e:	04 07       	.word	0x0704;	????	
 330:	08 c9       	bic	r9,	r8	
 332:	00 02       	.word	0x0200;	????	
 334:	04 01       	.word	0x0104;	????	
 336:	06 02       	.word	0x0206;	????	
 338:	46 12       	push.b	r6		
 33a:	00 02       	.word	0x0200;	????	
 33c:	04 02       	.word	0x0204;	????	
 33e:	9e 82 00 02 	sub	&0x0200,1284(r14);0x0504(r14)
 342:	04 05 
 344:	9e 00       	.word	0x009e;	????	
 346:	02 04       	.word	0x0402;	????	
 348:	05 06       	.word	0x0605;	????	
 34a:	03 d9       	.word	0xd903;	????	Illegal as 2-op instr
 34c:	7d 66       	addc.b	@r6+,	r13	
 34e:	00 02       	.word	0x0200;	????	
 350:	04 05       	.word	0x0504;	????	
 352:	03 a7       	.word	0xa703;	????	Illegal as 2-op instr
 354:	02 4a       	mov	r10,	r2	
 356:	00 02       	.word	0x0200;	????	
 358:	04 06       	.word	0x0604;	????	
 35a:	06 02       	.word	0x0206;	????	
 35c:	30 12 ba 06 	push	#1722		;#0x06ba
 360:	08 24       	jz	$+18     	;abs 0x372
 362:	00 02       	.word	0x0200;	????	
 364:	04 07       	.word	0x0704;	????	
 366:	08 21       	jnz	$+530    	;abs 0x578
 368:	00 02       	.word	0x0200;	????	
 36a:	04 01       	.word	0x0104;	????	
 36c:	06 02       	.word	0x0206;	????	
 36e:	22 12       	push	#4		;r2 As==10
 370:	00 02       	.word	0x0200;	????	
 372:	04 02       	.word	0x0204;	????	
 374:	9e 82 00 02 	sub	&0x0200,1284(r14);0x0504(r14)
 378:	04 05 
 37a:	9e 00       	.word	0x009e;	????	
 37c:	02 04       	.word	0x0402;	????	
 37e:	05 06       	.word	0x0605;	????	
 380:	03 d4       	.word	0xd403;	????	Illegal as 2-op instr
 382:	7d 66       	addc.b	@r6+,	r13	
 384:	00 02       	.word	0x0200;	????	
 386:	04 05       	.word	0x0504;	????	
 388:	03 ac       	.word	0xac03;	????	Illegal as 2-op instr
 38a:	02 4a       	mov	r10,	r2	
 38c:	00 02       	.word	0x0200;	????	
 38e:	04 06       	.word	0x0604;	????	
 390:	06 08       	.word	0x0806;	????	
 392:	74 4a       	mov.b	@r10+,	r4	
 394:	00 02       	.word	0x0200;	????	
 396:	04 07       	.word	0x0704;	????	
 398:	06 08       	.word	0x0806;	????	
 39a:	3f 00       	.word	0x003f;	????	
 39c:	02 04       	.word	0x0402;	????	
 39e:	01 06       	.word	0x0601;	????	
 3a0:	08 20       	jnz	$+18     	;abs 0x3b2
 3a2:	00 02       	.word	0x0200;	????	
 3a4:	04 02       	.word	0x0204;	????	
 3a6:	9e 82 00 02 	sub	&0x0200,1284(r14);0x0504(r14)
 3aa:	04 05 
 3ac:	9e 00       	.word	0x009e;	????	
 3ae:	02 04       	.word	0x0402;	????	
 3b0:	05 06       	.word	0x0605;	????	
 3b2:	03 d1       	.word	0xd103;	????	Illegal as 2-op instr
 3b4:	7d 66       	addc.b	@r6+,	r13	
 3b6:	00 02       	.word	0x0200;	????	
 3b8:	04 05       	.word	0x0504;	????	
 3ba:	03 af       	.word	0xaf03;	????	Illegal as 2-op instr
 3bc:	02 4a       	mov	r10,	r2	
 3be:	06 08       	.word	0x0806;	????	
 3c0:	20 06       	.word	0x0620;	????	
 3c2:	4f 83       	sub.b	#0,	r15	;r3 As==00
 3c4:	4d 68       	addc.b	r8,	r13	
 3c6:	02 3e       	jmp	$-1018   	;abs 0xffcc
 3c8:	13 68       	.word	0x6813;	????	Illegal as 2-op instr
 3ca:	4b bd       	bit.b	r13,	r11	
 3cc:	bc 03       	.word	0x03bc;	????	
 3ce:	09 08       	.word	0x0809;	????	
 3d0:	e4 00       	.word	0x00e4;	????	
 3d2:	02 04       	.word	0x0402;	????	
 3d4:	01 03       	.word	0x0301;	????	
 3d6:	b4 7d 82 00 	subc	@r13+,	130(r4)	;0x0082(r4)
 3da:	02 04       	.word	0x0402;	????	
 3dc:	01 03       	.word	0x0301;	????	
 3de:	ca 02       	.word	0x02ca;	????	
 3e0:	4a 06       	.word	0x064a;	????	
 3e2:	66 06       	.word	0x0666;	????	
 3e4:	87 03       	.word	0x0387;	????	
 3e6:	9b 7e 4a 6c 	subc	27722(r14),28232(r11);0x6c4a(r14), 0x6e48(r11)
 3ea:	48 6e 
 3ec:	03 0b       	.word	0x0b03;	????	
 3ee:	2e 03       	.word	0x032e;	????	
 3f0:	7a 4a       	mov.b	@r10+,	r10	
 3f2:	49 00       	.word	0x0049;	????	
 3f4:	02 04       	.word	0x0402;	????	
 3f6:	01 03       	.word	0x0301;	????	
 3f8:	54 2e       	jc	$-854    	;abs 0xa2
 3fa:	00 02       	.word	0x0200;	????	
 3fc:	04 01       	.word	0x0104;	????	
 3fe:	03 4f       	.word	0x4f03;	????	Illegal as 2-op instr
 400:	4a 03       	.word	0x034a;	????	
 402:	b8 02       	.word	0x02b8;	????	
 404:	9e 02       	.word	0x029e;	????	
 406:	1a 00       	.word	0x001a;	????	
 408:	01 01       	.word	0x0101;	????	
 40a:	a7 00       	.word	0x00a7;	????	
 40c:	00 00       	.word	0x0000;	????	
 40e:	02 00       	.word	0x0002;	????	
 410:	76 00       	.word	0x0076;	????	
 412:	00 00       	.word	0x0000;	????	
 414:	01 01       	.word	0x0101;	????	
 416:	fb 0e       	.word	0x0efb;	????	
 418:	0d 00       	.word	0x000d;	????	
 41a:	01 01       	.word	0x0101;	????	
 41c:	01 01       	.word	0x0101;	????	
 41e:	00 00       	.word	0x0000;	????	
 420:	00 01       	.word	0x0100;	????	
 422:	00 00       	.word	0x0000;	????	
 424:	01 2f       	jc	$-508    	;abs 0x228
 426:	62 75       	subc.b	@r5,	r2	
 428:	69 6c       	addc.b	@r12,	r9	
 42a:	64 2f       	jc	$-310    	;abs 0x2f4
 42c:	62 75       	subc.b	@r5,	r2	
 42e:	69 6c       	addc.b	@r12,	r9	
 430:	64 64       	addc.b	@r4,	r4	
 432:	2f 67       	addc	@r7,	r15	
 434:	63 63       	.word	0x6363;	????	Illegal as 2-op instr
 436:	2d 6d       	addc	@r13,	r13	
 438:	73 70       	.word	0x7073;	????	Illegal as 2-op instr
 43a:	34 33       	jn	$-406    	;abs 0x2a4
 43c:	30 2d       	jc	$+610    	;abs 0x69e
 43e:	34 2e       	jc	$-918    	;abs 0xa8
 440:	36 2e       	jc	$-914    	;abs 0xae
 442:	33 7e       	.word	0x7e33;	????	Illegal as 2-op instr
 444:	6d 73       	subc.b	#2,	r13	;r3 As==10
 446:	70 67       	addc.b	@r7+,	r0	
 448:	63 63       	.word	0x6363;	????	Illegal as 2-op instr
 44a:	2d 32       	jn	$-932    	;abs 0xa6
 44c:	30 31       	jn	$+610    	;abs 0x6ae
 44e:	32 30       	jn	$+102    	;abs 0x4b4
 450:	34 30       	jn	$+106    	;abs 0x4ba
 452:	36 2f       	jc	$-402    	;abs 0x2c0
 454:	2e 2f       	jc	$-418    	;abs 0x2b2
 456:	67 63       	addc.b	#2,	r7	;r3 As==10
 458:	63 2d       	jc	$+712    	;abs 0x720
 45a:	34 2e       	jc	$-918    	;abs 0xc4
 45c:	36 2e       	jc	$-914    	;abs 0xca
 45e:	33 2f       	jc	$-408    	;abs 0x2c6
 460:	6c 69       	addc.b	@r9,	r12	
 462:	62 67       	addc.b	@r7,	r2	
 464:	63 63       	.word	0x6363;	????	Illegal as 2-op instr
 466:	2f 2e       	jc	$-928    	;abs 0xc6
 468:	2e 2f       	jc	$-418    	;abs 0x2c6
 46a:	67 63       	addc.b	#2,	r7	;r3 As==10
 46c:	63 2f       	jc	$-312    	;abs 0x334
 46e:	63 6f       	.word	0x6f63;	????	Illegal as 2-op instr
 470:	6e 66       	addc.b	@r6,	r14	
 472:	69 67       	addc.b	@r7,	r9	
 474:	2f 6d       	addc	@r13,	r15	
 476:	73 70       	.word	0x7073;	????	Illegal as 2-op instr
 478:	34 33       	jn	$-406    	;abs 0x2e2
 47a:	30 00       	.word	0x0030;	????	
 47c:	00 6c       	addc	r12,	r0	
 47e:	69 62       	addc.b	#4,	r9	;r2 As==10
 480:	67 63       	addc.b	#2,	r7	;r3 As==10
 482:	63 2e       	jc	$-824    	;abs 0x14a
 484:	53 00       	.word	0x0053;	????	
 486:	01 00       	.word	0x0001;	????	
 488:	00 00       	.word	0x0000;	????	
 48a:	00 03       	.word	0x0300;	????	
 48c:	02 5e       	add	r14,	r2	
 48e:	d2 03       	.word	0x03d2;	????	
 490:	f8 04       	.word	0x04f8;	????	
 492:	01 2f       	jc	$-508    	;abs 0x296
 494:	2f 30       	jn	$+96     	;abs 0x4f4
 496:	4b 2f       	jc	$-360    	;abs 0x32e
 498:	2f 2f       	jc	$-416    	;abs 0x2f8
 49a:	2f 2f       	jc	$-416    	;abs 0x2fa
 49c:	2f 2f       	jc	$-416    	;abs 0x2fc
 49e:	2f 2f       	jc	$-416    	;abs 0x2fe
 4a0:	2f 2f       	jc	$-416    	;abs 0x300
 4a2:	2f 2f       	jc	$-416    	;abs 0x302
 4a4:	2f 2f       	jc	$-416    	;abs 0x304
 4a6:	2f 2f       	jc	$-416    	;abs 0x306
 4a8:	32 2f       	jc	$-410    	;abs 0x30e
 4aa:	2f 30       	jn	$+96     	;abs 0x50a
 4ac:	34 4b       	mov	@r11+,	r4	
 4ae:	2f 2f       	jc	$-416    	;abs 0x30e
 4b0:	02 02       	.word	0x0202;	????	
 4b2:	00 01       	.word	0x0100;	????	
 4b4:	01 ed       	xor	r13,	r1	
 4b6:	00 00       	.word	0x0000;	????	
 4b8:	00 02       	.word	0x0200;	????	
 4ba:	00 76       	subc	r6,	r0	
 4bc:	00 00       	.word	0x0000;	????	
 4be:	00 01       	.word	0x0100;	????	
 4c0:	01 fb       	and	r11,	r1	
 4c2:	0e 0d       	.word	0x0d0e;	????	
 4c4:	00 01       	.word	0x0100;	????	
 4c6:	01 01       	.word	0x0101;	????	
 4c8:	01 00       	.word	0x0001;	????	
 4ca:	00 00       	.word	0x0000;	????	
 4cc:	01 00       	.word	0x0001;	????	
 4ce:	00 01       	.word	0x0100;	????	
 4d0:	2f 62       	addc	#4,	r15	;r2 As==10
 4d2:	75 69       	addc.b	@r9+,	r5	
 4d4:	6c 64       	addc.b	@r4,	r12	
 4d6:	2f 62       	addc	#4,	r15	;r2 As==10
 4d8:	75 69       	addc.b	@r9+,	r5	
 4da:	6c 64       	addc.b	@r4,	r12	
 4dc:	64 2f       	jc	$-310    	;abs 0x3a6
 4de:	67 63       	addc.b	#2,	r7	;r3 As==10
 4e0:	63 2d       	jc	$+712    	;abs 0x7a8
 4e2:	6d 73       	subc.b	#2,	r13	;r3 As==10
 4e4:	70 34       	jge	$+226    	;abs 0x5c6
 4e6:	33 30       	jn	$+104    	;abs 0x54e
 4e8:	2d 34       	jge	$+92     	;abs 0x544
 4ea:	2e 36       	jge	$-930    	;abs 0x148
 4ec:	2e 33       	jn	$-418    	;abs 0x34a
 4ee:	7e 6d       	addc.b	@r13+,	r14	
 4f0:	73 70       	.word	0x7073;	????	Illegal as 2-op instr
 4f2:	67 63       	addc.b	#2,	r7	;r3 As==10
 4f4:	63 2d       	jc	$+712    	;abs 0x7bc
 4f6:	32 30       	jn	$+102    	;abs 0x55c
 4f8:	31 32       	jn	$-924    	;abs 0x15c
 4fa:	30 34       	jge	$+98     	;abs 0x55c
 4fc:	30 36       	jge	$-926    	;abs 0x15e
 4fe:	2f 2e       	jc	$-928    	;abs 0x15e
 500:	2f 67       	addc	@r7,	r15	
 502:	63 63       	.word	0x6363;	????	Illegal as 2-op instr
 504:	2d 34       	jge	$+92     	;abs 0x560
 506:	2e 36       	jge	$-930    	;abs 0x164
 508:	2e 33       	jn	$-418    	;abs 0x366
 50a:	2f 6c       	addc	@r12,	r15	
 50c:	69 62       	addc.b	#4,	r9	;r2 As==10
 50e:	67 63       	addc.b	#2,	r7	;r3 As==10
 510:	63 2f       	jc	$-312    	;abs 0x3d8
 512:	2e 2e       	jc	$-930    	;abs 0x170
 514:	2f 67       	addc	@r7,	r15	
 516:	63 63       	.word	0x6363;	????	Illegal as 2-op instr
 518:	2f 63       	addc	#2,	r15	;r3 As==10
 51a:	6f 6e       	addc.b	@r14,	r15	
 51c:	66 69       	addc.b	@r9,	r6	
 51e:	67 2f       	jc	$-304    	;abs 0x3ee
 520:	6d 73       	subc.b	#2,	r13	;r3 As==10
 522:	70 34       	jge	$+226    	;abs 0x604
 524:	33 30       	jn	$+104    	;abs 0x58c
 526:	00 00       	.word	0x0000;	????	
 528:	6c 69       	addc.b	@r9,	r12	
 52a:	62 67       	addc.b	@r7,	r2	
 52c:	63 63       	.word	0x6363;	????	Illegal as 2-op instr
 52e:	2e 53       	incd	r14		
 530:	00 01       	.word	0x0100;	????	
 532:	00 00       	.word	0x0000;	????	
 534:	00 00       	.word	0x0000;	????	
 536:	03 02       	.word	0x0203;	????	
 538:	9e d2 03 e6 	bis	&0xe603,261(r14);0x0105(r14)
 53c:	05 01 
 53e:	2f 2f       	jc	$-416    	;abs 0x39e
 540:	2f 30       	jn	$+96     	;abs 0x5a0
 542:	4b 2f       	jc	$-360    	;abs 0x3da
 544:	2f 2f       	jc	$-416    	;abs 0x3a4
 546:	2f 2f       	jc	$-416    	;abs 0x3a6
 548:	2f 2f       	jc	$-416    	;abs 0x3a8
 54a:	2f 2f       	jc	$-416    	;abs 0x3aa
 54c:	2f 2f       	jc	$-416    	;abs 0x3ac
 54e:	2f 2f       	jc	$-416    	;abs 0x3ae
 550:	2f 2f       	jc	$-416    	;abs 0x3b0
 552:	2f 2f       	jc	$-416    	;abs 0x3b2
 554:	2f 2f       	jc	$-416    	;abs 0x3b4
 556:	2f 2f       	jc	$-416    	;abs 0x3b6
 558:	2f 2f       	jc	$-416    	;abs 0x3b8
 55a:	2f 2f       	jc	$-416    	;abs 0x3ba
 55c:	2f 2f       	jc	$-416    	;abs 0x3bc
 55e:	2f 2f       	jc	$-416    	;abs 0x3be
 560:	2f 2f       	jc	$-416    	;abs 0x3c0
 562:	2f 4b       	mov	@r11,	r15	
 564:	2f 32       	jn	$-928    	;abs 0x1c4
 566:	2f 2f       	jc	$-416    	;abs 0x3c6
 568:	2f 30       	jn	$+96     	;abs 0x5c8
 56a:	03 09       	.word	0x0903;	????	
 56c:	2e 2f       	jc	$-418    	;abs 0x3ca
 56e:	2f 2f       	jc	$-416    	;abs 0x3ce
 570:	30 4b       	br	@r11+		
 572:	4b 4b       	mov.b	r11,	r11	
 574:	4c 4e       	mov.b	r14,	r12	
 576:	2f 2f       	jc	$-416    	;abs 0x3d6
 578:	2f 30       	jn	$+96     	;abs 0x5d8
 57a:	36 2f       	jc	$-402    	;abs 0x3e8
 57c:	2f 2f       	jc	$-416    	;abs 0x3dc
 57e:	30 4b       	br	@r11+		
 580:	4b 4b       	mov.b	r11,	r11	
 582:	4c 4b       	mov.b	r11,	r12	
 584:	2f 2f       	jc	$-416    	;abs 0x3e4
 586:	2f 32       	jn	$-928    	;abs 0x1e6
 588:	2f 2f       	jc	$-416    	;abs 0x3e8
 58a:	2f 30       	jn	$+96     	;abs 0x5ea
 58c:	36 2f       	jc	$-402    	;abs 0x3fa
 58e:	2f 2f       	jc	$-416    	;abs 0x3ee
 590:	2f 30       	jn	$+96     	;abs 0x5f0
 592:	4b 4b       	mov.b	r11,	r11	
 594:	4b 4c       	mov.b	r12,	r11	
 596:	4c 4b       	mov.b	r11,	r12	
 598:	4b 4b       	mov.b	r11,	r11	
 59a:	4b 4f       	mov.b	r15,	r11	
 59c:	2f 2f       	jc	$-416    	;abs 0x3fc
 59e:	2f 2f       	jc	$-416    	;abs 0x3fe
 5a0:	30 02       	.word	0x0230;	????	
 5a2:	02 00       	.word	0x0002;	????	
 5a4:	01 01       	.word	0x0101;	????	
 5a6:	80 00       	.word	0x0080;	????	
 5a8:	00 00       	.word	0x0000;	????	
 5aa:	02 00       	.word	0x0002;	????	
 5ac:	6a 00       	.word	0x006a;	????	
 5ae:	00 00       	.word	0x0000;	????	
 5b0:	01 01       	.word	0x0101;	????	
 5b2:	fb 0e       	.word	0x0efb;	????	
 5b4:	0d 00       	.word	0x000d;	????	
 5b6:	01 01       	.word	0x0101;	????	
 5b8:	01 01       	.word	0x0101;	????	
 5ba:	00 00       	.word	0x0000;	????	
 5bc:	00 01       	.word	0x0100;	????	
 5be:	00 00       	.word	0x0000;	????	
 5c0:	01 2f       	jc	$-508    	;abs 0x3c4
 5c2:	62 75       	subc.b	@r5,	r2	
 5c4:	69 6c       	addc.b	@r12,	r9	
 5c6:	64 2f       	jc	$-310    	;abs 0x490
 5c8:	62 75       	subc.b	@r5,	r2	
 5ca:	69 6c       	addc.b	@r12,	r9	
 5cc:	64 64       	addc.b	@r4,	r4	
 5ce:	2f 67       	addc	@r7,	r15	
 5d0:	63 63       	.word	0x6363;	????	Illegal as 2-op instr
 5d2:	2d 6d       	addc	@r13,	r13	
 5d4:	73 70       	.word	0x7073;	????	Illegal as 2-op instr
 5d6:	34 33       	jn	$-406    	;abs 0x440
 5d8:	30 2d       	jc	$+610    	;abs 0x83a
 5da:	34 2e       	jc	$-918    	;abs 0x244
 5dc:	36 2e       	jc	$-914    	;abs 0x24a
 5de:	33 7e       	.word	0x7e33;	????	Illegal as 2-op instr
 5e0:	6d 73       	subc.b	#2,	r13	;r3 As==10
 5e2:	70 67       	addc.b	@r7+,	r0	
 5e4:	63 63       	.word	0x6363;	????	Illegal as 2-op instr
 5e6:	2d 32       	jn	$-932    	;abs 0x242
 5e8:	30 31       	jn	$+610    	;abs 0x84a
 5ea:	32 30       	jn	$+102    	;abs 0x650
 5ec:	34 30       	jn	$+106    	;abs 0x656
 5ee:	36 2f       	jc	$-402    	;abs 0x45c
 5f0:	2e 2f       	jc	$-418    	;abs 0x44e
 5f2:	67 63       	addc.b	#2,	r7	;r3 As==10
 5f4:	63 2d       	jc	$+712    	;abs 0x8bc
 5f6:	34 2e       	jc	$-918    	;abs 0x260
 5f8:	36 2e       	jc	$-914    	;abs 0x266
 5fa:	33 2f       	jc	$-408    	;abs 0x462
 5fc:	67 63       	addc.b	#2,	r7	;r3 As==10
 5fe:	63 2f       	jc	$-312    	;abs 0x4c6
 600:	63 6f       	.word	0x6f63;	????	Illegal as 2-op instr
 602:	6e 66       	addc.b	@r6,	r14	
 604:	69 67       	addc.b	@r7,	r9	
 606:	2f 6d       	addc	@r13,	r15	
 608:	73 70       	.word	0x7073;	????	Illegal as 2-op instr
 60a:	34 33       	jn	$-406    	;abs 0x474
 60c:	30 00       	.word	0x0030;	????	
 60e:	00 63       	adc	r0		
 610:	72 74       	subc.b	@r4+,	r2	
 612:	30 2e       	jc	$-926    	;abs 0x274
 614:	53 00       	.word	0x0053;	????	
 616:	01 00       	.word	0x0001;	????	
 618:	00 00       	.word	0x0000;	????	
 61a:	00 03       	.word	0x0300;	????	
 61c:	02 00       	.word	0x0002;	????	
 61e:	c0 03       	.word	0x03c0;	????	
 620:	e8 00       	.word	0x00e8;	????	
 622:	01 4b       	mov	r11,	r1	
 624:	4b 02       	.word	0x024b;	????	
 626:	04 00       	.word	0x0004;	????	
 628:	01 01       	.word	0x0101;	????	
 62a:	7e 00       	.word	0x007e;	????	
 62c:	00 00       	.word	0x0000;	????	
 62e:	02 00       	.word	0x0002;	????	
 630:	6a 00       	.word	0x006a;	????	
 632:	00 00       	.word	0x0000;	????	
 634:	01 01       	.word	0x0101;	????	
 636:	fb 0e       	.word	0x0efb;	????	
 638:	0d 00       	.word	0x000d;	????	
 63a:	01 01       	.word	0x0101;	????	
 63c:	01 01       	.word	0x0101;	????	
 63e:	00 00       	.word	0x0000;	????	
 640:	00 01       	.word	0x0100;	????	
 642:	00 00       	.word	0x0000;	????	
 644:	01 2f       	jc	$-508    	;abs 0x448
 646:	62 75       	subc.b	@r5,	r2	
 648:	69 6c       	addc.b	@r12,	r9	
 64a:	64 2f       	jc	$-310    	;abs 0x514
 64c:	62 75       	subc.b	@r5,	r2	
 64e:	69 6c       	addc.b	@r12,	r9	
 650:	64 64       	addc.b	@r4,	r4	
 652:	2f 67       	addc	@r7,	r15	
 654:	63 63       	.word	0x6363;	????	Illegal as 2-op instr
 656:	2d 6d       	addc	@r13,	r13	
 658:	73 70       	.word	0x7073;	????	Illegal as 2-op instr
 65a:	34 33       	jn	$-406    	;abs 0x4c4
 65c:	30 2d       	jc	$+610    	;abs 0x8be
 65e:	34 2e       	jc	$-918    	;abs 0x2c8
 660:	36 2e       	jc	$-914    	;abs 0x2ce
 662:	33 7e       	.word	0x7e33;	????	Illegal as 2-op instr
 664:	6d 73       	subc.b	#2,	r13	;r3 As==10
 666:	70 67       	addc.b	@r7+,	r0	
 668:	63 63       	.word	0x6363;	????	Illegal as 2-op instr
 66a:	2d 32       	jn	$-932    	;abs 0x2c6
 66c:	30 31       	jn	$+610    	;abs 0x8ce
 66e:	32 30       	jn	$+102    	;abs 0x6d4
 670:	34 30       	jn	$+106    	;abs 0x6da
 672:	36 2f       	jc	$-402    	;abs 0x4e0
 674:	2e 2f       	jc	$-418    	;abs 0x4d2
 676:	67 63       	addc.b	#2,	r7	;r3 As==10
 678:	63 2d       	jc	$+712    	;abs 0x940
 67a:	34 2e       	jc	$-918    	;abs 0x2e4
 67c:	36 2e       	jc	$-914    	;abs 0x2ea
 67e:	33 2f       	jc	$-408    	;abs 0x4e6
 680:	67 63       	addc.b	#2,	r7	;r3 As==10
 682:	63 2f       	jc	$-312    	;abs 0x54a
 684:	63 6f       	.word	0x6f63;	????	Illegal as 2-op instr
 686:	6e 66       	addc.b	@r6,	r14	
 688:	69 67       	addc.b	@r7,	r9	
 68a:	2f 6d       	addc	@r13,	r15	
 68c:	73 70       	.word	0x7073;	????	Illegal as 2-op instr
 68e:	34 33       	jn	$-406    	;abs 0x4f8
 690:	30 00       	.word	0x0030;	????	
 692:	00 63       	adc	r0		
 694:	72 74       	subc.b	@r4+,	r2	
 696:	30 2e       	jc	$-926    	;abs 0x2f8
 698:	53 00       	.word	0x0053;	????	
 69a:	01 00       	.word	0x0001;	????	
 69c:	00 00       	.word	0x0000;	????	
 69e:	00 03       	.word	0x0300;	????	
 6a0:	02 0c       	.word	0x0c02;	????	
 6a2:	c0 03       	.word	0x03c0;	????	
 6a4:	99 01       	.word	0x0199;	????	
 6a6:	01 02       	.word	0x0201;	????	
 6a8:	04 00       	.word	0x0004;	????	
 6aa:	01 01       	.word	0x0101;	????	
 6ac:	84 00       	.word	0x0084;	????	
 6ae:	00 00       	.word	0x0000;	????	
 6b0:	02 00       	.word	0x0002;	????	
 6b2:	6a 00       	.word	0x006a;	????	
 6b4:	00 00       	.word	0x0000;	????	
 6b6:	01 01       	.word	0x0101;	????	
 6b8:	fb 0e       	.word	0x0efb;	????	
 6ba:	0d 00       	.word	0x000d;	????	
 6bc:	01 01       	.word	0x0101;	????	
 6be:	01 01       	.word	0x0101;	????	
 6c0:	00 00       	.word	0x0000;	????	
 6c2:	00 01       	.word	0x0100;	????	
 6c4:	00 00       	.word	0x0000;	????	
 6c6:	01 2f       	jc	$-508    	;abs 0x4ca
 6c8:	62 75       	subc.b	@r5,	r2	
 6ca:	69 6c       	addc.b	@r12,	r9	
 6cc:	64 2f       	jc	$-310    	;abs 0x596
 6ce:	62 75       	subc.b	@r5,	r2	
 6d0:	69 6c       	addc.b	@r12,	r9	
 6d2:	64 64       	addc.b	@r4,	r4	
 6d4:	2f 67       	addc	@r7,	r15	
 6d6:	63 63       	.word	0x6363;	????	Illegal as 2-op instr
 6d8:	2d 6d       	addc	@r13,	r13	
 6da:	73 70       	.word	0x7073;	????	Illegal as 2-op instr
 6dc:	34 33       	jn	$-406    	;abs 0x546
 6de:	30 2d       	jc	$+610    	;abs 0x940
 6e0:	34 2e       	jc	$-918    	;abs 0x34a
 6e2:	36 2e       	jc	$-914    	;abs 0x350
 6e4:	33 7e       	.word	0x7e33;	????	Illegal as 2-op instr
 6e6:	6d 73       	subc.b	#2,	r13	;r3 As==10
 6e8:	70 67       	addc.b	@r7+,	r0	
 6ea:	63 63       	.word	0x6363;	????	Illegal as 2-op instr
 6ec:	2d 32       	jn	$-932    	;abs 0x348
 6ee:	30 31       	jn	$+610    	;abs 0x950
 6f0:	32 30       	jn	$+102    	;abs 0x756
 6f2:	34 30       	jn	$+106    	;abs 0x75c
 6f4:	36 2f       	jc	$-402    	;abs 0x562
 6f6:	2e 2f       	jc	$-418    	;abs 0x554
 6f8:	67 63       	addc.b	#2,	r7	;r3 As==10
 6fa:	63 2d       	jc	$+712    	;abs 0x9c2
 6fc:	34 2e       	jc	$-918    	;abs 0x366
 6fe:	36 2e       	jc	$-914    	;abs 0x36c
 700:	33 2f       	jc	$-408    	;abs 0x568
 702:	67 63       	addc.b	#2,	r7	;r3 As==10
 704:	63 2f       	jc	$-312    	;abs 0x5cc
 706:	63 6f       	.word	0x6f63;	????	Illegal as 2-op instr
 708:	6e 66       	addc.b	@r6,	r14	
 70a:	69 67       	addc.b	@r7,	r9	
 70c:	2f 6d       	addc	@r13,	r15	
 70e:	73 70       	.word	0x7073;	????	Illegal as 2-op instr
 710:	34 33       	jn	$-406    	;abs 0x57a
 712:	30 00       	.word	0x0030;	????	
 714:	00 63       	adc	r0		
 716:	72 74       	subc.b	@r4+,	r2	
 718:	30 2e       	jc	$-926    	;abs 0x37a
 71a:	53 00       	.word	0x0053;	????	
 71c:	01 00       	.word	0x0001;	????	
 71e:	00 00       	.word	0x0000;	????	
 720:	00 03       	.word	0x0300;	????	
 722:	02 10       	rrc	r2		
 724:	c0 03       	.word	0x03c0;	????	
 726:	bc 01       	.word	0x01bc;	????	
 728:	01 4b       	mov	r11,	r1	
 72a:	2f 30       	jn	$+96     	;abs 0x78a
 72c:	67 2f       	jc	$-304    	;abs 0x5fc
 72e:	67 02       	.word	0x0267;	????	
 730:	02 00       	.word	0x0002;	????	
 732:	01 01       	.word	0x0101;	????	
 734:	84 00       	.word	0x0084;	????	
 736:	00 00       	.word	0x0000;	????	
 738:	02 00       	.word	0x0002;	????	
 73a:	6a 00       	.word	0x006a;	????	
 73c:	00 00       	.word	0x0000;	????	
 73e:	01 01       	.word	0x0101;	????	
 740:	fb 0e       	.word	0x0efb;	????	
 742:	0d 00       	.word	0x000d;	????	
 744:	01 01       	.word	0x0101;	????	
 746:	01 01       	.word	0x0101;	????	
 748:	00 00       	.word	0x0000;	????	
 74a:	00 01       	.word	0x0100;	????	
 74c:	00 00       	.word	0x0000;	????	
 74e:	01 2f       	jc	$-508    	;abs 0x552
 750:	62 75       	subc.b	@r5,	r2	
 752:	69 6c       	addc.b	@r12,	r9	
 754:	64 2f       	jc	$-310    	;abs 0x61e
 756:	62 75       	subc.b	@r5,	r2	
 758:	69 6c       	addc.b	@r12,	r9	
 75a:	64 64       	addc.b	@r4,	r4	
 75c:	2f 67       	addc	@r7,	r15	
 75e:	63 63       	.word	0x6363;	????	Illegal as 2-op instr
 760:	2d 6d       	addc	@r13,	r13	
 762:	73 70       	.word	0x7073;	????	Illegal as 2-op instr
 764:	34 33       	jn	$-406    	;abs 0x5ce
 766:	30 2d       	jc	$+610    	;abs 0x9c8
 768:	34 2e       	jc	$-918    	;abs 0x3d2
 76a:	36 2e       	jc	$-914    	;abs 0x3d8
 76c:	33 7e       	.word	0x7e33;	????	Illegal as 2-op instr
 76e:	6d 73       	subc.b	#2,	r13	;r3 As==10
 770:	70 67       	addc.b	@r7+,	r0	
 772:	63 63       	.word	0x6363;	????	Illegal as 2-op instr
 774:	2d 32       	jn	$-932    	;abs 0x3d0
 776:	30 31       	jn	$+610    	;abs 0x9d8
 778:	32 30       	jn	$+102    	;abs 0x7de
 77a:	34 30       	jn	$+106    	;abs 0x7e4
 77c:	36 2f       	jc	$-402    	;abs 0x5ea
 77e:	2e 2f       	jc	$-418    	;abs 0x5dc
 780:	67 63       	addc.b	#2,	r7	;r3 As==10
 782:	63 2d       	jc	$+712    	;abs 0xa4a
 784:	34 2e       	jc	$-918    	;abs 0x3ee
 786:	36 2e       	jc	$-914    	;abs 0x3f4
 788:	33 2f       	jc	$-408    	;abs 0x5f0
 78a:	67 63       	addc.b	#2,	r7	;r3 As==10
 78c:	63 2f       	jc	$-312    	;abs 0x654
 78e:	63 6f       	.word	0x6f63;	????	Illegal as 2-op instr
 790:	6e 66       	addc.b	@r6,	r14	
 792:	69 67       	addc.b	@r7,	r9	
 794:	2f 6d       	addc	@r13,	r15	
 796:	73 70       	.word	0x7073;	????	Illegal as 2-op instr
 798:	34 33       	jn	$-406    	;abs 0x602
 79a:	30 00       	.word	0x0030;	????	
 79c:	00 63       	adc	r0		
 79e:	72 74       	subc.b	@r4+,	r2	
 7a0:	30 2e       	jc	$-926    	;abs 0x402
 7a2:	53 00       	.word	0x0053;	????	
 7a4:	01 00       	.word	0x0001;	????	
 7a6:	00 00       	.word	0x0000;	????	
 7a8:	00 03       	.word	0x0300;	????	
 7aa:	02 28       	jnc	$+6      	;abs 0x7b0
 7ac:	c0 03       	.word	0x03c0;	????	
 7ae:	d6 01       	.word	0x01d6;	????	
 7b0:	01 4b       	mov	r11,	r1	
 7b2:	2f 30       	jn	$+96     	;abs 0x812
 7b4:	67 2f       	jc	$-304    	;abs 0x684
 7b6:	4b 02       	.word	0x024b;	????	
 7b8:	02 00       	.word	0x0002;	????	
 7ba:	01 01       	.word	0x0101;	????	
 7bc:	7f 00       	.word	0x007f;	????	
 7be:	00 00       	.word	0x0000;	????	
 7c0:	02 00       	.word	0x0002;	????	
 7c2:	6a 00       	.word	0x006a;	????	
 7c4:	00 00       	.word	0x0000;	????	
 7c6:	01 01       	.word	0x0101;	????	
 7c8:	fb 0e       	.word	0x0efb;	????	
 7ca:	0d 00       	.word	0x000d;	????	
 7cc:	01 01       	.word	0x0101;	????	
 7ce:	01 01       	.word	0x0101;	????	
 7d0:	00 00       	.word	0x0000;	????	
 7d2:	00 01       	.word	0x0100;	????	
 7d4:	00 00       	.word	0x0000;	????	
 7d6:	01 2f       	jc	$-508    	;abs 0x5da
 7d8:	62 75       	subc.b	@r5,	r2	
 7da:	69 6c       	addc.b	@r12,	r9	
 7dc:	64 2f       	jc	$-310    	;abs 0x6a6
 7de:	62 75       	subc.b	@r5,	r2	
 7e0:	69 6c       	addc.b	@r12,	r9	
 7e2:	64 64       	addc.b	@r4,	r4	
 7e4:	2f 67       	addc	@r7,	r15	
 7e6:	63 63       	.word	0x6363;	????	Illegal as 2-op instr
 7e8:	2d 6d       	addc	@r13,	r13	
 7ea:	73 70       	.word	0x7073;	????	Illegal as 2-op instr
 7ec:	34 33       	jn	$-406    	;abs 0x656
 7ee:	30 2d       	jc	$+610    	;abs 0xa50
 7f0:	34 2e       	jc	$-918    	;abs 0x45a
 7f2:	36 2e       	jc	$-914    	;abs 0x460
 7f4:	33 7e       	.word	0x7e33;	????	Illegal as 2-op instr
 7f6:	6d 73       	subc.b	#2,	r13	;r3 As==10
 7f8:	70 67       	addc.b	@r7+,	r0	
 7fa:	63 63       	.word	0x6363;	????	Illegal as 2-op instr
 7fc:	2d 32       	jn	$-932    	;abs 0x458
 7fe:	30 31       	jn	$+610    	;abs 0xa60
 800:	32 30       	jn	$+102    	;abs 0x866
 802:	34 30       	jn	$+106    	;abs 0x86c
 804:	36 2f       	jc	$-402    	;abs 0x672
 806:	2e 2f       	jc	$-418    	;abs 0x664
 808:	67 63       	addc.b	#2,	r7	;r3 As==10
 80a:	63 2d       	jc	$+712    	;abs 0xad2
 80c:	34 2e       	jc	$-918    	;abs 0x476
 80e:	36 2e       	jc	$-914    	;abs 0x47c
 810:	33 2f       	jc	$-408    	;abs 0x678
 812:	67 63       	addc.b	#2,	r7	;r3 As==10
 814:	63 2f       	jc	$-312    	;abs 0x6dc
 816:	63 6f       	.word	0x6f63;	????	Illegal as 2-op instr
 818:	6e 66       	addc.b	@r6,	r14	
 81a:	69 67       	addc.b	@r7,	r9	
 81c:	2f 6d       	addc	@r13,	r15	
 81e:	73 70       	.word	0x7073;	????	Illegal as 2-op instr
 820:	34 33       	jn	$-406    	;abs 0x68a
 822:	30 00       	.word	0x0030;	????	
 824:	00 63       	adc	r0		
 826:	72 74       	subc.b	@r4+,	r2	
 828:	30 2e       	jc	$-926    	;abs 0x48a
 82a:	53 00       	.word	0x0053;	????	
 82c:	01 00       	.word	0x0001;	????	
 82e:	00 00       	.word	0x0000;	????	
 830:	00 03       	.word	0x0300;	????	
 832:	02 dc       	bis	r12,	r2	
 834:	c0 03       	.word	0x03c0;	????	
 836:	fe 01       	.word	0x01fe;	????	
 838:	01 4b       	mov	r11,	r1	
 83a:	02 02       	.word	0x0202;	????	
 83c:	00 01       	.word	0x0100;	????	
 83e:	01 7e       	subc	r14,	r1	
 840:	00 00       	.word	0x0000;	????	
 842:	00 02       	.word	0x0200;	????	
 844:	00 6a       	addc	r10,	r0	
 846:	00 00       	.word	0x0000;	????	
 848:	00 01       	.word	0x0100;	????	
 84a:	01 fb       	and	r11,	r1	
 84c:	0e 0d       	.word	0x0d0e;	????	
 84e:	00 01       	.word	0x0100;	????	
 850:	01 01       	.word	0x0101;	????	
 852:	01 00       	.word	0x0001;	????	
 854:	00 00       	.word	0x0000;	????	
 856:	01 00       	.word	0x0001;	????	
 858:	00 01       	.word	0x0100;	????	
 85a:	2f 62       	addc	#4,	r15	;r2 As==10
 85c:	75 69       	addc.b	@r9+,	r5	
 85e:	6c 64       	addc.b	@r4,	r12	
 860:	2f 62       	addc	#4,	r15	;r2 As==10
 862:	75 69       	addc.b	@r9+,	r5	
 864:	6c 64       	addc.b	@r4,	r12	
 866:	64 2f       	jc	$-310    	;abs 0x730
 868:	67 63       	addc.b	#2,	r7	;r3 As==10
 86a:	63 2d       	jc	$+712    	;abs 0xb32
 86c:	6d 73       	subc.b	#2,	r13	;r3 As==10
 86e:	70 34       	jge	$+226    	;abs 0x950
 870:	33 30       	jn	$+104    	;abs 0x8d8
 872:	2d 34       	jge	$+92     	;abs 0x8ce
 874:	2e 36       	jge	$-930    	;abs 0x4d2
 876:	2e 33       	jn	$-418    	;abs 0x6d4
 878:	7e 6d       	addc.b	@r13+,	r14	
 87a:	73 70       	.word	0x7073;	????	Illegal as 2-op instr
 87c:	67 63       	addc.b	#2,	r7	;r3 As==10
 87e:	63 2d       	jc	$+712    	;abs 0xb46
 880:	32 30       	jn	$+102    	;abs 0x8e6
 882:	31 32       	jn	$-924    	;abs 0x4e6
 884:	30 34       	jge	$+98     	;abs 0x8e6
 886:	30 36       	jge	$-926    	;abs 0x4e8
 888:	2f 2e       	jc	$-928    	;abs 0x4e8
 88a:	2f 67       	addc	@r7,	r15	
 88c:	63 63       	.word	0x6363;	????	Illegal as 2-op instr
 88e:	2d 34       	jge	$+92     	;abs 0x8ea
 890:	2e 36       	jge	$-930    	;abs 0x4ee
 892:	2e 33       	jn	$-418    	;abs 0x6f0
 894:	2f 67       	addc	@r7,	r15	
 896:	63 63       	.word	0x6363;	????	Illegal as 2-op instr
 898:	2f 63       	addc	#2,	r15	;r3 As==10
 89a:	6f 6e       	addc.b	@r14,	r15	
 89c:	66 69       	addc.b	@r9,	r6	
 89e:	67 2f       	jc	$-304    	;abs 0x76e
 8a0:	6d 73       	subc.b	#2,	r13	;r3 As==10
 8a2:	70 34       	jge	$+226    	;abs 0x984
 8a4:	33 30       	jn	$+104    	;abs 0x90c
 8a6:	00 00       	.word	0x0000;	????	
 8a8:	63 72       	.word	0x7263;	????	Illegal as 2-op instr
 8aa:	74 30       	jn	$+234    	;abs 0x994
 8ac:	2e 53       	incd	r14		
 8ae:	00 01       	.word	0x0100;	????	
 8b0:	00 00       	.word	0x0000;	????	
 8b2:	00 00       	.word	0x0000;	????	
 8b4:	03 02       	.word	0x0203;	????	
 8b6:	8e d3 03 cd 	bis	#0,	-13053(r14);r3 As==00, 0xcd03(r14)
 8ba:	02 01       	.word	0x0102;	????	
 8bc:	02 02       	.word	0x0202;	????	
 8be:	00 01       	.word	0x0100;	????	
 8c0:	01 69       	Address 0x00000000000008c0 is out of bounds.
Address 0x00000000000008c2 is out of bounds.
and.b	@r15+,	-1(r15)	;0xffff(r15)

Disassembly of section .debug_frame:

00000000 <.debug_frame>:
   0:	0e 00       	.word	0x000e;	????	
   2:	00 00       	.word	0x0000;	????	
   4:	ff ff ff ff 	and.b	@r15+,	-1(r15)	;0xffff(r15)
   8:	01 00       	.word	0x0001;	????	
   a:	01 7e       	subc	r14,	r1	
   c:	00 0c       	.word	0x0c00;	????	
   e:	01 02       	.word	0x0201;	????	
  10:	80 01       	.word	0x0180;	????	
  12:	08 00       	.word	0x0008;	????	
  14:	00 00       	.word	0x0000;	????	
  16:	00 00       	.word	0x0000;	????	
  18:	00 00       	.word	0x0000;	????	
  1a:	6c c9       	bic.b	@r9,	r12	
  1c:	22 00       	.word	0x0022;	????	
  1e:	16 00       	.word	0x0016;	????	
  20:	00 00       	.word	0x0000;	????	
  22:	00 00       	.word	0x0000;	????	
  24:	00 00       	.word	0x0000;	????	
  26:	8e c9 3c 00 	bic	r9,	60(r14)	;0x003c(r14)
  2a:	42 0e       	.word	0x0e42;	????	
  2c:	04 8b       	sub	r11,	r4	
  2e:	02 42       	mov	r2,	r2	
  30:	0e 06       	.word	0x060e;	????	
  32:	8a 03       	.word	0x038a;	????	
  34:	42 0e       	.word	0x0e42;	????	
  36:	08 00       	.word	0x0008;	????	
  38:	08 00       	.word	0x0008;	????	
  3a:	00 00       	.word	0x0000;	????	
  3c:	00 00       	.word	0x0000;	????	
  3e:	00 00       	.word	0x0000;	????	
  40:	ca c9 1c 00 	bic.b	r9,	28(r10)	;0x001c(r10)
  44:	08 00       	.word	0x0008;	????	
  46:	00 00       	.word	0x0000;	????	
  48:	00 00       	.word	0x0000;	????	
  4a:	00 00       	.word	0x0000;	????	
  4c:	e6 c9 1a 00 	bic.b	@r9,	26(r6)	;0x001a(r6)
  50:	08 00       	.word	0x0008;	????	
  52:	00 00       	.word	0x0000;	????	
  54:	00 00       	.word	0x0000;	????	
  56:	00 00       	.word	0x0000;	????	
  58:	00 ca       	bic	r10,	r0	
  5a:	16 00       	.word	0x0016;	????	
  5c:	08 00       	.word	0x0008;	????	
  5e:	00 00       	.word	0x0000;	????	
  60:	00 00       	.word	0x0000;	????	
  62:	00 00       	.word	0x0000;	????	
  64:	16 ca 12 00 	bic	18(r10),r6	;0x0012(r10)
  68:	0e 00       	.word	0x000e;	????	
  6a:	00 00       	.word	0x0000;	????	
  6c:	ff ff ff ff 	and.b	@r15+,	-1(r15)	;0xffff(r15)
  70:	01 00       	.word	0x0001;	????	
  72:	01 7e       	subc	r14,	r1	
  74:	00 0c       	.word	0x0c00;	????	
  76:	01 02       	.word	0x0201;	????	
  78:	80 01       	.word	0x0180;	????	
  7a:	34 00       	.word	0x0034;	????	
  7c:	00 00       	.word	0x0000;	????	
  7e:	68 00       	.word	0x0068;	????	
  80:	00 00       	.word	0x0000;	????	
  82:	28 ca       	bic	@r10,	r8	
  84:	98 01       	.word	0x0198;	????	
  86:	42 0e       	.word	0x0e42;	????	
  88:	04 8b       	sub	r11,	r4	
  8a:	02 42       	mov	r2,	r2	
  8c:	0e 06       	.word	0x060e;	????	
  8e:	8a 03       	.word	0x038a;	????	
  90:	42 0e       	.word	0x0e42;	????	
  92:	08 89       	sub	r9,	r8	
  94:	04 42       	mov	r2,	r4	
  96:	0e 0a       	.word	0x0a0e;	????	
  98:	88 05       	.word	0x0588;	????	
  9a:	42 0e       	.word	0x0e42;	????	
  9c:	0c 87       	sub	r7,	r12	
  9e:	06 42       	mov	r2,	r6	
  a0:	0e 0e       	.word	0x0e0e;	????	
  a2:	86 07       	.word	0x0786;	????	
  a4:	42 0e       	.word	0x0e42;	????	
  a6:	10 85 08 42 	sub	16904(r5),r0	;0x4208(r5)
  aa:	0e 12       	push	r14		
  ac:	84 09       	.word	0x0984;	????	
  ae:	42 0e       	.word	0x0e42;	????	
  b0:	1a 00       	.word	0x001a;	????	
  b2:	62 00       	.word	0x0062;	????	
  b4:	00 00       	.word	0x0000;	????	
  b6:	68 00       	.word	0x0068;	????	
  b8:	00 00       	.word	0x0000;	????	
  ba:	c0 cb 9e 06 	bic.b	r11,	1694(r0);PC rel. 0x075a
  be:	42 0e       	.word	0x0e42;	????	
  c0:	04 8b       	sub	r11,	r4	
  c2:	02 42       	mov	r2,	r2	
  c4:	0e 06       	.word	0x060e;	????	
  c6:	8a 03       	.word	0x038a;	????	
  c8:	42 0e       	.word	0x0e42;	????	
  ca:	08 89       	sub	r9,	r8	
  cc:	04 42       	mov	r2,	r4	
  ce:	0e 0a       	.word	0x0a0e;	????	
  d0:	88 05       	.word	0x0588;	????	
  d2:	42 0e       	.word	0x0e42;	????	
  d4:	0c 87       	sub	r7,	r12	
  d6:	06 42       	mov	r2,	r6	
  d8:	0e 0e       	.word	0x0e0e;	????	
  da:	86 07       	.word	0x0786;	????	
  dc:	42 0e       	.word	0x0e42;	????	
  de:	10 85 08 42 	sub	16904(r5),r0	;0x4208(r5)
  e2:	0e 12       	push	r14		
  e4:	84 09       	.word	0x0984;	????	
  e6:	44 0e       	.word	0x0e44;	????	
  e8:	5c 03       	.word	0x035c;	????	
  ea:	66 02       	.word	0x0266;	????	
  ec:	0e 60       	addc	r0,	r14	
  ee:	48 2e       	jc	$-878    	;abs 0xfd80
  f0:	04 46       	mov	r6,	r4	
  f2:	0e 5c       	add	r12,	r14	
  f4:	03 be       	.word	0xbe03;	????	Illegal as 2-op instr
  f6:	01 0e       	.word	0x0e01;	????	
  f8:	64 4a       	mov.b	@r10,	r4	
  fa:	2e 08       	.word	0x082e;	????	
  fc:	46 0e       	.word	0x0e46;	????	
  fe:	5c 7e 0e 64 	subc.b	25614(r14),r12	;0x640e(r14)
 102:	50 0e       	.word	0x0e50;	????	
 104:	5c 02       	.word	0x025c;	????	
 106:	56 2e       	jc	$-850    	;abs 0xfdb4
 108:	00 03       	.word	0x0300;	????	
 10a:	2a 01       	.word	0x012a;	????	
 10c:	0e 60       	addc	r0,	r14	
 10e:	4c 2e       	jc	$-870    	;abs 0xfda8
 110:	04 46       	mov	r6,	r4	
 112:	0e 5c       	add	r12,	r14	
 114:	4a 2e       	jc	$-874    	;abs 0xfdaa
	...

Disassembly of section .debug_str:

00000000 <.debug_str>:
   0:	73 69       	.word	0x6973;	????	Illegal as 2-op instr
   2:	7a 65       	addc.b	@r5+,	r10	
   4:	5f 74 00 5f 	subc.b	24320(r4),r15	;0x5f00(r4)
   8:	5f 62 75 69 	addc.b	&0x6975,r15	
   c:	6c 74       	subc.b	@r4,	r12	
   e:	69 6e       	addc.b	@r14,	r9	
  10:	5f 76 61 5f 	subc.b	24417(r6),r15	;0x5f61(r6)
  14:	6c 69       	addc.b	@r9,	r12	
  16:	73 74       	.word	0x7473;	????	Illegal as 2-op instr
  18:	00 76       	subc	r6,	r0	
  1a:	73 6e       	.word	0x6e73;	????	Illegal as 2-op instr
  1c:	70 72       	subc.b	#8,	r0	;r2 As==11
  1e:	69 6e       	addc.b	@r14,	r9	
  20:	74 66       	addc.b	@r6+,	r4	
  22:	00 64       	addc	r4,	r0	
  24:	65 73       	subc.b	#2,	r5	;r3 As==10
  26:	74 69       	addc.b	@r9+,	r4	
  28:	6e 61       	addc.b	@r1,	r14	
  2a:	74 69       	addc.b	@r9+,	r4	
  2c:	6f 6e       	addc.b	@r14,	r15	
  2e:	00 5f       	add	r15,	r0	
  30:	5f 67 6e 75 	addc.b	30062(r7),r15	;0x756e(r7)
  34:	63 5f       	.word	0x5f63;	????	Illegal as 2-op instr
  36:	76 61       	addc.b	@r1+,	r6	
  38:	5f 6c 69 73 	addc.b	29545(r12),r15	;0x7369(r12)
  3c:	74 00       	.word	0x0074;	????	
  3e:	2f 62       	addc	#4,	r15	;r2 As==10
  40:	75 69       	addc.b	@r9+,	r5	
  42:	6c 64       	addc.b	@r4,	r12	
  44:	2f 62       	addc	#4,	r15	;r2 As==10
  46:	75 69       	addc.b	@r9+,	r5	
  48:	6c 64       	addc.b	@r4,	r12	
  4a:	64 2f       	jc	$-310    	;abs 0xff14
  4c:	6d 73       	subc.b	#2,	r13	;r3 As==10
  4e:	70 34       	jge	$+226    	;abs 0x130
  50:	33 30       	jn	$+104    	;abs 0xb8
  52:	2d 6c       	addc	@r12,	r13	
  54:	69 62       	addc.b	#4,	r9	;r2 As==10
  56:	63 2d       	jc	$+712    	;abs 0x31e
  58:	32 30       	jn	$+102    	;abs 0xbe
  5a:	31 32       	jn	$-924    	;abs 0xfcbe
  5c:	30 32       	jn	$-926    	;abs 0xfcbe
  5e:	32 34       	jge	$+102    	;abs 0xc4
  60:	2f 73       	subc	#2,	r15	;r3 As==10
  62:	72 63       	addc.b	#-1,	r2	;r3 As==11
  64:	00 75       	subc	r5,	r0	
  66:	6e 73       	subc.b	#2,	r14	;r3 As==10
  68:	69 67       	addc.b	@r7,	r9	
  6a:	6e 65       	addc.b	@r5,	r14	
  6c:	64 20       	jnz	$+202    	;abs 0x136
  6e:	63 68       	.word	0x6863;	????	Illegal as 2-op instr
  70:	61 72       	subc.b	#4,	r1	;r2 As==10
  72:	00 73       	sbc	r0		
  74:	68 6f       	addc.b	@r15,	r8	
  76:	72 74       	subc.b	@r4+,	r2	
  78:	20 75       	subc	@r5,	r0	
  7a:	6e 73       	subc.b	#2,	r14	;r3 As==10
  7c:	69 67       	addc.b	@r7,	r9	
  7e:	6e 65       	addc.b	@r5,	r14	
  80:	64 20       	jnz	$+202    	;abs 0x14a
  82:	69 6e       	addc.b	@r14,	r9	
  84:	74 00       	.word	0x0074;	????	
  86:	61 76       	subc.b	@r6,	r1	
  88:	61 69       	addc.b	@r9,	r1	
  8a:	6c 61       	addc.b	@r1,	r12	
  8c:	62 6c       	addc.b	@r12,	r2	
  8e:	65 00       	.word	0x0065;	????	
  90:	61 72       	subc.b	#4,	r1	;r2 As==10
  92:	67 70       	subc.b	@r0,	r7	
  94:	00 6c       	addc	r12,	r0	
  96:	6f 6e       	addc.b	@r14,	r15	
  98:	67 20       	jnz	$+208    	;abs 0x168
  9a:	6c 6f       	addc.b	@r15,	r12	
  9c:	6e 67       	addc.b	@r7,	r14	
  9e:	20 75       	subc	@r5,	r0	
  a0:	6e 73       	subc.b	#2,	r14	;r3 As==10
  a2:	69 67       	addc.b	@r7,	r9	
  a4:	6e 65       	addc.b	@r5,	r14	
  a6:	64 20       	jnz	$+202    	;abs 0x170
  a8:	69 6e       	addc.b	@r14,	r9	
  aa:	74 00       	.word	0x0074;	????	
  ac:	61 76       	subc.b	@r6,	r1	
  ae:	61 69       	addc.b	@r9,	r1	
  b0:	6c 61       	addc.b	@r1,	r12	
  b2:	62 6c       	addc.b	@r12,	r2	
  b4:	65 5f       	add.b	@r15,	r5	
  b6:	00 64       	addc	r4,	r0	
  b8:	65 73       	subc.b	#2,	r5	;r3 As==10
  ba:	74 69       	addc.b	@r9+,	r4	
  bc:	6e 61       	addc.b	@r1,	r14	
  be:	74 69       	addc.b	@r9+,	r4	
  c0:	6f 6e       	addc.b	@r14,	r15	
  c2:	5f 00       	.word	0x005f;	????	
  c4:	6c 6f       	addc.b	@r15,	r12	
  c6:	6e 67       	addc.b	@r7,	r14	
  c8:	20 6c       	addc	@r12,	r0	
  ca:	6f 6e       	addc.b	@r14,	r15	
  cc:	67 20       	jnz	$+208    	;abs 0x19c
  ce:	69 6e       	addc.b	@r14,	r9	
  d0:	74 00       	.word	0x0074;	????	
  d2:	2e 2f       	jc	$-418    	;abs 0xff30
  d4:	73 74       	.word	0x7473;	????	Illegal as 2-op instr
  d6:	64 6c       	addc.b	@r12,	r4	
  d8:	69 62       	addc.b	#4,	r9	;r2 As==10
  da:	2f 73       	subc	#2,	r15	;r3 As==10
  dc:	70 72       	subc.b	#8,	r0	;r2 As==11
  de:	69 6e       	addc.b	@r14,	r9	
  e0:	74 66       	addc.b	@r6+,	r4	
  e2:	2e 63       	addc	#2,	r14	;r3 As==10
  e4:	00 47       	br	r7		
  e6:	4e 55       	add.b	r5,	r14	
  e8:	20 43       	br	#2		;r3 As==10
  ea:	20 34       	jge	$+66     	;abs 0x12c
  ec:	2e 36       	jge	$-930    	;abs 0xfd4a
  ee:	2e 33       	jn	$-418    	;abs 0xff4c
  f0:	20 32       	jn	$-958    	;abs 0xfd32
  f2:	30 31       	jn	$+610    	;abs 0x354
  f4:	32 30       	jn	$+102    	;abs 0x15a
  f6:	33 30       	jn	$+104    	;abs 0x15e
  f8:	31 20       	jnz	$+100    	;abs 0x15c
  fa:	28 6d       	addc	@r13,	r8	
  fc:	73 70       	.word	0x7073;	????	Illegal as 2-op instr
  fe:	67 63       	addc.b	#2,	r7	;r3 As==10
 100:	63 20       	jnz	$+200    	;abs 0x1c8
 102:	4c 54       	add.b	r4,	r12	
 104:	53 20       	jnz	$+168    	;abs 0x1ac
 106:	32 30       	jn	$+102    	;abs 0x16c
 108:	31 32       	jn	$-924    	;abs 0xfd6c
 10a:	30 34       	jge	$+98     	;abs 0x16c
 10c:	30 36       	jge	$-926    	;abs 0xfd6e
 10e:	20 75       	subc	@r5,	r0	
 110:	6e 70       	subc.b	@r0,	r14	
 112:	61 74       	subc.b	@r4,	r1	
 114:	63 68       	.word	0x6863;	????	Illegal as 2-op instr
 116:	65 64       	addc.b	@r4,	r5	
 118:	29 00       	.word	0x0029;	????	
 11a:	61 70       	subc.b	@r0,	r1	
 11c:	70 65       	addc.b	@r5+,	r0	
 11e:	6e 64       	addc.b	@r4,	r14	
 120:	00 63       	adc	r0		
 122:	61 6c       	addc.b	@r12,	r1	
 124:	6c 5f       	add.b	@r15,	r12	
 126:	76 75       	subc.b	@r5+,	r6	
 128:	70 72       	subc.b	#8,	r0	;r2 As==11
 12a:	69 6e       	addc.b	@r14,	r9	
 12c:	74 66       	addc.b	@r6+,	r4	
 12e:	00 73       	sbc	r0		
 130:	69 7a       	subc.b	@r10,	r9	
 132:	65 00       	.word	0x0065;	????	
 134:	76 73       	subc.b	#-1,	r6	;r3 As==11
 136:	70 72       	subc.b	#8,	r0	;r2 As==11
 138:	69 6e       	addc.b	@r14,	r9	
 13a:	74 66       	addc.b	@r6+,	r4	
 13c:	00 62       	addc	r2,	r0	
 13e:	61 64       	addc.b	@r4,	r1	
 140:	5f 66 6f 72 	addc.b	29295(r6),r15	;0x726f(r6)
 144:	6d 61       	addc.b	@r1,	r13	
 146:	74 00       	.word	0x0074;	????	
 148:	75 69       	addc.b	@r9+,	r5	
 14a:	6e 74       	subc.b	@r4,	r14	
 14c:	36 34       	jge	$+110    	;abs 0x1ba
 14e:	5f 74 00 69 	subc.b	26880(r4),r15	;0x6900(r4)
 152:	6e 74       	subc.b	@r4,	r14	
 154:	70 74       	subc.b	@r4+,	r0	
 156:	72 5f       	add.b	@r15+,	r2	
 158:	74 00       	.word	0x0074;	????	
 15a:	6d 6f       	addc.b	@r15,	r13	
 15c:	64 65       	addc.b	@r5,	r4	
 15e:	00 65       	addc	r5,	r0	
 160:	6d 69       	addc.b	@r9,	r13	
 162:	74 5f       	add.b	@r15+,	r4	
 164:	6f 63       	addc.b	#2,	r15	;r3 As==10
 166:	74 61       	addc.b	@r1+,	r4	
 168:	6c 5f       	add.b	@r15,	r12	
 16a:	70 72       	subc.b	#8,	r0	;r2 As==11
 16c:	65 66       	addc.b	@r6,	r5	
 16e:	69 78       	subc.b	@r8,	r9	
 170:	00 6c       	addc	r12,	r0	
 172:	65 61       	addc.b	@r1,	r5	
 174:	64 69       	addc.b	@r9,	r4	
 176:	6e 67       	addc.b	@r7,	r14	
 178:	5f 66 69 6c 	addc.b	27753(r6),r15	;0x6c69(r6)
 17c:	6c 00       	.word	0x006c;	????	
 17e:	77 72       	subc.b	#8,	r7	;r2 As==11
 180:	69 74       	subc.b	@r4,	r9	
 182:	65 5f       	add.b	@r15,	r5	
 184:	63 68       	.word	0x6863;	????	Illegal as 2-op instr
 186:	61 72       	subc.b	#4,	r1	;r2 As==10
 188:	00 75       	subc	r5,	r0	
 18a:	69 6e       	addc.b	@r14,	r9	
 18c:	74 38       	jl	$+234    	;abs 0x276
 18e:	5f 74 00 65 	subc.b	25856(r4),r15	;0x6500(r4)
 192:	6d 69       	addc.b	@r9,	r13	
 194:	74 5f       	add.b	@r15+,	r4	
 196:	68 65       	addc.b	@r5,	r8	
 198:	78 5f       	add.b	@r15+,	r8	
 19a:	70 72       	subc.b	#8,	r0	;r2 As==11
 19c:	65 66       	addc.b	@r6,	r5	
 19e:	69 78       	subc.b	@r8,	r9	
 1a0:	00 70       	subc	r0,	r0	
 1a2:	72 65       	addc.b	@r5+,	r2	
 1a4:	66 69       	addc.b	@r9,	r6	
 1a6:	78 5f       	add.b	@r15+,	r8	
 1a8:	6c 65       	addc.b	@r5,	r12	
 1aa:	6e 00       	.word	0x006e;	????	
 1ac:	63 68       	.word	0x6863;	????	Illegal as 2-op instr
 1ae:	61 72       	subc.b	#4,	r1	;r2 As==10
 1b0:	5f 70 00 44 	subc.b	17408(r0),r15	;PC rel. 0x45b2
 1b4:	49 52       	add.b	r2,	r9	
 1b6:	45 43       	clr.b	r5		
 1b8:	54 00       	.word	0x0054;	????	
 1ba:	69 73       	subc.b	#2,	r9	;r3 As==10
 1bc:	5f 7a 65 72 	subc.b	29285(r10),r15	;0x7265(r10)
 1c0:	6f 00       	.word	0x006f;	????	
 1c2:	69 73       	subc.b	#2,	r9	;r3 As==10
 1c4:	5f 61 6c 74 	addc.b	29804(r1),r15	;0x746c(r1)
 1c8:	65 72       	subc.b	#4,	r5	;r2 As==10
 1ca:	6e 61       	addc.b	@r1,	r14	
 1cc:	74 65       	addc.b	@r5+,	r4	
 1ce:	5f 66 6f 72 	addc.b	29295(r6),r15	;0x726f(r6)
 1d2:	6d 00       	.word	0x006d;	????	
 1d4:	69 73       	subc.b	#2,	r9	;r3 As==10
 1d6:	5f 6e 65 67 	addc.b	26469(r14),r15	;0x6765(r14)
 1da:	61 74       	subc.b	@r4,	r1	
 1dc:	69 76       	subc.b	@r6,	r9	
 1de:	65 00       	.word	0x0065;	????	
 1e0:	69 73       	subc.b	#2,	r9	;r3 As==10
 1e2:	5f 6c 6f 6e 	addc.b	28271(r12),r15	;0x6e6f(r12)
 1e6:	67 36       	jge	$-816    	;abs 0xfeb6
 1e8:	34 00       	.word	0x0034;	????	
 1ea:	73 70       	.word	0x7073;	????	Illegal as 2-op instr
 1ec:	65 63       	addc.b	#2,	r5	;r3 As==10
 1ee:	69 66       	addc.b	@r6,	r9	
 1f0:	69 65       	addc.b	@r5,	r9	
 1f2:	72 00       	.word	0x0072;	????	
 1f4:	75 70 70 65 	subc.b	#25968,	r5	;#0x6570
 1f8:	72 63       	addc.b	#-1,	r2	;r3 As==11
 1fa:	61 73       	subc.b	#2,	r1	;r3 As==10
 1fc:	65 00       	.word	0x0065;	????	
 1fe:	7a 65       	addc.b	@r5+,	r10	
 200:	72 6f       	addc.b	@r15+,	r2	
 202:	5f 70 61 64 	subc.b	25697(r0),r15	;PC rel. 0x6665
 206:	5f 70 72 65 	subc.b	25970(r0),r15	;PC rel. 0x677a
 20a:	63 69       	.word	0x6963;	????	Illegal as 2-op instr
 20c:	73 69       	.word	0x6973;	????	Illegal as 2-op instr
 20e:	6f 6e       	addc.b	@r14,	r15	
 210:	00 68       	addc	r8,	r0	
 212:	61 76       	subc.b	@r6,	r1	
 214:	65 5f       	add.b	@r15,	r5	
 216:	77 70 5f 76 	subc.b	#30303,	r7	;#0x765f
 21a:	61 6c       	addc.b	@r12,	r1	
 21c:	75 65       	addc.b	@r5+,	r5	
 21e:	00 46       	br	r6		
 220:	4f 52       	add.b	r2,	r15	
 222:	4d 41       	mov.b	r1,	r13	
 224:	54 49 4e 47 	mov.b	18254(r9),r4	;0x474e(r9)
 228:	00 70       	subc	r0,	r0	
 22a:	72 69       	addc.b	@r9+,	r2	
 22c:	6e 74       	subc.b	@r4,	r14	
 22e:	5f 66 69 65 	addc.b	25961(r6),r15	;0x6569(r6)
 232:	6c 64       	addc.b	@r4,	r12	
 234:	00 66       	addc	r6,	r0	
 236:	65 74       	subc.b	@r4,	r5	
 238:	63 68       	.word	0x6863;	????	Illegal as 2-op instr
 23a:	5f 6e 75 6d 	addc.b	28021(r14),r15	;0x6d75(r14)
 23e:	62 65       	addc.b	@r5,	r2	
 240:	72 00       	.word	0x0072;	????	
 242:	70 72       	subc.b	#8,	r0	;r2 As==11
 244:	65 66       	addc.b	@r6,	r5	
 246:	69 78       	subc.b	@r8,	r9	
 248:	5f 69 64 78 	addc.b	30820(r9),r15	;0x7864(r9)
 24c:	00 66       	addc	r6,	r0	
 24e:	6c 61       	addc.b	@r1,	r12	
 250:	67 73       	subc.b	#2,	r7	;r3 As==10
 252:	00 75       	subc	r5,	r0	
 254:	69 6e       	addc.b	@r14,	r9	
 256:	74 33       	jn	$-278    	;abs 0x140
 258:	32 5f       	add	@r15+,	r2	
 25a:	74 00       	.word	0x0074;	????	
 25c:	69 73       	subc.b	#2,	r9	;r3 As==10
 25e:	5f 6c 6f 6e 	addc.b	28271(r12),r15	;0x6e6f(r12)
 262:	67 33       	jn	$-304    	;abs 0x132
 264:	32 00       	.word	0x0032;	????	
 266:	75 69       	addc.b	@r9+,	r5	
 268:	6e 74       	subc.b	@r4,	r14	
 26a:	31 36       	jge	$-924    	;abs 0xfece
 26c:	5f 74 00 61 	subc.b	24832(r4),r15	;0x6100(r4)
 270:	72 67       	addc.b	@r7+,	r2	
 272:	73 00       	.word	0x0073;	????	
 274:	70 72       	subc.b	#8,	r0	;r2 As==11
 276:	65 66       	addc.b	@r6,	r5	
 278:	69 78       	subc.b	@r8,	r9	
 27a:	5f 62 75 66 	addc.b	&0x6675,r15	
 27e:	66 65       	addc.b	@r5,	r6	
 280:	72 00       	.word	0x0072;	????	
 282:	72 61       	addc.b	@r1+,	r2	
 284:	64 69       	addc.b	@r9,	r4	
 286:	78 00       	.word	0x0078;	????	
 288:	68 61       	addc.b	@r1,	r8	
 28a:	76 65       	addc.b	@r5+,	r6	
 28c:	5f 70 72 65 	subc.b	25970(r0),r15	;PC rel. 0x6800
 290:	63 69       	.word	0x6963;	????	Illegal as 2-op instr
 292:	73 69       	.word	0x6973;	????	Illegal as 2-op instr
 294:	6f 6e       	addc.b	@r14,	r15	
 296:	00 5f       	add	r15,	r0	
 298:	42 6f       	addc.b	r15,	r2	
 29a:	6f 6c       	addc.b	@r12,	r15	
 29c:	00 6e       	addc	r14,	r0	
 29e:	75 6d       	addc.b	@r13+,	r5	
 2a0:	62 65       	addc.b	@r5,	r2	
 2a2:	72 5f       	add.b	@r15+,	r2	
 2a4:	77 69       	addc.b	@r9+,	r7	
 2a6:	64 74       	subc.b	@r4,	r4	
 2a8:	68 00       	.word	0x0068;	????	
 2aa:	77 72       	subc.b	#8,	r7	;r2 As==11
 2ac:	69 74       	subc.b	@r4,	r9	
 2ae:	65 5f       	add.b	@r15,	r5	
 2b0:	63 68       	.word	0x6863;	????	Illegal as 2-op instr
 2b2:	61 72       	subc.b	#4,	r1	;r2 As==10
 2b4:	61 63       	addc.b	#2,	r1	;r3 As==10
 2b6:	74 65       	addc.b	@r5+,	r4	
 2b8:	72 00       	.word	0x0072;	????	
 2ba:	73 69       	.word	0x6973;	????	Illegal as 2-op instr
 2bc:	67 6e       	addc.b	@r14,	r7	
 2be:	5f 63       	addc.b	#1,	r15	;r3 As==01
 2c0:	68 61       	addc.b	@r1,	r8	
 2c2:	72 00       	.word	0x0072;	????	
 2c4:	74 72       	subc.b	#8,	r4	;r2 As==11
 2c6:	75 6e       	addc.b	@r14+,	r5	
 2c8:	63 61       	.word	0x6163;	????	Illegal as 2-op instr
 2ca:	74 65       	addc.b	@r5+,	r4	
 2cc:	5f 70 72 65 	subc.b	25970(r0),r15	;PC rel. 0x6840
 2d0:	63 69       	.word	0x6963;	????	Illegal as 2-op instr
 2d2:	73 69       	.word	0x6973;	????	Illegal as 2-op instr
 2d4:	6f 6e       	addc.b	@r14,	r15	
 2d6:	00 69       	addc	r9,	r0	
 2d8:	73 5f       	.word	0x5f73;	????	Illegal as 2-op instr
 2da:	73 69       	.word	0x6973;	????	Illegal as 2-op instr
 2dc:	67 6e       	addc.b	@r14,	r7	
 2de:	65 64       	addc.b	@r4,	r5	
 2e0:	00 66       	addc	r6,	r0	
 2e2:	6c 61       	addc.b	@r1,	r12	
 2e4:	67 73       	subc.b	#2,	r7	;r3 As==10
 2e6:	5f 74 00 66 	subc.b	26112(r4),r15	;0x6600(r4)
 2ea:	69 6c       	addc.b	@r12,	r9	
 2ec:	6c 5f       	add.b	@r15,	r12	
 2ee:	7a 65       	addc.b	@r5+,	r10	
 2f0:	72 6f       	addc.b	@r15+,	r2	
 2f2:	00 2e       	jc	$-1022   	;abs 0xfef4
 2f4:	2f 73       	subc	#2,	r15	;r3 As==10
 2f6:	74 64       	addc.b	@r4+,	r4	
 2f8:	6c 69       	addc.b	@r9,	r12	
 2fa:	62 2f       	jc	$-314    	;abs 0x1c0
 2fc:	76 75       	subc.b	@r5+,	r6	
 2fe:	70 72       	subc.b	#8,	r0	;r2 As==11
 300:	69 6e       	addc.b	@r14,	r9	
 302:	74 66       	addc.b	@r6+,	r4	
 304:	2e 63       	addc	#2,	r14	;r3 As==10
 306:	00 64       	addc	r4,	r0	
 308:	69 67       	addc.b	@r7,	r9	
 30a:	69 74       	subc.b	@r4,	r9	
 30c:	00 63       	adc	r0		
 30e:	68 61       	addc.b	@r1,	r8	
 310:	72 61       	addc.b	@r1+,	r2	
 312:	63 74       	.word	0x7463;	????	Illegal as 2-op instr
 314:	65 72       	subc.b	#4,	r5	;r2 As==10
 316:	5f 63       	addc.b	#1,	r15	;r3 As==01
 318:	6f 75       	subc.b	@r5,	r15	
 31a:	6e 74       	subc.b	@r4,	r14	
 31c:	00 65       	addc	r5,	r0	
 31e:	6d 69       	addc.b	@r9,	r13	
 320:	74 5f       	add.b	@r15+,	r4	
 322:	73 74       	.word	0x7473;	????	Illegal as 2-op instr
 324:	72 69       	addc.b	@r9+,	r2	
 326:	6e 67       	addc.b	@r7,	r14	
 328:	00 6c       	addc	r12,	r0	
 32a:	65 66       	addc.b	@r6,	r5	
 32c:	74 5f       	add.b	@r15+,	r4	
 32e:	61 6c       	addc.b	@r12,	r1	
 330:	69 67       	addc.b	@r7,	r9	
 332:	6e 00       	.word	0x006e;	????	
 334:	65 6d       	addc.b	@r13,	r5	
 336:	69 74       	subc.b	@r4,	r9	
 338:	5f 6e 75 6d 	addc.b	28021(r14),r15	;0x6d75(r14)
 33c:	62 65       	addc.b	@r5,	r2	
 33e:	72 00       	.word	0x0072;	????	
 340:	62 75       	subc.b	@r5,	r2	
 342:	69 6c       	addc.b	@r12,	r9	
 344:	64 5f       	add.b	@r15,	r4	
 346:	6e 75       	subc.b	@r5,	r14	
 348:	6d 65       	addc.b	@r5,	r13	
 34a:	72 69       	addc.b	@r9+,	r2	
 34c:	63 5f       	.word	0x5f63;	????	Illegal as 2-op instr
 34e:	70 72       	subc.b	#8,	r0	;r2 As==11
 350:	65 66       	addc.b	@r6,	r5	
 352:	69 78       	subc.b	@r8,	r9	
	...

Disassembly of section .debug_loc:

00000000 <.debug_loc>:
   0:	00 00       	.word	0x0000;	????	
   2:	20 00       	.word	0x0020;	????	
   4:	01 00       	.word	0x0001;	????	
   6:	5f 00       	.word	0x005f;	????	
   8:	00 00       	.word	0x0000;	????	
   a:	00 22       	jnz	$-1022   	;abs 0xfc0c
   c:	00 24       	jz	$+2      	;abs 0xe
   e:	00 02       	.word	0x0200;	????	
  10:	00 71       	subc	r1,	r0	
  12:	02 24       	jz	$+6      	;abs 0x18
  14:	00 26       	jz	$-1022   	;abs 0xfc16
  16:	00 02       	.word	0x0200;	????	
  18:	00 71       	subc	r1,	r0	
  1a:	04 26       	jz	$-1014   	;abs 0xfc24
  1c:	00 28       	jnc	$+2      	;abs 0x1e
  1e:	00 02       	.word	0x0200;	????	
  20:	00 71       	subc	r1,	r0	
  22:	06 28       	jnc	$+14     	;abs 0x30
  24:	00 5e       	add	r14,	r0	
  26:	00 02       	.word	0x0200;	????	
  28:	00 71       	subc	r1,	r0	
  2a:	08 00       	.word	0x0008;	????	
  2c:	00 00       	.word	0x0000;	????	
  2e:	00 22       	jnz	$-1022   	;abs 0xfc30
  30:	00 3c       	jmp	$+2      	;abs 0x32
  32:	00 01       	.word	0x0100;	????	
  34:	00 5f       	add	r15,	r0	
  36:	3c 00       	.word	0x003c;	????	
  38:	3f 00       	.word	0x003f;	????	
  3a:	01 00       	.word	0x0001;	????	
  3c:	5e 00       	.word	0x005e;	????	
  3e:	00 00       	.word	0x0000;	????	
  40:	00 22       	jnz	$-1022   	;abs 0xfc42
  42:	00 38       	jl	$+2      	;abs 0x44
  44:	00 01       	.word	0x0100;	????	
  46:	00 5e       	add	r14,	r0	
  48:	38 00       	.word	0x0038;	????	
  4a:	5e 00       	.word	0x005e;	????	
  4c:	02 00       	.word	0x0002;	????	
  4e:	91 78 00 00 	subc	0(r8),	0(r1)	;0x0000(r8), 0x0000(r1)
  52:	00 00 
  54:	30 00       	.word	0x0030;	????	
  56:	3f 00       	.word	0x003f;	????	
  58:	03 00       	.word	0x0003;	????	
  5a:	03 00       	.word	0x0003;	????	
  5c:	02 3f       	jmp	$-506    	;abs 0xfe62
  5e:	00 5a       	add	r10,	r0	
  60:	00 01       	.word	0x0100;	????	
  62:	00 5a       	add	r10,	r0	
  64:	00 00       	.word	0x0000;	????	
  66:	00 00       	.word	0x0000;	????	
  68:	34 00       	.word	0x0034;	????	
  6a:	3f 00       	.word	0x003f;	????	
  6c:	03 00       	.word	0x0003;	????	
  6e:	03 02       	.word	0x0203;	????	
  70:	02 3f       	jmp	$-506    	;abs 0xfe76
  72:	00 5c       	add	r12,	r0	
  74:	00 01       	.word	0x0100;	????	
  76:	00 5b       	add	r11,	r0	
  78:	00 00       	.word	0x0000;	????	
  7a:	00 00       	.word	0x0000;	????	
  7c:	94 00       	.word	0x0094;	????	
  7e:	a4 00       	.word	0x00a4;	????	
  80:	01 00       	.word	0x0001;	????	
  82:	5f a4 00 a7 	dadd.b	-22784(r4),r15	;0xa700(r4)
  86:	00 03       	.word	0x0300;	????	
  88:	00 03       	.word	0x0300;	????	
  8a:	00 02       	.word	0x0200;	????	
  8c:	00 00       	.word	0x0000;	????	
  8e:	00 00       	.word	0x0000;	????	
  90:	94 00       	.word	0x0094;	????	
  92:	a2 00       	.word	0x00a2;	????	
  94:	01 00       	.word	0x0001;	????	
  96:	5e a2 00 a7 	dadd.b	&0xa700,r14	
  9a:	00 01       	.word	0x0100;	????	
  9c:	00 5c       	add	r12,	r0	
  9e:	00 00       	.word	0x0000;	????	
  a0:	00 00       	.word	0x0000;	????	
  a2:	94 00       	.word	0x0094;	????	
  a4:	a7 00       	.word	0x00a7;	????	
  a6:	01 00       	.word	0x0001;	????	
  a8:	5d 00       	.word	0x005d;	????	
  aa:	00 00       	.word	0x0000;	????	
  ac:	00 aa       	dadd	r10,	r0	
  ae:	00 b6       	bit	r6,	r0	
  b0:	00 01       	.word	0x0100;	????	
  b2:	00 5f       	add	r15,	r0	
  b4:	b6 00       	.word	0x00b6;	????	
  b6:	b9 00       	.word	0x00b9;	????	
  b8:	03 00       	.word	0x0003;	????	
  ba:	03 00       	.word	0x0003;	????	
  bc:	02 00       	.word	0x0002;	????	
  be:	00 00       	.word	0x0000;	????	
  c0:	00 aa       	dadd	r10,	r0	
  c2:	00 b4       	bit	r4,	r0	
  c4:	00 01       	.word	0x0100;	????	
  c6:	00 5e       	add	r14,	r0	
  c8:	b4 00       	.word	0x00b4;	????	
  ca:	b9 00       	.word	0x00b9;	????	
  cc:	03 00       	.word	0x0003;	????	
  ce:	03 02       	.word	0x0203;	????	
  d0:	02 00       	.word	0x0002;	????	
  d2:	00 00       	.word	0x0000;	????	
  d4:	00 aa       	dadd	r10,	r0	
  d6:	00 b9       	bit	r9,	r0	
  d8:	00 01       	.word	0x0100;	????	
  da:	00 5d       	add	r13,	r0	
  dc:	00 00       	.word	0x0000;	????	
  de:	00 00       	.word	0x0000;	????	
  e0:	aa 00       	.word	0x00aa;	????	
  e2:	b9 00       	.word	0x00b9;	????	
  e4:	01 00       	.word	0x0001;	????	
  e6:	5c 00       	.word	0x005c;	????	
  e8:	00 00       	.word	0x0000;	????	
  ea:	00 00       	.word	0x0000;	????	
  ec:	00 02       	.word	0x0200;	????	
  ee:	00 02       	.word	0x0200;	????	
  f0:	00 71       	subc	r1,	r0	
  f2:	02 02       	.word	0x0202;	????	
  f4:	00 04       	.word	0x0400;	????	
  f6:	00 02       	.word	0x0200;	????	
  f8:	00 71       	subc	r1,	r0	
  fa:	04 04       	.word	0x0404;	????	
  fc:	00 06       	.word	0x0600;	????	
  fe:	00 02       	.word	0x0200;	????	
 100:	00 71       	subc	r1,	r0	
 102:	06 06       	.word	0x0606;	????	
 104:	00 08       	.word	0x0800;	????	
 106:	00 02       	.word	0x0200;	????	
 108:	00 71       	subc	r1,	r0	
 10a:	08 08       	.word	0x0808;	????	
 10c:	00 0a       	.word	0x0a00;	????	
 10e:	00 02       	.word	0x0200;	????	
 110:	00 71       	subc	r1,	r0	
 112:	0a 0a       	.word	0x0a0a;	????	
 114:	00 0c       	.word	0x0c00;	????	
 116:	00 02       	.word	0x0200;	????	
 118:	00 71       	subc	r1,	r0	
 11a:	0c 0c       	.word	0x0c0c;	????	
 11c:	00 0e       	.word	0x0e00;	????	
 11e:	00 02       	.word	0x0200;	????	
 120:	00 71       	subc	r1,	r0	
 122:	0e 0e       	.word	0x0e0e;	????	
 124:	00 10       	rrc	r0		
 126:	00 02       	.word	0x0200;	????	
 128:	00 71       	subc	r1,	r0	
 12a:	10 10 00 12 	rrc	4608(r0)	;PC rel. 0x132c
 12e:	00 02       	.word	0x0200;	????	
 130:	00 71       	subc	r1,	r0	
 132:	12 12 00 98 	push	&0x9800	
 136:	01 02       	.word	0x0201;	????	
 138:	00 71       	subc	r1,	r0	
 13a:	1a 00       	.word	0x001a;	????	
 13c:	00 00       	.word	0x0000;	????	
 13e:	00 00       	.word	0x0000;	????	
 140:	00 1e       	.word	0x1e00;	????	
 142:	00 01       	.word	0x0100;	????	
 144:	00 5f       	add	r15,	r0	
 146:	1e 00       	.word	0x001e;	????	
 148:	90 01       	.word	0x0190;	????	
 14a:	01 00       	.word	0x0001;	????	
 14c:	58 00       	.word	0x0058;	????	
 14e:	00 00       	.word	0x0000;	????	
 150:	00 00       	.word	0x0000;	????	
 152:	00 2c       	jc	$+2      	;abs 0x154
 154:	00 01       	.word	0x0100;	????	
 156:	00 5e       	add	r14,	r0	
 158:	2c 00       	.word	0x002c;	????	
 15a:	5e 01       	.word	0x015e;	????	
 15c:	02 00       	.word	0x0002;	????	
 15e:	91 6a 00 00 	addc	0(r10),	0(r1)	;0x0000(r10), 0x0000(r1)
 162:	00 00 
 164:	00 00       	.word	0x0000;	????	
 166:	22 00       	.word	0x0022;	????	
 168:	01 00       	.word	0x0001;	????	
 16a:	5d 22       	jnz	$-836    	;abs 0xfe26
 16c:	00 92       	cmp	r2,	r0	
 16e:	01 01       	.word	0x0101;	????	
 170:	00 59       	add	r9,	r0	
 172:	00 00       	.word	0x0000;	????	
 174:	00 00       	.word	0x0000;	????	
 176:	00 00       	.word	0x0000;	????	
 178:	24 00       	.word	0x0024;	????	
 17a:	02 00       	.word	0x0002;	????	
 17c:	91 00       	.word	0x0091;	????	
 17e:	24 00       	.word	0x0024;	????	
 180:	28 00       	.word	0x0028;	????	
 182:	07 00       	.word	0x0007;	????	
 184:	93 02       	.word	0x0293;	????	
 186:	5c 93       	cmp.b	#1,	r12	;r3 As==01
 188:	01 93       	tst	r1		
 18a:	01 28       	jnc	$+4      	;abs 0x18e
 18c:	00 50       	rla	r0		
 18e:	00 08       	.word	0x0800;	????	
 190:	00 93       	tst	r0		
 192:	02 5c       	add	r12,	r2	
 194:	93 01       	.word	0x0193;	????	
 196:	54 93       	cmp.b	#1,	r4	;r3 As==01
 198:	01 50       	add	r0,	r1	
 19a:	00 54       	add	r4,	r0	
 19c:	00 05       	.word	0x0500;	????	
 19e:	00 93       	tst	r0		
 1a0:	03 54       	.word	0x5403;	????	Illegal as 2-op instr
 1a2:	93 01       	.word	0x0193;	????	
 1a4:	54 00       	.word	0x0054;	????	
 1a6:	6c 00       	.word	0x006c;	????	
 1a8:	08 00       	.word	0x0008;	????	
 1aa:	93 02       	.word	0x0293;	????	
 1ac:	5c 93       	cmp.b	#1,	r12	;r3 As==01
 1ae:	01 54       	add	r4,	r1	
 1b0:	93 01       	.word	0x0193;	????	
 1b2:	6c 00       	.word	0x006c;	????	
 1b4:	70 00       	.word	0x0070;	????	
 1b6:	05 00       	.word	0x0005;	????	
 1b8:	93 03       	.word	0x0393;	????	
 1ba:	54 93       	cmp.b	#1,	r4	;r3 As==01
 1bc:	01 70       	subc	r0,	r1	
 1be:	00 72       	subc	r2,	r0	
 1c0:	00 08       	.word	0x0800;	????	
 1c2:	00 93       	tst	r0		
 1c4:	02 5c       	add	r12,	r2	
 1c6:	93 01       	.word	0x0193;	????	
 1c8:	54 93       	cmp.b	#1,	r4	;r3 As==01
 1ca:	01 72       	subc	r2,	r1	
 1cc:	00 44       	br	r4		
 1ce:	01 05       	.word	0x0501;	????	
 1d0:	00 93       	tst	r0		
 1d2:	03 54       	.word	0x5403;	????	Illegal as 2-op instr
 1d4:	93 01       	.word	0x0193;	????	
 1d6:	4c 01       	.word	0x014c;	????	
 1d8:	5e 01       	.word	0x015e;	????	
 1da:	05 00       	.word	0x0005;	????	
 1dc:	93 03       	.word	0x0393;	????	
 1de:	54 93       	cmp.b	#1,	r4	;r3 As==01
 1e0:	01 00       	.word	0x0001;	????	
 1e2:	00 00       	.word	0x0000;	????	
 1e4:	00 28       	jnc	$+2      	;abs 0x1e6
 1e6:	00 0e       	.word	0x0e00;	????	
 1e8:	01 02       	.word	0x0201;	????	
 1ea:	00 30       	jn	$+2      	;abs 0x1ec
 1ec:	9f 0e       	.word	0x0e9f;	????	
 1ee:	01 22       	jnz	$-1020   	;abs 0xfdf2
 1f0:	01 01       	.word	0x0101;	????	
 1f2:	00 5b       	add	r11,	r0	
 1f4:	22 01       	.word	0x0122;	????	
 1f6:	28 01       	.word	0x0128;	????	
 1f8:	02 00       	.word	0x0002;	????	
 1fa:	30 9f       	cmp	@r15+,	r0	
 1fc:	28 01       	.word	0x0128;	????	
 1fe:	44 01       	.word	0x0144;	????	
 200:	01 00       	.word	0x0001;	????	
 202:	5b 5e 01 96 	add.b	-27135(r14),r11	;0x9601(r14)
 206:	01 01       	.word	0x0101;	????	
 208:	00 5b       	add	r11,	r0	
 20a:	96 01       	.word	0x0196;	????	
 20c:	98 01       	.word	0x0198;	????	
 20e:	01 00       	.word	0x0001;	????	
 210:	5f 00       	.word	0x005f;	????	
 212:	00 00       	.word	0x0000;	????	
 214:	00 28       	jnc	$+2      	;abs 0x216
 216:	00 ee       	xor	r14,	r0	
 218:	00 02       	.word	0x0200;	????	
 21a:	00 30       	jn	$+2      	;abs 0x21c
 21c:	9f ee 00 fc 	xor	-1024(r14),256(r15);0xfc00(r14), 0x0100(r15)
 220:	00 01 
 222:	00 56       	add	r6,	r0	
 224:	fc 00       	.word	0x00fc;	????	
 226:	fe 00       	.word	0x00fe;	????	
 228:	02 00       	.word	0x0002;	????	
 22a:	30 9f       	cmp	@r15+,	r0	
 22c:	fe 00       	.word	0x00fe;	????	
 22e:	0a 01       	.word	0x010a;	????	
 230:	01 00       	.word	0x0001;	????	
 232:	56 0e       	.word	0x0e56;	????	
 234:	01 22       	jnz	$-1020   	;abs 0xfe38
 236:	01 01       	.word	0x0101;	????	
 238:	00 56       	add	r6,	r0	
 23a:	22 01       	.word	0x0122;	????	
 23c:	28 01       	.word	0x0128;	????	
 23e:	02 00       	.word	0x0002;	????	
 240:	30 9f       	cmp	@r15+,	r0	
 242:	28 01       	.word	0x0128;	????	
 244:	8c 01       	.word	0x018c;	????	
 246:	01 00       	.word	0x0001;	????	
 248:	56 00       	.word	0x0056;	????	
 24a:	00 00       	.word	0x0000;	????	
 24c:	00 2a       	jnc	$-1022   	;abs 0xfe4e
 24e:	00 a2       	dadd	r2,	r0	
 250:	00 01       	.word	0x0100;	????	
 252:	00 55       	add	r5,	r0	
 254:	a2 00       	.word	0x00a2;	????	
 256:	5e 01       	.word	0x015e;	????	
 258:	01 00       	.word	0x0001;	????	
 25a:	57 5e 01 60 	add.b	24577(r14),r7	;0x6001(r14)
 25e:	01 03       	.word	0x0301;	????	
 260:	00 77       	subc	r7,	r0	
 262:	7f 9f       	cmp.b	@r15+,	r15	
 264:	60 01       	.word	0x0160;	????	
 266:	70 01       	.word	0x0170;	????	
 268:	01 00       	.word	0x0001;	????	
 26a:	57 70 01 76 	subc.b	30209(r0),r7	;PC rel. 0x786d
 26e:	01 03       	.word	0x0301;	????	
 270:	00 77       	subc	r7,	r0	
 272:	7f 9f       	cmp.b	@r15+,	r15	
 274:	00 00       	.word	0x0000;	????	
 276:	00 00       	.word	0x0000;	????	
 278:	2a 00       	.word	0x002a;	????	
 27a:	3a 00       	.word	0x003a;	????	
 27c:	08 00       	.word	0x0008;	????	
 27e:	93 02       	.word	0x0293;	????	
 280:	5c 93       	cmp.b	#1,	r12	;r3 As==01
 282:	01 54       	add	r4,	r1	
 284:	93 01       	.word	0x0193;	????	
 286:	54 00       	.word	0x0054;	????	
 288:	6c 00       	.word	0x006c;	????	
 28a:	07 00       	.word	0x0007;	????	
 28c:	93 02       	.word	0x0293;	????	
 28e:	5c 93       	cmp.b	#1,	r12	;r3 As==01
 290:	01 93       	tst	r1		
 292:	01 70       	subc	r0,	r1	
 294:	00 72       	subc	r2,	r0	
 296:	00 07       	.word	0x0700;	????	
 298:	00 93       	tst	r0		
 29a:	02 5c       	add	r12,	r2	
 29c:	93 01       	.word	0x0193;	????	
 29e:	93 01       	.word	0x0193;	????	
 2a0:	4c 01       	.word	0x014c;	????	
 2a2:	5e 01       	.word	0x015e;	????	
 2a4:	05 00       	.word	0x0005;	????	
 2a6:	93 03       	.word	0x0393;	????	
 2a8:	54 93       	cmp.b	#1,	r4	;r3 As==01
 2aa:	01 00       	.word	0x0001;	????	
 2ac:	00 00       	.word	0x0000;	????	
 2ae:	00 2a       	jnc	$-1022   	;abs 0xfeb0
 2b0:	00 86       	sub	r6,	r0	
 2b2:	01 01       	.word	0x0101;	????	
 2b4:	00 51       	add	r1,	r0	
 2b6:	86 01       	.word	0x0186;	????	
 2b8:	98 01       	.word	0x0198;	????	
 2ba:	03 00       	.word	0x0003;	????	
 2bc:	91 66 9f 00 	addc	159(r6),0(r1)	;0x009f(r6), 0x0000(r1)
 2c0:	00 00 
 2c2:	00 2a       	jnc	$-1022   	;abs 0xfec4
 2c4:	00 38       	jl	$+2      	;abs 0x2c6
 2c6:	00 01       	.word	0x0100;	????	
 2c8:	00 51       	add	r1,	r0	
 2ca:	38 00       	.word	0x0038;	????	
 2cc:	4e 00       	.word	0x004e;	????	
 2ce:	03 00       	.word	0x0003;	????	
 2d0:	91 67 9f 4e 	addc	20127(r7),21504(r1);0x4e9f(r7), 0x5400(r1)
 2d4:	00 54 
 2d6:	00 03       	.word	0x0300;	????	
 2d8:	00 91       	cmp	r1,	r0	
 2da:	68 9f       	cmp.b	@r15,	r8	
 2dc:	54 00       	.word	0x0054;	????	
 2de:	60 00       	.word	0x0060;	????	
 2e0:	01 00       	.word	0x0001;	????	
 2e2:	51 60 00 62 	addc.b	25088(r0),r1	;PC rel. 0x64e4
 2e6:	00 03       	.word	0x0300;	????	
 2e8:	00 91       	cmp	r1,	r0	
 2ea:	67 9f       	cmp.b	@r15,	r7	
 2ec:	62 00       	.word	0x0062;	????	
 2ee:	6a 00       	.word	0x006a;	????	
 2f0:	01 00       	.word	0x0001;	????	
 2f2:	51 6a 00 70 	addc.b	28672(r10),r1	;0x7000(r10)
 2f6:	00 03       	.word	0x0300;	????	
 2f8:	00 91       	cmp	r1,	r0	
 2fa:	67 9f       	cmp.b	@r15,	r7	
 2fc:	70 00       	.word	0x0070;	????	
 2fe:	72 00       	.word	0x0072;	????	
 300:	01 00       	.word	0x0001;	????	
 302:	51 72 00 76 	subc.b	&0x7600,r1	
 306:	00 01       	.word	0x0100;	????	
 308:	00 5c       	add	r12,	r0	
 30a:	76 00       	.word	0x0076;	????	
 30c:	90 00       	.word	0x0090;	????	
 30e:	01 00       	.word	0x0001;	????	
 310:	5a 00       	.word	0x005a;	????	
 312:	00 00       	.word	0x0000;	????	
 314:	00 aa       	dadd	r10,	r0	
 316:	00 0e       	.word	0x0e00;	????	
 318:	01 03       	.word	0x0301;	????	
 31a:	00 08       	.word	0x0800;	????	
 31c:	20 9f       	cmp	@r15,	r0	
 31e:	0e 01       	.word	0x010e;	????	
 320:	22 01       	.word	0x0122;	????	
 322:	02 00       	.word	0x0002;	????	
 324:	91 6c 00 00 	addc	0(r12),	0(r1)	;0x0000(r12), 0x0000(r1)
 328:	00 00 
 32a:	bc 00       	.word	0x00bc;	????	
 32c:	de 00       	.word	0x00de;	????	
 32e:	01 00       	.word	0x0001;	????	
 330:	5d de 00 0c 	bis.b	3072(r14),r13	;0x0c00(r14)
 334:	01 01       	.word	0x0101;	????	
 336:	00 55       	add	r5,	r0	
 338:	00 00       	.word	0x0000;	????	
 33a:	00 00       	.word	0x0000;	????	
 33c:	98 01       	.word	0x0198;	????	
 33e:	9a 01       	.word	0x019a;	????	
 340:	02 00       	.word	0x0002;	????	
 342:	71 02       	.word	0x0271;	????	
 344:	9a 01       	.word	0x019a;	????	
 346:	9c 01       	.word	0x019c;	????	
 348:	02 00       	.word	0x0002;	????	
 34a:	71 04       	.word	0x0471;	????	
 34c:	9c 01       	.word	0x019c;	????	
 34e:	9e 01       	.word	0x019e;	????	
 350:	02 00       	.word	0x0002;	????	
 352:	71 06       	.word	0x0671;	????	
 354:	9e 01       	.word	0x019e;	????	
 356:	a0 01       	.word	0x01a0;	????	
 358:	02 00       	.word	0x0002;	????	
 35a:	71 08       	.word	0x0871;	????	
 35c:	a0 01       	.word	0x01a0;	????	
 35e:	a2 01       	.word	0x01a2;	????	
 360:	02 00       	.word	0x0002;	????	
 362:	71 0a       	.word	0x0a71;	????	
 364:	a2 01       	.word	0x01a2;	????	
 366:	a4 01       	.word	0x01a4;	????	
 368:	02 00       	.word	0x0002;	????	
 36a:	71 0c       	.word	0x0c71;	????	
 36c:	a4 01       	.word	0x01a4;	????	
 36e:	a6 01       	.word	0x01a6;	????	
 370:	02 00       	.word	0x0002;	????	
 372:	71 0e       	.word	0x0e71;	????	
 374:	a6 01       	.word	0x01a6;	????	
 376:	a8 01       	.word	0x01a8;	????	
 378:	02 00       	.word	0x0002;	????	
 37a:	71 10       	rrc.b	@r1+		
 37c:	a8 01       	.word	0x01a8;	????	
 37e:	ac 01       	.word	0x01ac;	????	
 380:	02 00       	.word	0x0002;	????	
 382:	71 12       	push.b	@r1+		
 384:	ac 01       	.word	0x01ac;	????	
 386:	12 04       	.word	0x0412;	????	
 388:	03 00       	.word	0x0003;	????	
 38a:	71 dc       	bis.b	@r12+,	r1	
 38c:	00 12       	push	r0		
 38e:	04 20       	jnz	$+10     	;abs 0x398
 390:	04 03       	.word	0x0304;	????	
 392:	00 71       	subc	r1,	r0	
 394:	e0 00       	.word	0x00e0;	????	
 396:	20 04       	.word	0x0420;	????	
 398:	de 05       	.word	0x05de;	????	
 39a:	03 00       	.word	0x0003;	????	
 39c:	71 dc       	bis.b	@r12+,	r1	
 39e:	00 de       	bis	r14,	r0	
 3a0:	05 ee       	xor	r14,	r5	
 3a2:	05 03       	.word	0x0305;	????	
 3a4:	00 71       	subc	r1,	r0	
 3a6:	e4 00       	.word	0x00e4;	????	
 3a8:	ee 05       	.word	0x05ee;	????	
 3aa:	2c 06       	.word	0x062c;	????	
 3ac:	03 00       	.word	0x0003;	????	
 3ae:	71 dc       	bis.b	@r12+,	r1	
 3b0:	00 2c       	jc	$+2      	;abs 0x3b2
 3b2:	06 3c       	jmp	$+14     	;abs 0x3c0
 3b4:	06 03       	.word	0x0306;	????	
 3b6:	00 71       	subc	r1,	r0	
 3b8:	e4 00       	.word	0x00e4;	????	
 3ba:	3c 06       	.word	0x063c;	????	
 3bc:	bc 07       	.word	0x07bc;	????	
 3be:	03 00       	.word	0x0003;	????	
 3c0:	71 dc       	bis.b	@r12+,	r1	
 3c2:	00 bc       	bit	r12,	r0	
 3c4:	07 ce       	bic	r14,	r7	
 3c6:	07 03       	.word	0x0307;	????	
 3c8:	00 71       	subc	r1,	r0	
 3ca:	e0 00       	.word	0x00e0;	????	
 3cc:	ce 07       	.word	0x07ce;	????	
 3ce:	36 08       	.word	0x0836;	????	
 3d0:	03 00       	.word	0x0003;	????	
 3d2:	71 dc       	bis.b	@r12+,	r1	
 3d4:	00 00       	.word	0x0000;	????	
 3d6:	00 00       	.word	0x0000;	????	
 3d8:	00 98       	cmp	r8,	r0	
 3da:	01 e4       	xor	r4,	r1	
 3dc:	01 01       	.word	0x0101;	????	
 3de:	00 5f       	add	r15,	r0	
 3e0:	e4 01       	.word	0x01e4;	????	
 3e2:	36 08       	.word	0x0836;	????	
 3e4:	02 00       	.word	0x0002;	????	
 3e6:	91 5e 00 00 	add	0(r14),	0(r1)	;0x0000(r14), 0x0000(r1)
 3ea:	00 00 
 3ec:	98 01       	.word	0x0198;	????	
 3ee:	d8 01       	.word	0x01d8;	????	
 3f0:	01 00       	.word	0x0001;	????	
 3f2:	5e e4 01 84 	xor.b	-31743(r4),r14	;0x8401(r4)
 3f6:	04 03       	.word	0x0304;	????	
 3f8:	00 76       	subc	r6,	r0	
 3fa:	01 9f       	cmp	r15,	r1	
 3fc:	84 04       	.word	0x0484;	????	
 3fe:	12 08       	.word	0x0812;	????	
 400:	02 00       	.word	0x0002;	????	
 402:	91 64 12 08 	addc	2066(r4),2068(r1);0x0812(r4), 0x0814(r1)
 406:	14 08 
 408:	01 00       	.word	0x0001;	????	
 40a:	56 14       	.word	0x1456;	????	
 40c:	08 2a       	jnc	$-1006   	;abs 0x1e
 40e:	08 03       	.word	0x0308;	????	
 410:	00 76       	subc	r6,	r0	
 412:	01 9f       	cmp	r15,	r1	
 414:	00 00       	.word	0x0000;	????	
 416:	00 00       	.word	0x0000;	????	
 418:	98 01       	.word	0x0198;	????	
 41a:	e4 01       	.word	0x01e4;	????	
 41c:	01 00       	.word	0x0001;	????	
 41e:	5d e4 01 1a 	xor.b	6657(r4),r13	;0x1a01(r4)
 422:	02 01       	.word	0x0102;	????	
 424:	00 55       	add	r5,	r0	
 426:	1a 02       	.word	0x021a;	????	
 428:	1c 02       	.word	0x021c;	????	
 42a:	01 00       	.word	0x0001;	????	
 42c:	57 1c       	.word	0x1c57;	????	
 42e:	02 3c       	jmp	$+6      	;abs 0x434
 430:	03 01       	.word	0x0103;	????	
 432:	00 55       	add	r5,	r0	
 434:	3c 03       	.word	0x033c;	????	
 436:	66 03       	.word	0x0366;	????	
 438:	01 00       	.word	0x0001;	????	
 43a:	5e 66 03 c0 	addc.b	-16381(r6),r14	;0xc003(r6)
 43e:	03 01       	.word	0x0103;	????	
 440:	00 55       	add	r5,	r0	
 442:	c0 03       	.word	0x03c0;	????	
 444:	dc 03       	.word	0x03dc;	????	
 446:	01 00       	.word	0x0001;	????	
 448:	57 dc 03 e0 	bis.b	-8189(r12),r7	;0xe003(r12)
 44c:	03 01       	.word	0x0103;	????	
 44e:	00 55       	add	r5,	r0	
 450:	e0 03       	.word	0x03e0;	????	
 452:	2a 04       	.word	0x042a;	????	
 454:	01 00       	.word	0x0001;	????	
 456:	57 2a       	jnc	$-848    	;abs 0x106
 458:	04 2e       	jc	$-1014   	;abs 0x62
 45a:	04 01       	.word	0x0104;	????	
 45c:	00 55       	add	r5,	r0	
 45e:	2e 04       	.word	0x042e;	????	
 460:	58 04       	.word	0x0458;	????	
 462:	01 00       	.word	0x0001;	????	
 464:	57 58 04 7a 	add.b	31236(r8),r7	;0x7a04(r8)
 468:	04 01       	.word	0x0104;	????	
 46a:	00 55       	add	r5,	r0	
 46c:	7a 04       	.word	0x047a;	????	
 46e:	be 04       	.word	0x04be;	????	
 470:	01 00       	.word	0x0001;	????	
 472:	5c be 04 c6 	bit.b	-14844(r14),r12	;0xc604(r14)
 476:	04 01       	.word	0x0104;	????	
 478:	00 55       	add	r5,	r0	
 47a:	c6 04       	.word	0x04c6;	????	
 47c:	de 04       	.word	0x04de;	????	
 47e:	01 00       	.word	0x0001;	????	
 480:	57 de 04 e0 	bis.b	-8188(r14),r7	;0xe004(r14)
 484:	04 01       	.word	0x0104;	????	
 486:	00 55       	add	r5,	r0	
 488:	e0 04       	.word	0x04e0;	????	
 48a:	fe 04       	.word	0x04fe;	????	
 48c:	01 00       	.word	0x0001;	????	
 48e:	57 fe 04 02 	and.b	516(r14),r7	;0x0204(r14)
 492:	08 01       	.word	0x0108;	????	
 494:	00 55       	add	r5,	r0	
 496:	02 08       	.word	0x0802;	????	
 498:	08 08       	.word	0x0808;	????	
 49a:	01 00       	.word	0x0001;	????	
 49c:	5e 08       	.word	0x085e;	????	
 49e:	08 28       	jnc	$+18     	;abs 0x4b0
 4a0:	08 01       	.word	0x0108;	????	
 4a2:	00 55       	add	r5,	r0	
 4a4:	00 00       	.word	0x0000;	????	
 4a6:	00 00       	.word	0x0000;	????	
 4a8:	b4 01       	.word	0x01b4;	????	
 4aa:	e4 01       	.word	0x01e4;	????	
 4ac:	02 00       	.word	0x0002;	????	
 4ae:	30 9f       	cmp	@r15+,	r0	
 4b0:	e4 01       	.word	0x01e4;	????	
 4b2:	d4 07       	.word	0x07d4;	????	
 4b4:	02 00       	.word	0x0002;	????	
 4b6:	91 50 d4 07 	add	2004(r0),2011(r1);PC rel. 0x0c8c, 0x07db(r1)
 4ba:	db 07 
 4bc:	01 00       	.word	0x0001;	????	
 4be:	5e e0 07 ee 	xor.b	-4601(r0),r14	;PC rel. 0xf2c7
 4c2:	07 01       	.word	0x0107;	????	
 4c4:	00 5e       	add	r14,	r0	
 4c6:	ee 07       	.word	0x07ee;	????	
 4c8:	36 08       	.word	0x0836;	????	
 4ca:	02 00       	.word	0x0002;	????	
 4cc:	91 50 00 00 	add	0(r0),	0(r1)	;PC rel. 0x04ce, 0x0000(r1)
 4d0:	00 00 
 4d2:	b4 01       	.word	0x01b4;	????	
 4d4:	e4 01       	.word	0x01e4;	????	
 4d6:	02 00       	.word	0x0002;	????	
 4d8:	30 9f       	cmp	@r15+,	r0	
 4da:	e4 01       	.word	0x01e4;	????	
 4dc:	fe 01       	.word	0x01fe;	????	
 4de:	01 00       	.word	0x0001;	????	
 4e0:	57 fe 01 1a 	and.b	6657(r14),r7	;0x1a01(r14)
 4e4:	02 02       	.word	0x0202;	????	
 4e6:	00 31       	jn	$+514    	;abs 0x6e8
 4e8:	9f 28       	jnc	$+320    	;abs 0x628
 4ea:	02 2c       	jc	$+6      	;abs 0x4f0
 4ec:	02 02       	.word	0x0202;	????	
 4ee:	00 30       	jn	$+2      	;abs 0x4f0
 4f0:	9f 2c       	jc	$+320    	;abs 0x630
 4f2:	02 be       	bit	r14,	r2	
 4f4:	03 01       	.word	0x0103;	????	
 4f6:	00 57       	add	r7,	r0	
 4f8:	dc 03       	.word	0x03dc;	????	
 4fa:	de 03       	.word	0x03de;	????	
 4fc:	01 00       	.word	0x0001;	????	
 4fe:	57 24       	jz	$+176    	;abs 0x5ae
 500:	04 2a       	jnc	$-1014   	;abs 0x10a
 502:	04 02       	.word	0x0204;	????	
 504:	00 30       	jn	$+2      	;abs 0x506
 506:	9f 2a       	jnc	$-704    	;abs 0x246
 508:	04 2c       	jc	$+10     	;abs 0x512
 50a:	04 01       	.word	0x0104;	????	
 50c:	00 57       	add	r7,	r0	
 50e:	58 04       	.word	0x0458;	????	
 510:	80 04       	.word	0x0480;	????	
 512:	01 00       	.word	0x0001;	????	
 514:	57 be 04 c2 	bit.b	-15868(r14),r7	;0xc204(r14)
 518:	04 01       	.word	0x0104;	????	
 51a:	00 57       	add	r7,	r0	
 51c:	d2 07       	.word	0x07d2;	????	
 51e:	d4 07       	.word	0x07d4;	????	
 520:	02 00       	.word	0x0002;	????	
 522:	30 9f       	cmp	@r15+,	r0	
 524:	d4 07       	.word	0x07d4;	????	
 526:	ee 07       	.word	0x07ee;	????	
 528:	01 00       	.word	0x0001;	????	
 52a:	57 f2 07 08 	and.b	&0x0807,r7	
 52e:	08 01       	.word	0x0108;	????	
 530:	00 57       	add	r7,	r0	
 532:	12 08       	.word	0x0812;	????	
 534:	2c 08       	.word	0x082c;	????	
 536:	01 00       	.word	0x0001;	????	
 538:	57 00       	.word	0x0057;	????	
 53a:	00 00       	.word	0x0000;	????	
 53c:	00 b4       	bit	r4,	r0	
 53e:	01 e4       	xor	r4,	r1	
 540:	01 02       	.word	0x0201;	????	
 542:	00 30       	jn	$+2      	;abs 0x544
 544:	9f e4 01 f6 	xor	-2559(r4),513(r15);0xf601(r4), 0x0201(r15)
 548:	01 02 
 54a:	00 91       	cmp	r1,	r0	
 54c:	4a f6       	and.b	r6,	r10	
 54e:	01 1a       	.word	0x1a01;	????	
 550:	02 02       	.word	0x0202;	????	
 552:	00 30       	jn	$+2      	;abs 0x554
 554:	9f 1a       	.word	0x1a9f;	????	
 556:	02 46       	mov	r6,	r2	
 558:	03 02       	.word	0x0203;	????	
 55a:	00 91       	cmp	r1,	r0	
 55c:	4a 46       	mov.b	r6,	r10	
 55e:	03 48       	.word	0x4803;	????	Illegal as 2-op instr
 560:	03 02       	.word	0x0203;	????	
 562:	00 75       	subc	r5,	r0	
 564:	00 48       	br	r8		
 566:	03 96       	.word	0x9603;	????	Illegal as 2-op instr
 568:	03 02       	.word	0x0203;	????	
 56a:	00 91       	cmp	r1,	r0	
 56c:	4a 96       	cmp.b	r6,	r10	
 56e:	03 b4       	.word	0xb403;	????	Illegal as 2-op instr
 570:	03 06       	.word	0x0603;	????	
 572:	00 91       	cmp	r1,	r0	
 574:	4a 06       	.word	0x064a;	????	
 576:	3a 1e       	.word	0x1e3a;	????	
 578:	9f b4 03 08 	bit	2051(r4),520(r15);0x0803(r4), 0x0208(r15)
 57c:	08 02 
 57e:	00 91       	cmp	r1,	r0	
 580:	4a 12       	push.b	r10		
 582:	08 36       	jge	$-1006   	;abs 0x194
 584:	08 02       	.word	0x0208;	????	
 586:	00 91       	cmp	r1,	r0	
 588:	4a 00       	.word	0x004a;	????	
 58a:	00 00       	.word	0x0000;	????	
 58c:	00 b4       	bit	r4,	r0	
 58e:	01 e4       	xor	r4,	r1	
 590:	01 02       	.word	0x0201;	????	
 592:	00 30       	jn	$+2      	;abs 0x594
 594:	9f e4 01 f6 	xor	-2559(r4),513(r15);0xf601(r4), 0x0201(r15)
 598:	01 02 
 59a:	00 91       	cmp	r1,	r0	
 59c:	54 f6 01 1a 	and.b	6657(r6),r4	;0x1a01(r6)
 5a0:	02 02       	.word	0x0202;	????	
 5a2:	00 30       	jn	$+2      	;abs 0x5a4
 5a4:	9f 1a       	.word	0x1a9f;	????	
 5a6:	02 08       	.word	0x0802;	????	
 5a8:	08 02       	.word	0x0208;	????	
 5aa:	00 91       	cmp	r1,	r0	
 5ac:	54 12 08 36 	push.b	13832(r4)	;0x3608(r4)
 5b0:	08 02       	.word	0x0208;	????	
 5b2:	00 91       	cmp	r1,	r0	
 5b4:	54 00       	.word	0x0054;	????	
 5b6:	00 00       	.word	0x0000;	????	
 5b8:	00 b4       	bit	r4,	r0	
 5ba:	01 d8       	bis	r8,	r1	
 5bc:	01 01       	.word	0x0101;	????	
 5be:	00 5e       	add	r14,	r0	
 5c0:	d8 01       	.word	0x01d8;	????	
 5c2:	e4 01       	.word	0x01e4;	????	
 5c4:	01 00       	.word	0x0001;	????	
 5c6:	56 e4 01 fe 	xor.b	-511(r4),r6	;0xfe01(r4)
 5ca:	01 02       	.word	0x0201;	????	
 5cc:	00 91       	cmp	r1,	r0	
 5ce:	62 fe       	and.b	@r14,	r2	
 5d0:	01 1a       	.word	0x1a01;	????	
 5d2:	02 01       	.word	0x0102;	????	
 5d4:	00 56       	add	r6,	r0	
 5d6:	1a 02       	.word	0x021a;	????	
 5d8:	d4 07       	.word	0x07d4;	????	
 5da:	02 00       	.word	0x0002;	????	
 5dc:	91 62 d4 07 	addc	&0x07d4,2006(r1);0x07d6(r1)
 5e0:	d6 07 
 5e2:	01 00       	.word	0x0001;	????	
 5e4:	59 d6 07 d8 	bis.b	-10233(r6),r9	;0xd807(r6)
 5e8:	07 03       	.word	0x0307;	????	
 5ea:	00 79       	subc	r9,	r0	
 5ec:	7f 9f       	cmp.b	@r15+,	r15	
 5ee:	d8 07       	.word	0x07d8;	????	
 5f0:	dc 07       	.word	0x07dc;	????	
 5f2:	01 00       	.word	0x0001;	????	
 5f4:	59 e0 07 ee 	xor.b	-4601(r0),r9	;PC rel. 0xf3fd
 5f8:	07 01       	.word	0x0107;	????	
 5fa:	00 59       	add	r9,	r0	
 5fc:	ee 07       	.word	0x07ee;	????	
 5fe:	36 08       	.word	0x0836;	????	
 600:	02 00       	.word	0x0002;	????	
 602:	91 62 00 00 	addc	&0x0000,0(r1)	;0x0000(r1)
 606:	00 00 
 608:	ce 03       	.word	0x03ce;	????	
 60a:	dc 03       	.word	0x03dc;	????	
 60c:	04 00       	.word	0x0004;	????	
 60e:	91 a8 7f 9f 	dadd	-24705(r8),994(r1)	;0x9f7f(r8), 0x03e2(r1)
 612:	e2 03 
 614:	0a 04       	.word	0x040a;	????	
 616:	01 00       	.word	0x0001;	????	
 618:	5e 8e 05 92 	sub.b	-28155(r14),r14	;0x9205(r14)
 61c:	05 04       	.word	0x0405;	????	
 61e:	00 91       	cmp	r1,	r0	
 620:	bf 7f 9f 92 	subc	@r15+,	-28001(r15);0x929f(r15)
 624:	05 b0       	bit	r0,	r5	
 626:	05 04       	.word	0x0405;	????	
 628:	00 91       	cmp	r1,	r0	
 62a:	be 7f 9f 1c 	subc	@r15+,	7327(r14);0x1c9f(r14)
 62e:	06 6a       	addc	r10,	r6	
 630:	06 01       	.word	0x0106;	????	
 632:	00 56       	add	r6,	r0	
 634:	6a 06       	.word	0x066a;	????	
 636:	7c 06       	.word	0x067c;	????	
 638:	04 00       	.word	0x0004;	????	
 63a:	91 be 7f 9f 	bit	-24705(r14),1732(r1);0x9f7f(r14), 0x06c4(r1)
 63e:	c4 06 
 640:	ea 06       	.word	0x06ea;	????	
 642:	01 00       	.word	0x0001;	????	
 644:	56 ea 06 f4 	xor.b	-3066(r10),r6	;0xf406(r10)
 648:	06 04       	.word	0x0406;	????	
 64a:	00 91       	cmp	r1,	r0	
 64c:	be 7f 9f 2c 	subc	@r15+,	11423(r14);0x2c9f(r14)
 650:	07 d4       	bis	r4,	r7	
 652:	07 01       	.word	0x0107;	????	
 654:	00 56       	add	r6,	r0	
 656:	00 00       	.word	0x0000;	????	
 658:	00 00       	.word	0x0000;	????	
 65a:	e4 01       	.word	0x01e4;	????	
 65c:	1e 02       	.word	0x021e;	????	
 65e:	01 00       	.word	0x0001;	????	
 660:	5e 2c       	jc	$+190    	;abs 0x71e
 662:	02 e8       	xor	r8,	r2	
 664:	02 01       	.word	0x0102;	????	
 666:	00 5e       	add	r14,	r0	
 668:	e8 02       	.word	0x02e8;	????	
 66a:	c2 03       	.word	0x03c2;	????	
 66c:	02 00       	.word	0x0002;	????	
 66e:	76 00       	.word	0x0076;	????	
 670:	c2 03       	.word	0x03c2;	????	
 672:	dc 03       	.word	0x03dc;	????	
 674:	02 00       	.word	0x0002;	????	
 676:	75 00       	.word	0x0075;	????	
 678:	dc 03       	.word	0x03dc;	????	
 67a:	e2 03       	.word	0x03e2;	????	
 67c:	02 00       	.word	0x0002;	????	
 67e:	76 00       	.word	0x0076;	????	
 680:	2a 04       	.word	0x042a;	????	
 682:	36 04       	.word	0x0436;	????	
 684:	01 00       	.word	0x0001;	????	
 686:	5e 36       	jge	$-834    	;abs 0x344
 688:	04 84       	sub	r4,	r4	
 68a:	04 02       	.word	0x0204;	????	
 68c:	00 76       	subc	r6,	r0	
 68e:	00 84       	sub	r4,	r0	
 690:	04 b0       	bit	r0,	r4	
 692:	05 05       	.word	0x0505;	????	
 694:	00 91       	cmp	r1,	r0	
 696:	64 06       	.word	0x0664;	????	
 698:	31 1c       	.word	0x1c31;	????	
 69a:	6a 06       	.word	0x066a;	????	
 69c:	7c 06       	.word	0x067c;	????	
 69e:	05 00       	.word	0x0005;	????	
 6a0:	91 64 06 31 	addc	12550(r4),-5604(r1);0x3106(r4), 0xea1c(r1)
 6a4:	1c ea 
 6a6:	06 f4       	and	r4,	r6	
 6a8:	06 05       	.word	0x0506;	????	
 6aa:	00 91       	cmp	r1,	r0	
 6ac:	64 06       	.word	0x0664;	????	
 6ae:	31 1c       	.word	0x1c31;	????	
 6b0:	f2 07       	.word	0x07f2;	????	
 6b2:	02 08       	.word	0x0802;	????	
 6b4:	01 00       	.word	0x0001;	????	
 6b6:	5e 02       	.word	0x025e;	????	
 6b8:	08 0e       	.word	0x0e08;	????	
 6ba:	08 05       	.word	0x0508;	????	
 6bc:	00 91       	cmp	r1,	r0	
 6be:	64 06       	.word	0x0664;	????	
 6c0:	31 1c       	.word	0x1c31;	????	
 6c2:	14 08       	.word	0x0814;	????	
 6c4:	2a 08       	.word	0x082a;	????	
 6c6:	02 00       	.word	0x0002;	????	
 6c8:	76 00       	.word	0x0076;	????	
 6ca:	2a 08       	.word	0x082a;	????	
 6cc:	36 08       	.word	0x0836;	????	
 6ce:	01 00       	.word	0x0001;	????	
 6d0:	5e 00       	.word	0x005e;	????	
 6d2:	00 00       	.word	0x0000;	????	
 6d4:	00 34       	jge	$+2      	;abs 0x6d6
 6d6:	04 58       	add	r8,	r4	
 6d8:	04 02       	.word	0x0204;	????	
 6da:	00 40       	br	r0		
 6dc:	9f 70 04 d4 	subc	-11260(r0),519(r15);PC rel. 0xdae2, 0x0207(r15)
 6e0:	07 02 
 6e2:	00 91       	cmp	r1,	r0	
 6e4:	4c 00       	.word	0x004c;	????	
 6e6:	00 00       	.word	0x0000;	????	
 6e8:	00 b4       	bit	r4,	r0	
 6ea:	01 e4       	xor	r4,	r1	
 6ec:	01 02       	.word	0x0201;	????	
 6ee:	00 30       	jn	$+2      	;abs 0x6f0
 6f0:	9f e4 01 fe 	xor	-511(r4),513(r15);0xfe01(r4), 0x0201(r15)
 6f4:	01 02 
 6f6:	00 91       	cmp	r1,	r0	
 6f8:	4e fe       	and.b	r14,	r14	
 6fa:	01 1a       	.word	0x1a01;	????	
 6fc:	02 02       	.word	0x0202;	????	
 6fe:	00 30       	jn	$+2      	;abs 0x700
 700:	9f 1a       	.word	0x1a9f;	????	
 702:	02 b4       	bit	r4,	r2	
 704:	03 02       	.word	0x0203;	????	
 706:	00 91       	cmp	r1,	r0	
 708:	4e b4       	bit.b	r4,	r14	
 70a:	03 bc       	.word	0xbc03;	????	Illegal as 2-op instr
 70c:	03 02       	.word	0x0203;	????	
 70e:	00 31       	jn	$+514    	;abs 0x910
 710:	9f bc 03 08 	bit	2051(r12),520(r15);0x0803(r12), 0x0208(r15)
 714:	08 02 
 716:	00 91       	cmp	r1,	r0	
 718:	4e 12       	push.b	r14		
 71a:	08 36       	jge	$-1006   	;abs 0x32c
 71c:	08 02       	.word	0x0208;	????	
 71e:	00 91       	cmp	r1,	r0	
 720:	4e 00       	.word	0x004e;	????	
 722:	00 00       	.word	0x0000;	????	
 724:	00 b4       	bit	r4,	r0	
 726:	01 e4       	xor	r4,	r1	
 728:	01 02       	.word	0x0201;	????	
 72a:	00 30       	jn	$+2      	;abs 0x72c
 72c:	9f e4 01 fe 	xor	-511(r4),513(r15);0xfe01(r4), 0x0201(r15)
 730:	01 02 
 732:	00 91       	cmp	r1,	r0	
 734:	52 fe 01 1a 	and.b	6657(r14),r2	;0x1a01(r14)
 738:	02 02       	.word	0x0202;	????	
 73a:	00 30       	jn	$+2      	;abs 0x73c
 73c:	9f 1a       	.word	0x1a9f;	????	
 73e:	02 08       	.word	0x0802;	????	
 740:	08 02       	.word	0x0208;	????	
 742:	00 91       	cmp	r1,	r0	
 744:	52 12 08 36 	push.b	&0x3608	
 748:	08 02       	.word	0x0208;	????	
 74a:	00 91       	cmp	r1,	r0	
 74c:	52 00       	.word	0x0052;	????	
 74e:	00 00       	.word	0x0000;	????	
 750:	00 b4       	bit	r4,	r0	
 752:	01 e4       	xor	r4,	r1	
 754:	01 02       	.word	0x0201;	????	
 756:	00 30       	jn	$+2      	;abs 0x758
 758:	9f e4 01 fe 	xor	-511(r4),513(r15);0xfe01(r4), 0x0201(r15)
 75c:	01 02 
 75e:	00 91       	cmp	r1,	r0	
 760:	4f fe       	and.b	r14,	r15	
 762:	01 1a       	.word	0x1a01;	????	
 764:	02 02       	.word	0x0202;	????	
 766:	00 30       	jn	$+2      	;abs 0x768
 768:	9f 1a       	.word	0x1a9f;	????	
 76a:	02 08       	.word	0x0802;	????	
 76c:	08 02       	.word	0x0208;	????	
 76e:	00 91       	cmp	r1,	r0	
 770:	4f 12       	push.b	r15		
 772:	08 36       	jge	$-1006   	;abs 0x384
 774:	08 02       	.word	0x0208;	????	
 776:	00 91       	cmp	r1,	r0	
 778:	4f 00       	.word	0x004f;	????	
 77a:	00 00       	.word	0x0000;	????	
 77c:	00 b4       	bit	r4,	r0	
 77e:	01 e4       	xor	r4,	r1	
 780:	01 02       	.word	0x0201;	????	
 782:	00 30       	jn	$+2      	;abs 0x784
 784:	9f e4 01 fe 	xor	-511(r4),513(r15);0xfe01(r4), 0x0201(r15)
 788:	01 02 
 78a:	00 91       	cmp	r1,	r0	
 78c:	53 fe       	.word	0xfe53;	????	Illegal as 2-op instr
 78e:	01 1a       	.word	0x1a01;	????	
 790:	02 02       	.word	0x0202;	????	
 792:	00 30       	jn	$+2      	;abs 0x794
 794:	9f 1a       	.word	0x1a9f;	????	
 796:	02 08       	.word	0x0802;	????	
 798:	08 02       	.word	0x0208;	????	
 79a:	00 91       	cmp	r1,	r0	
 79c:	53 12       	push.b	#1		;r3 As==01
 79e:	08 36       	jge	$-1006   	;abs 0x3b0
 7a0:	08 02       	.word	0x0208;	????	
 7a2:	00 91       	cmp	r1,	r0	
 7a4:	53 00       	.word	0x0053;	????	
 7a6:	00 00       	.word	0x0000;	????	
 7a8:	00 92       	cmp	r2,	r0	
 7aa:	07 a8       	dadd	r8,	r7	
 7ac:	07 01       	.word	0x0107;	????	
 7ae:	00 5c       	add	r12,	r0	
 7b0:	00 00       	.word	0x0000;	????	
 7b2:	00 00       	.word	0x0000;	????	
 7b4:	3e 03       	.word	0x033e;	????	
 7b6:	64 03       	.word	0x0364;	????	
 7b8:	02 00       	.word	0x0002;	????	
 7ba:	75 00       	.word	0x0075;	????	
 7bc:	64 03       	.word	0x0364;	????	
 7be:	66 03       	.word	0x0366;	????	
 7c0:	02 00       	.word	0x0002;	????	
 7c2:	7e 7e       	subc.b	@r14+,	r14	
 7c4:	02 08       	.word	0x0802;	????	
 7c6:	08 08       	.word	0x0808;	????	
 7c8:	01 00       	.word	0x0001;	????	
 7ca:	5a 00       	.word	0x005a;	????	
 7cc:	00 00       	.word	0x0000;	????	
 7ce:	00 f0       	and	r0,	r0	
 7d0:	05 2e       	jc	$-1012   	;abs 0x3dc
 7d2:	06 01       	.word	0x0106;	????	
 7d4:	00 5c       	add	r12,	r0	
 7d6:	00 00       	.word	0x0000;	????	
 7d8:	00 00       	.word	0x0000;	????	
 7da:	98 06       	.word	0x0698;	????	
 7dc:	cc 06       	.word	0x06cc;	????	
 7de:	01 00       	.word	0x0001;	????	
 7e0:	5e 00       	.word	0x005e;	????	
 7e2:	00 00       	.word	0x0000;	????	
 7e4:	00 00       	.word	0x0000;	????	
 7e6:	07 32       	jn	$-1008   	;abs 0x3f6
 7e8:	07 01       	.word	0x0107;	????	
 7ea:	00 5f       	add	r15,	r0	
 7ec:	00 00       	.word	0x0000;	????	
	...

Disassembly of section .debug_ranges:

00000000 <.debug_ranges>:
   0:	d6 01       	.word	0x01d6;	????	
   2:	e0 01       	.word	0x01e0;	????	
   4:	54 07       	.word	0x0754;	????	
   6:	a8 07       	.word	0x07a8;	????	
   8:	00 00       	.word	0x0000;	????	
   a:	00 00       	.word	0x0000;	????	
   c:	38 03       	.word	0x0338;	????	
   e:	66 03       	.word	0x0366;	????	
  10:	02 08       	.word	0x0802;	????	
  12:	0e 08       	.word	0x080e;	????	
  14:	00 00       	.word	0x0000;	????	
	...
