
./hex/clock.elf:     file format elf32-msp430


Disassembly of section .text:

0000c000 <__watchdog_support>:
    c000:	55 42 20 01 	mov.b	&0x0120,r5	
    c004:	35 d0 08 5a 	bis	#23048,	r5	;#0x5a08
    c008:	82 45 3a 02 	mov	r5,	&0x023a	

0000c00c <__init_stack>:
    c00c:	31 40 00 04 	mov	#1024,	r1	;#0x0400

0000c010 <__do_copy_data>:
    c010:	3f 40 00 00 	mov	#0,	r15	;#0x0000
    c014:	0f 93       	tst	r15		
    c016:	08 24       	jz	$+18     	;abs 0xc028
    c018:	92 42 3a 02 	mov	&0x023a,&0x0120	
    c01c:	20 01 
    c01e:	2f 83       	decd	r15		
    c020:	9f 4f ae d4 	mov	-11090(r15),512(r15);0xd4ae(r15), 0x0200(r15)
    c024:	00 02 
    c026:	f8 23       	jnz	$-14     	;abs 0xc018

0000c028 <__do_clear_bss>:
    c028:	3f 40 3a 00 	mov	#58,	r15	;#0x003a
    c02c:	0f 93       	tst	r15		
    c02e:	07 24       	jz	$+16     	;abs 0xc03e
    c030:	92 42 3a 02 	mov	&0x023a,&0x0120	
    c034:	20 01 
    c036:	1f 83       	dec	r15		
    c038:	cf 43 00 02 	mov.b	#0,	512(r15);r3 As==00, 0x0200(r15)
    c03c:	f9 23       	jnz	$-12     	;abs 0xc030

0000c03e <main>:
    c03e:	04 41       	mov	r1,	r4	
    c040:	34 50 0a 00 	add	#10,	r4	;#0x000a
    c044:	21 83       	decd	r1		
    c046:	b0 12 5e c1 	call	#0xc15e	
    c04a:	b0 12 a6 c6 	call	#0xc6a6	
    c04e:	5e 43       	mov.b	#1,	r14	;r3 As==01
    c050:	3f 40 7c d4 	mov	#-11140,r15	;#0xd47c
    c054:	b0 12 fa c5 	call	#0xc5fa	
    c058:	5f 42 22 00 	mov.b	&0x0022,r15	
    c05c:	7f d0 41 00 	bis.b	#65,	r15	;#0x0041
    c060:	c2 4f 22 00 	mov.b	r15,	&0x0022	
    c064:	3f 40 ff 00 	mov	#255,	r15	;#0x00ff
    c068:	3e 40 2a 4f 	mov	#20266,	r14	;#0x4f2a
    c06c:	1e 83       	dec	r14		
    c06e:	0e 93       	tst	r14		
    c070:	fd 23       	jnz	$-4      	;abs 0xc06c
    c072:	1f 83       	dec	r15		
    c074:	0f 93       	tst	r15		
    c076:	fa 23       	jnz	$-10     	;abs 0xc06c
    c078:	03 43       	nop			
    c07a:	b0 12 ce c9 	call	#0xc9ce	
    c07e:	c4 4f f4 ff 	mov.b	r15,	-12(r4)	;0xfff4(r4)
    c082:	f4 93 f4 ff 	cmp.b	#-1,	-12(r4)	;r3 As==11, 0xfff4(r4)
    c086:	07 20       	jnz	$+16     	;abs 0xc096
    c088:	7e 40 42 00 	mov.b	#66,	r14	;#0x0042
    c08c:	3f 40 8a d4 	mov	#-11126,r15	;#0xd48a
    c090:	b0 12 3c c6 	call	#0xc63c	
    c094:	e7 3f       	jmp	$-48     	;abs 0xc064
    c096:	5b 44 f4 ff 	mov.b	-12(r4),r11	;0xfff4(r4)
    c09a:	8b 11       	sxt	r11		
    c09c:	1f 42 34 02 	mov	&0x0234,r15	
    c0a0:	3e 40 0a 00 	mov	#10,	r14	;#0x000a
    c0a4:	b0 12 40 ca 	call	#0xca40	
    c0a8:	08 4f       	mov	r15,	r8	
    c0aa:	1f 42 34 02 	mov	&0x0234,r15	
    c0ae:	3e 40 0a 00 	mov	#10,	r14	;#0x000a
    c0b2:	b0 12 0e ca 	call	#0xca0e	
    c0b6:	09 4f       	mov	r15,	r9	
    c0b8:	1f 42 32 02 	mov	&0x0232,r15	
    c0bc:	3e 40 0a 00 	mov	#10,	r14	;#0x000a
    c0c0:	b0 12 40 ca 	call	#0xca40	
    c0c4:	0a 4f       	mov	r15,	r10	
    c0c6:	1f 42 32 02 	mov	&0x0232,r15	
    c0ca:	3e 40 0a 00 	mov	#10,	r14	;#0x000a
    c0ce:	b0 12 0e ca 	call	#0xca0e	
    c0d2:	0b 12       	push	r11		
    c0d4:	08 12       	push	r8		
    c0d6:	09 12       	push	r9		
    c0d8:	0a 12       	push	r10		
    c0da:	0f 12       	push	r15		
    c0dc:	30 12 97 d4 	push	#-11113	;#0xd497
    c0e0:	30 12 06 02 	push	#518		;#0x0206
    c0e4:	b0 12 a6 ca 	call	#0xcaa6	
    c0e8:	31 50 0e 00 	add	#14,	r1	;#0x000e
    c0ec:	7e 40 40 00 	mov.b	#64,	r14	;#0x0040
    c0f0:	3f 40 06 02 	mov	#518,	r15	;#0x0206
    c0f4:	b0 12 3c c6 	call	#0xc63c	
    c0f8:	b5 3f       	jmp	$-148    	;abs 0xc064

0000c0fa <__stop_progExec__>:
    c0fa:	32 d0 f0 00 	bis	#240,	r2	;#0x00f0
    c0fe:	fd 3f       	jmp	$-4      	;abs 0xc0fa

0000c100 <__ctors_end>:
    c100:	30 40 6a d4 	br	#0xd46a	

0000c104 <wdt_init>:
    c104:	04 12       	push	r4		
    c106:	04 41       	mov	r1,	r4	
    c108:	24 53       	incd	r4		
    c10a:	b2 40 80 5a 	mov	#23168,	&0x0120	;#0x5a80
    c10e:	20 01 
    c110:	34 41       	pop	r4		
    c112:	30 41       	ret			

0000c114 <gpio_init>:
    c114:	04 12       	push	r4		
    c116:	04 41       	mov	r1,	r4	
    c118:	24 53       	incd	r4		
    c11a:	c2 43 2c 00 	mov.b	#0,	&0x002c	;r3 As==00
    c11e:	c2 43 2d 00 	mov.b	#0,	&0x002d	;r3 As==00
    c122:	34 41       	pop	r4		
    c124:	30 41       	ret			

0000c126 <ta_init>:
    c126:	04 12       	push	r4		
    c128:	04 41       	mov	r1,	r4	
    c12a:	24 53       	incd	r4		
    c12c:	b2 40 00 02 	mov	#512,	&0x0160	;#0x0200
    c130:	60 01 
    c132:	1f 42 60 01 	mov	&0x0160,r15	
    c136:	3f d0 20 00 	bis	#32,	r15	;#0x0020
    c13a:	82 4f 60 01 	mov	r15,	&0x0160	
    c13e:	34 41       	pop	r4		
    c140:	30 41       	ret			

0000c142 <mclk_init>:
    c142:	04 12       	push	r4		
    c144:	04 41       	mov	r1,	r4	
    c146:	24 53       	incd	r4		
    c148:	f2 40 e0 ff 	mov.b	#-32,	&0x0056	;#0xffe0
    c14c:	56 00 
    c14e:	5f 42 57 00 	mov.b	&0x0057,r15	
    c152:	7f d0 0f 00 	bis.b	#15,	r15	;#0x000f
    c156:	c2 4f 57 00 	mov.b	r15,	&0x0057	
    c15a:	34 41       	pop	r4		
    c15c:	30 41       	ret			

0000c15e <init_device>:
    c15e:	04 12       	push	r4		
    c160:	04 41       	mov	r1,	r4	
    c162:	24 53       	incd	r4		
    c164:	32 d2       	eint			
    c166:	b0 12 04 c1 	call	#0xc104	
    c16a:	b0 12 42 c1 	call	#0xc142	
    c16e:	b0 12 14 c1 	call	#0xc114	
    c172:	b0 12 26 c1 	call	#0xc126	
    c176:	34 41       	pop	r4		
    c178:	30 41       	ret			

0000c17a <wr_data>:
    c17a:	04 12       	push	r4		
    c17c:	04 41       	mov	r1,	r4	
    c17e:	24 53       	incd	r4		
    c180:	21 82       	sub	#4,	r1	;r2 As==10
    c182:	c4 4f fa ff 	mov.b	r15,	-6(r4)	;0xfffa(r4)
    c186:	84 4e fc ff 	mov	r14,	-4(r4)	;0xfffc(r4)
    c18a:	c4 93 fa ff 	tst.b	-6(r4)		;0xfffa(r4)
    c18e:	0a 24       	jz	$+22     	;abs 0xc1a4
    c190:	1f 44 fc ff 	mov	-4(r4),	r15	;0xfffc(r4)
    c194:	6f 4f       	mov.b	@r15,	r15	
    c196:	4e 4f       	mov.b	r15,	r14	
    c198:	5e d3       	bis.b	#1,	r14	;r3 As==01
    c19a:	1f 44 fc ff 	mov	-4(r4),	r15	;0xfffc(r4)
    c19e:	cf 4e 00 00 	mov.b	r14,	0(r15)	;0x0000(r15)
    c1a2:	0a 3c       	jmp	$+22     	;abs 0xc1b8
    c1a4:	1f 44 fc ff 	mov	-4(r4),	r15	;0xfffc(r4)
    c1a8:	6f 4f       	mov.b	@r15,	r15	
    c1aa:	4e 4f       	mov.b	r15,	r14	
    c1ac:	7e f0 fe ff 	and.b	#-2,	r14	;#0xfffe
    c1b0:	1f 44 fc ff 	mov	-4(r4),	r15	;0xfffc(r4)
    c1b4:	cf 4e 00 00 	mov.b	r14,	0(r15)	;0x0000(r15)
    c1b8:	5f 42 36 02 	mov.b	&0x0236,r15	
    c1bc:	7f f0 07 00 	and.b	#7,	r15	;#0x0007
    c1c0:	7f 90 07 00 	cmp.b	#7,	r15	;#0x0007
    c1c4:	0a 2c       	jc	$+22     	;abs 0xc1da
    c1c6:	1f 44 fc ff 	mov	-4(r4),	r15	;0xfffc(r4)
    c1ca:	6f 4f       	mov.b	@r15,	r15	
    c1cc:	4f 4f       	mov.b	r15,	r15	
    c1ce:	4f 4f       	mov.b	r15,	r15	
    c1d0:	4f 5f       	rla.b	r15		
    c1d2:	1e 44 fc ff 	mov	-4(r4),	r14	;0xfffc(r4)
    c1d6:	ce 4f 00 00 	mov.b	r15,	0(r14)	;0x0000(r14)
    c1da:	21 52       	add	#4,	r1	;r2 As==10
    c1dc:	34 41       	pop	r4		
    c1de:	30 41       	ret			

0000c1e0 <p2_isr>:
    c1e0:	0f 12       	push	r15		
    c1e2:	0e 12       	push	r14		
    c1e4:	0d 12       	push	r13		
    c1e6:	0c 12       	push	r12		
    c1e8:	04 12       	push	r4		
    c1ea:	04 41       	mov	r1,	r4	
    c1ec:	34 50 0a 00 	add	#10,	r4	;#0x000a
    c1f0:	21 83       	decd	r1		
    c1f2:	5f 42 2b 00 	mov.b	&0x002b,r15	
    c1f6:	4f 4f       	mov.b	r15,	r15	
    c1f8:	3f f2       	and	#8,	r15	;r2 As==11
    c1fa:	0f 93       	tst	r15		
    c1fc:	7b 24       	jz	$+248    	;abs 0xc2f4
    c1fe:	5f 42 36 02 	mov.b	&0x0236,r15	
    c202:	7f 90 28 00 	cmp.b	#40,	r15	;#0x0028
    c206:	04 2c       	jc	$+10     	;abs 0xc210
    c208:	b0 12 6a c9 	call	#0xc96a	
    c20c:	c4 4f f4 ff 	mov.b	r15,	-12(r4)	;0xfff4(r4)
    c210:	c4 93 f4 ff 	tst.b	-12(r4)	;0xfff4(r4)
    c214:	04 34       	jge	$+10     	;abs 0xc21e
    c216:	5f 42 36 02 	mov.b	&0x0236,r15	
    c21a:	4f 93       	tst.b	r15		
    c21c:	64 24       	jz	$+202    	;abs 0xc2e6
    c21e:	5f 42 36 02 	mov.b	&0x0236,r15	
    c222:	5f 53       	inc.b	r15		
    c224:	c2 4f 36 02 	mov.b	r15,	&0x0236	
    c228:	c4 93 f4 ff 	tst.b	-12(r4)	;0xfff4(r4)
    c22c:	36 38       	jl	$+110    	;abs 0xc29a
    c22e:	5f 42 36 02 	mov.b	&0x0236,r15	
    c232:	4f 4f       	mov.b	r15,	r15	
    c234:	4f 4f       	mov.b	r15,	r15	
    c236:	12 c3       	clrc			
    c238:	4f 10       	rrc.b	r15		
    c23a:	12 c3       	clrc			
    c23c:	4f 10       	rrc.b	r15		
    c23e:	12 c3       	clrc			
    c240:	4f 10       	rrc.b	r15		
    c242:	4f 4f       	mov.b	r15,	r15	
    c244:	3f 90 05 00 	cmp	#5,	r15	;#0x0005
    c248:	28 2c       	jc	$+82     	;abs 0xc29a
    c24a:	0f 5f       	rla	r15		
    c24c:	3f 50 72 d4 	add	#-11150,r15	;#0xd472
    c250:	2f 4f       	mov	@r15,	r15	
    c252:	00 4f       	br	r15		
    c254:	3e 40 2c 02 	mov	#556,	r14	;#0x022c
    c258:	5f 44 f4 ff 	mov.b	-12(r4),r15	;0xfff4(r4)
    c25c:	b0 12 7a c1 	call	#0xc17a	
    c260:	1c 3c       	jmp	$+58     	;abs 0xc29a
    c262:	3e 40 2d 02 	mov	#557,	r14	;#0x022d
    c266:	5f 44 f4 ff 	mov.b	-12(r4),r15	;0xfff4(r4)
    c26a:	b0 12 7a c1 	call	#0xc17a	
    c26e:	15 3c       	jmp	$+44     	;abs 0xc29a
    c270:	3e 40 2e 02 	mov	#558,	r14	;#0x022e
    c274:	5f 44 f4 ff 	mov.b	-12(r4),r15	;0xfff4(r4)
    c278:	b0 12 7a c1 	call	#0xc17a	
    c27c:	0e 3c       	jmp	$+30     	;abs 0xc29a
    c27e:	3e 40 2f 02 	mov	#559,	r14	;#0x022f
    c282:	5f 44 f4 ff 	mov.b	-12(r4),r15	;0xfff4(r4)
    c286:	b0 12 7a c1 	call	#0xc17a	
    c28a:	07 3c       	jmp	$+16     	;abs 0xc29a
    c28c:	3e 40 30 02 	mov	#560,	r14	;#0x0230
    c290:	5f 44 f4 ff 	mov.b	-12(r4),r15	;0xfff4(r4)
    c294:	b0 12 7a c1 	call	#0xc17a	
    c298:	03 43       	nop			
    c29a:	5f 42 36 02 	mov.b	&0x0236,r15	
    c29e:	7f 90 28 00 	cmp.b	#40,	r15	;#0x0028
    c2a2:	03 2c       	jc	$+8      	;abs 0xc2aa
    c2a4:	c4 93 f4 ff 	tst.b	-12(r4)	;0xfff4(r4)
    c2a8:	1f 34       	jge	$+64     	;abs 0xc2e8
    c2aa:	5f 42 36 02 	mov.b	&0x0236,r15	
    c2ae:	4f 4f       	mov.b	r15,	r15	
    c2b0:	1e 42 38 02 	mov	&0x0238,r14	
    c2b4:	0f 12       	push	r15		
    c2b6:	0e 12       	push	r14		
    c2b8:	30 12 6c d4 	push	#-11156	;#0xd46c
    c2bc:	30 12 18 02 	push	#536		;#0x0218
    c2c0:	b0 12 a6 ca 	call	#0xcaa6	
    c2c4:	31 52       	add	#8,	r1	;r2 As==11
    c2c6:	4e 43       	clr.b	r14		
    c2c8:	3f 40 18 02 	mov	#536,	r15	;#0x0218
    c2cc:	b0 12 3c c6 	call	#0xc63c	
    c2d0:	c2 43 36 02 	mov.b	#0,	&0x0236	;r3 As==00
    c2d4:	c2 43 2a 02 	mov.b	#0,	&0x022a	;r3 As==00
    c2d8:	5f 42 2d 00 	mov.b	&0x002d,r15	
    c2dc:	7f f0 f7 ff 	and.b	#-9,	r15	;#0xfff7
    c2e0:	c2 4f 2d 00 	mov.b	r15,	&0x002d	
    c2e4:	01 3c       	jmp	$+4      	;abs 0xc2e8
    c2e6:	03 43       	nop			
    c2e8:	5f 42 2b 00 	mov.b	&0x002b,r15	
    c2ec:	7f f0 f7 ff 	and.b	#-9,	r15	;#0xfff7
    c2f0:	c2 4f 2b 00 	mov.b	r15,	&0x002b	
    c2f4:	21 53       	incd	r1		
    c2f6:	34 41       	pop	r4		
    c2f8:	3c 41       	pop	r12		
    c2fa:	3d 41       	pop	r13		
    c2fc:	3e 41       	pop	r14		
    c2fe:	3f 41       	pop	r15		
    c300:	00 13       	reti			

0000c302 <read>:
    c302:	04 12       	push	r4		
    c304:	04 41       	mov	r1,	r4	
    c306:	24 53       	incd	r4		
    c308:	21 83       	decd	r1		
    c30a:	c4 43 fc ff 	mov.b	#0,	-4(r4)	;r3 As==00, 0xfffc(r4)
    c30e:	5f 42 2a 00 	mov.b	&0x002a,r15	
    c312:	7f f0 0f 00 	and.b	#15,	r15	;#0x000f
    c316:	c2 4f 2a 00 	mov.b	r15,	&0x002a	
    c31a:	5f 42 29 00 	mov.b	&0x0029,r15	
    c31e:	7f f0 0f 00 	and.b	#15,	r15	;#0x000f
    c322:	c2 4f 29 00 	mov.b	r15,	&0x0029	
    c326:	3f 40 4f 00 	mov	#79,	r15	;#0x004f
    c32a:	1f 83       	dec	r15		
    c32c:	0f 93       	tst	r15		
    c32e:	fd 23       	jnz	$-4      	;abs 0xc32a
    c330:	03 43       	nop			
    c332:	5f 42 29 00 	mov.b	&0x0029,r15	
    c336:	6f d2       	bis.b	#4,	r15	;r2 As==10
    c338:	c2 4f 29 00 	mov.b	r15,	&0x0029	
    c33c:	3f 40 4f 00 	mov	#79,	r15	;#0x004f
    c340:	1f 83       	dec	r15		
    c342:	0f 93       	tst	r15		
    c344:	fd 23       	jnz	$-4      	;abs 0xc340
    c346:	03 43       	nop			
    c348:	5f 42 28 00 	mov.b	&0x0028,r15	
    c34c:	4e 4f       	mov.b	r15,	r14	
    c34e:	7e f0 f0 ff 	and.b	#-16,	r14	;#0xfff0
    c352:	c4 4e fc ff 	mov.b	r14,	-4(r4)	;0xfffc(r4)
    c356:	5f 42 29 00 	mov.b	&0x0029,r15	
    c35a:	7f f0 fb ff 	and.b	#-5,	r15	;#0xfffb
    c35e:	c2 4f 29 00 	mov.b	r15,	&0x0029	
    c362:	3f 40 4f 00 	mov	#79,	r15	;#0x004f
    c366:	1f 83       	dec	r15		
    c368:	0f 93       	tst	r15		
    c36a:	fd 23       	jnz	$-4      	;abs 0xc366
    c36c:	03 43       	nop			
    c36e:	5f 42 29 00 	mov.b	&0x0029,r15	
    c372:	6f d2       	bis.b	#4,	r15	;r2 As==10
    c374:	c2 4f 29 00 	mov.b	r15,	&0x0029	
    c378:	3f 40 4f 00 	mov	#79,	r15	;#0x004f
    c37c:	1f 83       	dec	r15		
    c37e:	0f 93       	tst	r15		
    c380:	fd 23       	jnz	$-4      	;abs 0xc37c
    c382:	03 43       	nop			
    c384:	5f 42 28 00 	mov.b	&0x0028,r15	
    c388:	4f 4f       	mov.b	r15,	r15	
    c38a:	4f 4f       	mov.b	r15,	r15	
    c38c:	12 c3       	clrc			
    c38e:	4f 10       	rrc.b	r15		
    c390:	12 c3       	clrc			
    c392:	4f 10       	rrc.b	r15		
    c394:	12 c3       	clrc			
    c396:	4f 10       	rrc.b	r15		
    c398:	12 c3       	clrc			
    c39a:	4f 10       	rrc.b	r15		
    c39c:	4e 4f       	mov.b	r15,	r14	
    c39e:	5f 44 fc ff 	mov.b	-4(r4),	r15	;0xfffc(r4)
    c3a2:	4f de       	bis.b	r14,	r15	
    c3a4:	c4 4f fc ff 	mov.b	r15,	-4(r4)	;0xfffc(r4)
    c3a8:	5f 42 29 00 	mov.b	&0x0029,r15	
    c3ac:	7f f0 fb ff 	and.b	#-5,	r15	;#0xfffb
    c3b0:	c2 4f 29 00 	mov.b	r15,	&0x0029	
    c3b4:	3f 40 4f 00 	mov	#79,	r15	;#0x004f
    c3b8:	1f 83       	dec	r15		
    c3ba:	0f 93       	tst	r15		
    c3bc:	fd 23       	jnz	$-4      	;abs 0xc3b8
    c3be:	03 43       	nop			
    c3c0:	5f 44 fc ff 	mov.b	-4(r4),	r15	;0xfffc(r4)
    c3c4:	21 53       	incd	r1		
    c3c6:	34 41       	pop	r4		
    c3c8:	30 41       	ret			

0000c3ca <write>:
    c3ca:	04 12       	push	r4		
    c3cc:	04 41       	mov	r1,	r4	
    c3ce:	24 53       	incd	r4		
    c3d0:	21 83       	decd	r1		
    c3d2:	c4 4f fc ff 	mov.b	r15,	-4(r4)	;0xfffc(r4)
    c3d6:	5f 42 2a 00 	mov.b	&0x002a,r15	
    c3da:	7f d0 f0 ff 	bis.b	#-16,	r15	;#0xfff0
    c3de:	c2 4f 2a 00 	mov.b	r15,	&0x002a	
    c3e2:	5f 42 28 02 	mov.b	&0x0228,r15	
    c3e6:	4f 93       	tst.b	r15		
    c3e8:	2e 24       	jz	$+94     	;abs 0xc446
    c3ea:	5f 42 29 00 	mov.b	&0x0029,r15	
    c3ee:	7f f0 0f 00 	and.b	#15,	r15	;#0x000f
    c3f2:	c2 4f 29 00 	mov.b	r15,	&0x0029	
    c3f6:	3f 40 4f 00 	mov	#79,	r15	;#0x004f
    c3fa:	1f 83       	dec	r15		
    c3fc:	0f 93       	tst	r15		
    c3fe:	fd 23       	jnz	$-4      	;abs 0xc3fa
    c400:	03 43       	nop			
    c402:	5f 42 29 00 	mov.b	&0x0029,r15	
    c406:	6f d2       	bis.b	#4,	r15	;r2 As==10
    c408:	c2 4f 29 00 	mov.b	r15,	&0x0029	
    c40c:	5f 44 fc ff 	mov.b	-4(r4),	r15	;0xfffc(r4)
    c410:	4e 4f       	mov.b	r15,	r14	
    c412:	7e f0 f0 ff 	and.b	#-16,	r14	;#0xfff0
    c416:	5f 42 29 00 	mov.b	&0x0029,r15	
    c41a:	4f de       	bis.b	r14,	r15	
    c41c:	c2 4f 29 00 	mov.b	r15,	&0x0029	
    c420:	3f 40 4f 00 	mov	#79,	r15	;#0x004f
    c424:	1f 83       	dec	r15		
    c426:	0f 93       	tst	r15		
    c428:	fd 23       	jnz	$-4      	;abs 0xc424
    c42a:	03 43       	nop			
    c42c:	5f 42 29 00 	mov.b	&0x0029,r15	
    c430:	7f f0 fb ff 	and.b	#-5,	r15	;#0xfffb
    c434:	c2 4f 29 00 	mov.b	r15,	&0x0029	
    c438:	3f 40 4f 00 	mov	#79,	r15	;#0x004f
    c43c:	1f 83       	dec	r15		
    c43e:	0f 93       	tst	r15		
    c440:	fd 23       	jnz	$-4      	;abs 0xc43c
    c442:	03 43       	nop			
    c444:	7e 3c       	jmp	$+254    	;abs 0xc542
    c446:	5f 42 29 00 	mov.b	&0x0029,r15	
    c44a:	7f f0 0f 00 	and.b	#15,	r15	;#0x000f
    c44e:	c2 4f 29 00 	mov.b	r15,	&0x0029	
    c452:	3f 40 4f 00 	mov	#79,	r15	;#0x004f
    c456:	1f 83       	dec	r15		
    c458:	0f 93       	tst	r15		
    c45a:	fd 23       	jnz	$-4      	;abs 0xc456
    c45c:	03 43       	nop			
    c45e:	5f 42 29 00 	mov.b	&0x0029,r15	
    c462:	6f d2       	bis.b	#4,	r15	;r2 As==10
    c464:	c2 4f 29 00 	mov.b	r15,	&0x0029	
    c468:	5f 44 fc ff 	mov.b	-4(r4),	r15	;0xfffc(r4)
    c46c:	4e 4f       	mov.b	r15,	r14	
    c46e:	7e f0 f0 ff 	and.b	#-16,	r14	;#0xfff0
    c472:	5f 42 29 00 	mov.b	&0x0029,r15	
    c476:	4f de       	bis.b	r14,	r15	
    c478:	c2 4f 29 00 	mov.b	r15,	&0x0029	
    c47c:	3f 40 4f 00 	mov	#79,	r15	;#0x004f
    c480:	1f 83       	dec	r15		
    c482:	0f 93       	tst	r15		
    c484:	fd 23       	jnz	$-4      	;abs 0xc480
    c486:	03 43       	nop			
    c488:	5f 42 29 00 	mov.b	&0x0029,r15	
    c48c:	7f f0 fb ff 	and.b	#-5,	r15	;#0xfffb
    c490:	c2 4f 29 00 	mov.b	r15,	&0x0029	
    c494:	3f 40 4f 00 	mov	#79,	r15	;#0x004f
    c498:	1f 83       	dec	r15		
    c49a:	0f 93       	tst	r15		
    c49c:	fd 23       	jnz	$-4      	;abs 0xc498
    c49e:	03 43       	nop			
    c4a0:	5f 42 29 00 	mov.b	&0x0029,r15	
    c4a4:	7f f0 0f 00 	and.b	#15,	r15	;#0x000f
    c4a8:	c2 4f 29 00 	mov.b	r15,	&0x0029	
    c4ac:	3f 40 4f 00 	mov	#79,	r15	;#0x004f
    c4b0:	1f 83       	dec	r15		
    c4b2:	0f 93       	tst	r15		
    c4b4:	fd 23       	jnz	$-4      	;abs 0xc4b0
    c4b6:	03 43       	nop			
    c4b8:	5f 42 29 00 	mov.b	&0x0029,r15	
    c4bc:	6f d2       	bis.b	#4,	r15	;r2 As==10
    c4be:	c2 4f 29 00 	mov.b	r15,	&0x0029	
    c4c2:	5f 44 fc ff 	mov.b	-4(r4),	r15	;0xfffc(r4)
    c4c6:	3f f2       	and	#8,	r15	;r2 As==11
    c4c8:	0f 93       	tst	r15		
    c4ca:	03 24       	jz	$+8      	;abs 0xc4d2
    c4cc:	7e 40 80 ff 	mov.b	#-128,	r14	;#0xff80
    c4d0:	01 3c       	jmp	$+4      	;abs 0xc4d4
    c4d2:	4e 43       	clr.b	r14		
    c4d4:	5f 44 fc ff 	mov.b	-4(r4),	r15	;0xfffc(r4)
    c4d8:	2f f2       	and	#4,	r15	;r2 As==10
    c4da:	0f 93       	tst	r15		
    c4dc:	03 24       	jz	$+8      	;abs 0xc4e4
    c4de:	7f 40 40 00 	mov.b	#64,	r15	;#0x0040
    c4e2:	01 3c       	jmp	$+4      	;abs 0xc4e6
    c4e4:	4f 43       	clr.b	r15		
    c4e6:	4e df       	bis.b	r15,	r14	
    c4e8:	5f 44 fc ff 	mov.b	-4(r4),	r15	;0xfffc(r4)
    c4ec:	2f f3       	and	#2,	r15	;r3 As==10
    c4ee:	0f 93       	tst	r15		
    c4f0:	03 24       	jz	$+8      	;abs 0xc4f8
    c4f2:	7f 40 20 00 	mov.b	#32,	r15	;#0x0020
    c4f6:	01 3c       	jmp	$+4      	;abs 0xc4fa
    c4f8:	4f 43       	clr.b	r15		
    c4fa:	4e df       	bis.b	r15,	r14	
    c4fc:	5f 44 fc ff 	mov.b	-4(r4),	r15	;0xfffc(r4)
    c500:	1f f3       	and	#1,	r15	;r3 As==01
    c502:	0f 5f       	rla	r15		
    c504:	0f 5f       	rla	r15		
    c506:	0f 5f       	rla	r15		
    c508:	0f 5f       	rla	r15		
    c50a:	4f 4f       	mov.b	r15,	r15	
    c50c:	4f de       	bis.b	r14,	r15	
    c50e:	4e 4f       	mov.b	r15,	r14	
    c510:	7e f0 f0 ff 	and.b	#-16,	r14	;#0xfff0
    c514:	5f 42 29 00 	mov.b	&0x0029,r15	
    c518:	4f de       	bis.b	r14,	r15	
    c51a:	c2 4f 29 00 	mov.b	r15,	&0x0029	
    c51e:	3f 40 4f 00 	mov	#79,	r15	;#0x004f
    c522:	1f 83       	dec	r15		
    c524:	0f 93       	tst	r15		
    c526:	fd 23       	jnz	$-4      	;abs 0xc522
    c528:	03 43       	nop			
    c52a:	5f 42 29 00 	mov.b	&0x0029,r15	
    c52e:	7f f0 fb ff 	and.b	#-5,	r15	;#0xfffb
    c532:	c2 4f 29 00 	mov.b	r15,	&0x0029	
    c536:	3f 40 4f 00 	mov	#79,	r15	;#0x004f
    c53a:	1f 83       	dec	r15		
    c53c:	0f 93       	tst	r15		
    c53e:	fd 23       	jnz	$-4      	;abs 0xc53a
    c540:	03 43       	nop			
    c542:	21 53       	incd	r1		
    c544:	34 41       	pop	r4		
    c546:	30 41       	ret			

0000c548 <check_busy>:
    c548:	04 12       	push	r4		
    c54a:	04 41       	mov	r1,	r4	
    c54c:	24 53       	incd	r4		
    c54e:	21 83       	decd	r1		
    c550:	c4 43 fc ff 	mov.b	#0,	-4(r4)	;r3 As==00, 0xfffc(r4)
    c554:	5f 42 29 00 	mov.b	&0x0029,r15	
    c558:	7f f0 fe ff 	and.b	#-2,	r15	;#0xfffe
    c55c:	c2 4f 29 00 	mov.b	r15,	&0x0029	
    c560:	5f 42 29 00 	mov.b	&0x0029,r15	
    c564:	6f d3       	bis.b	#2,	r15	;r3 As==10
    c566:	c2 4f 29 00 	mov.b	r15,	&0x0029	
    c56a:	b0 12 02 c3 	call	#0xc302	
    c56e:	c4 4f fc ff 	mov.b	r15,	-4(r4)	;0xfffc(r4)
    c572:	5f 44 fc ff 	mov.b	-4(r4),	r15	;0xfffc(r4)
    c576:	4f 93       	tst.b	r15		
    c578:	f8 3b       	jl	$-14     	;abs 0xc56a
    c57a:	21 53       	incd	r1		
    c57c:	34 41       	pop	r4		
    c57e:	30 41       	ret			

0000c580 <wr_instr>:
    c580:	04 12       	push	r4		
    c582:	04 41       	mov	r1,	r4	
    c584:	24 53       	incd	r4		
    c586:	21 83       	decd	r1		
    c588:	c4 4f fc ff 	mov.b	r15,	-4(r4)	;0xfffc(r4)
    c58c:	5f 42 28 02 	mov.b	&0x0228,r15	
    c590:	4f 93       	tst.b	r15		
    c592:	06 24       	jz	$+14     	;abs 0xc5a0
    c594:	3f 40 2a 68 	mov	#26666,	r15	;#0x682a
    c598:	1f 83       	dec	r15		
    c59a:	0f 93       	tst	r15		
    c59c:	fd 23       	jnz	$-4      	;abs 0xc598
    c59e:	02 3c       	jmp	$+6      	;abs 0xc5a4
    c5a0:	b0 12 48 c5 	call	#0xc548	
    c5a4:	5f 42 29 00 	mov.b	&0x0029,r15	
    c5a8:	7f f0 fe ff 	and.b	#-2,	r15	;#0xfffe
    c5ac:	c2 4f 29 00 	mov.b	r15,	&0x0029	
    c5b0:	5f 42 29 00 	mov.b	&0x0029,r15	
    c5b4:	7f f0 fd ff 	and.b	#-3,	r15	;#0xfffd
    c5b8:	c2 4f 29 00 	mov.b	r15,	&0x0029	
    c5bc:	5f 44 fc ff 	mov.b	-4(r4),	r15	;0xfffc(r4)
    c5c0:	b0 12 ca c3 	call	#0xc3ca	
    c5c4:	21 53       	incd	r1		
    c5c6:	34 41       	pop	r4		
    c5c8:	30 41       	ret			

0000c5ca <wr_symb>:
    c5ca:	04 12       	push	r4		
    c5cc:	04 41       	mov	r1,	r4	
    c5ce:	24 53       	incd	r4		
    c5d0:	21 83       	decd	r1		
    c5d2:	c4 4f fc ff 	mov.b	r15,	-4(r4)	;0xfffc(r4)
    c5d6:	5f 42 29 00 	mov.b	&0x0029,r15	
    c5da:	5f d3       	bis.b	#1,	r15	;r3 As==01
    c5dc:	c2 4f 29 00 	mov.b	r15,	&0x0029	
    c5e0:	5f 42 29 00 	mov.b	&0x0029,r15	
    c5e4:	7f f0 fd ff 	and.b	#-3,	r15	;#0xfffd
    c5e8:	c2 4f 29 00 	mov.b	r15,	&0x0029	
    c5ec:	5f 44 fc ff 	mov.b	-4(r4),	r15	;0xfffc(r4)
    c5f0:	b0 12 ca c3 	call	#0xc3ca	
    c5f4:	21 53       	incd	r1		
    c5f6:	34 41       	pop	r4		
    c5f8:	30 41       	ret			

0000c5fa <wr_scr>:
    c5fa:	04 12       	push	r4		
    c5fc:	04 41       	mov	r1,	r4	
    c5fe:	24 53       	incd	r4		
    c600:	21 82       	sub	#4,	r1	;r2 As==10
    c602:	84 4f fa ff 	mov	r15,	-6(r4)	;0xfffa(r4)
    c606:	c4 4e fc ff 	mov.b	r14,	-4(r4)	;0xfffc(r4)
    c60a:	5f 43       	mov.b	#1,	r15	;r3 As==01
    c60c:	b0 12 80 c5 	call	#0xc580	
    c610:	5f 44 fc ff 	mov.b	-4(r4),	r15	;0xfffc(r4)
    c614:	7f d0 80 ff 	bis.b	#-128,	r15	;#0xff80
    c618:	b0 12 80 c5 	call	#0xc580	
    c61c:	07 3c       	jmp	$+16     	;abs 0xc62c
    c61e:	1f 44 fa ff 	mov	-6(r4),	r15	;0xfffa(r4)
    c622:	6f 4f       	mov.b	@r15,	r15	
    c624:	94 53 fa ff 	inc	-6(r4)		;0xfffa(r4)
    c628:	b0 12 ca c5 	call	#0xc5ca	
    c62c:	1f 44 fa ff 	mov	-6(r4),	r15	;0xfffa(r4)
    c630:	6f 4f       	mov.b	@r15,	r15	
    c632:	4f 93       	tst.b	r15		
    c634:	f4 23       	jnz	$-22     	;abs 0xc61e
    c636:	21 52       	add	#4,	r1	;r2 As==10
    c638:	34 41       	pop	r4		
    c63a:	30 41       	ret			

0000c63c <wr_str>:
    c63c:	04 12       	push	r4		
    c63e:	04 41       	mov	r1,	r4	
    c640:	24 53       	incd	r4		
    c642:	31 50 fa ff 	add	#-6,	r1	;#0xfffa
    c646:	84 4f fa ff 	mov	r15,	-6(r4)	;0xfffa(r4)
    c64a:	c4 4e fc ff 	mov.b	r14,	-4(r4)	;0xfffc(r4)
    c64e:	5f 44 fc ff 	mov.b	-4(r4),	r15	;0xfffc(r4)
    c652:	7f f0 70 00 	and.b	#112,	r15	;#0x0070
    c656:	7f d0 80 ff 	bis.b	#-128,	r15	;#0xff80
    c65a:	b0 12 80 c5 	call	#0xc580	
    c65e:	c4 43 f8 ff 	mov.b	#0,	-8(r4)	;r3 As==00, 0xfff8(r4)
    c662:	06 3c       	jmp	$+14     	;abs 0xc670
    c664:	7f 40 20 00 	mov.b	#32,	r15	;#0x0020
    c668:	b0 12 ca c5 	call	#0xc5ca	
    c66c:	d4 53 f8 ff 	inc.b	-8(r4)		;0xfff8(r4)
    c670:	f4 90 10 00 	cmp.b	#16,	-8(r4)	;#0x0010, 0xfff8(r4)
    c674:	f8 ff 
    c676:	f6 2b       	jnc	$-18     	;abs 0xc664
    c678:	5f 44 fc ff 	mov.b	-4(r4),	r15	;0xfffc(r4)
    c67c:	7f d0 80 ff 	bis.b	#-128,	r15	;#0xff80
    c680:	b0 12 80 c5 	call	#0xc580	
    c684:	07 3c       	jmp	$+16     	;abs 0xc694
    c686:	1f 44 fa ff 	mov	-6(r4),	r15	;0xfffa(r4)
    c68a:	6f 4f       	mov.b	@r15,	r15	
    c68c:	94 53 fa ff 	inc	-6(r4)		;0xfffa(r4)
    c690:	b0 12 ca c5 	call	#0xc5ca	
    c694:	1f 44 fa ff 	mov	-6(r4),	r15	;0xfffa(r4)
    c698:	6f 4f       	mov.b	@r15,	r15	
    c69a:	4f 93       	tst.b	r15		
    c69c:	f4 23       	jnz	$-22     	;abs 0xc686
    c69e:	31 50 06 00 	add	#6,	r1	;#0x0006
    c6a2:	34 41       	pop	r4		
    c6a4:	30 41       	ret			

0000c6a6 <lcd_init>:
    c6a6:	04 12       	push	r4		
    c6a8:	04 41       	mov	r1,	r4	
    c6aa:	24 53       	incd	r4		
    c6ac:	5f 42 2a 00 	mov.b	&0x002a,r15	
    c6b0:	7f d0 f0 ff 	bis.b	#-16,	r15	;#0xfff0
    c6b4:	c2 4f 2a 00 	mov.b	r15,	&0x002a	
    c6b8:	5f 42 2a 00 	mov.b	&0x002a,r15	
    c6bc:	7f d0 07 00 	bis.b	#7,	r15	;#0x0007
    c6c0:	c2 4f 2a 00 	mov.b	r15,	&0x002a	
    c6c4:	5f 42 29 00 	mov.b	&0x0029,r15	
    c6c8:	7f f0 0f 00 	and.b	#15,	r15	;#0x000f
    c6cc:	c2 4f 29 00 	mov.b	r15,	&0x0029	
    c6d0:	5f 42 29 00 	mov.b	&0x0029,r15	
    c6d4:	7f f0 f8 ff 	and.b	#-8,	r15	;#0xfff8
    c6d8:	c2 4f 29 00 	mov.b	r15,	&0x0029	
    c6dc:	5f 42 2e 00 	mov.b	&0x002e,r15	
    c6e0:	7f f0 0f 00 	and.b	#15,	r15	;#0x000f
    c6e4:	c2 4f 2e 00 	mov.b	r15,	&0x002e	
    c6e8:	5f 42 2e 00 	mov.b	&0x002e,r15	
    c6ec:	7f f0 f8 ff 	and.b	#-8,	r15	;#0xfff8
    c6f0:	c2 4f 2e 00 	mov.b	r15,	&0x002e	
    c6f4:	5f 42 42 00 	mov.b	&0x0042,r15	
    c6f8:	7f f0 0f 00 	and.b	#15,	r15	;#0x000f
    c6fc:	c2 4f 42 00 	mov.b	r15,	&0x0042	
    c700:	5f 42 42 00 	mov.b	&0x0042,r15	
    c704:	7f f0 f8 ff 	and.b	#-8,	r15	;#0xfff8
    c708:	c2 4f 42 00 	mov.b	r15,	&0x0042	
    c70c:	d2 43 28 02 	mov.b	#1,	&0x0228	;r3 As==01
    c710:	3f 40 05 00 	mov	#5,	r15	;#0x0005
    c714:	3e 40 a4 11 	mov	#4516,	r14	;#0x11a4
    c718:	1e 83       	dec	r14		
    c71a:	0e 93       	tst	r14		
    c71c:	fd 23       	jnz	$-4      	;abs 0xc718
    c71e:	1f 83       	dec	r15		
    c720:	0f 93       	tst	r15		
    c722:	fa 23       	jnz	$-10     	;abs 0xc718
    c724:	03 43       	nop			
    c726:	7f 40 38 00 	mov.b	#56,	r15	;#0x0038
    c72a:	b0 12 80 c5 	call	#0xc580	
    c72e:	3f 40 54 d0 	mov	#-12204,r15	;#0xd054
    c732:	1f 83       	dec	r15		
    c734:	0f 93       	tst	r15		
    c736:	fd 23       	jnz	$-4      	;abs 0xc732
    c738:	03 43       	nop			
    c73a:	03 43       	nop			
    c73c:	7f 40 38 00 	mov.b	#56,	r15	;#0x0038
    c740:	b0 12 80 c5 	call	#0xc580	
    c744:	3f 40 1f 03 	mov	#799,	r15	;#0x031f
    c748:	1f 83       	dec	r15		
    c74a:	0f 93       	tst	r15		
    c74c:	fd 23       	jnz	$-4      	;abs 0xc748
    c74e:	03 43       	nop			
    c750:	7f 40 38 00 	mov.b	#56,	r15	;#0x0038
    c754:	b0 12 80 c5 	call	#0xc580	
    c758:	3f 40 54 d0 	mov	#-12204,r15	;#0xd054
    c75c:	1f 83       	dec	r15		
    c75e:	0f 93       	tst	r15		
    c760:	fd 23       	jnz	$-4      	;abs 0xc75c
    c762:	03 43       	nop			
    c764:	03 43       	nop			
    c766:	7f 40 28 00 	mov.b	#40,	r15	;#0x0028
    c76a:	b0 12 80 c5 	call	#0xc580	
    c76e:	3f 40 54 d0 	mov	#-12204,r15	;#0xd054
    c772:	1f 83       	dec	r15		
    c774:	0f 93       	tst	r15		
    c776:	fd 23       	jnz	$-4      	;abs 0xc772
    c778:	03 43       	nop			
    c77a:	03 43       	nop			
    c77c:	c2 43 28 02 	mov.b	#0,	&0x0228	;r3 As==00
    c780:	7f 40 28 00 	mov.b	#40,	r15	;#0x0028
    c784:	b0 12 80 c5 	call	#0xc580	
    c788:	7f 42       	mov.b	#8,	r15	;r2 As==11
    c78a:	b0 12 80 c5 	call	#0xc580	
    c78e:	3f 40 54 d0 	mov	#-12204,r15	;#0xd054
    c792:	1f 83       	dec	r15		
    c794:	0f 93       	tst	r15		
    c796:	fd 23       	jnz	$-4      	;abs 0xc792
    c798:	03 43       	nop			
    c79a:	03 43       	nop			
    c79c:	5f 43       	mov.b	#1,	r15	;r3 As==01
    c79e:	b0 12 80 c5 	call	#0xc580	
    c7a2:	3f 40 54 d0 	mov	#-12204,r15	;#0xd054
    c7a6:	1f 83       	dec	r15		
    c7a8:	0f 93       	tst	r15		
    c7aa:	fd 23       	jnz	$-4      	;abs 0xc7a6
    c7ac:	03 43       	nop			
    c7ae:	03 43       	nop			
    c7b0:	7f 40 06 00 	mov.b	#6,	r15	;#0x0006
    c7b4:	b0 12 80 c5 	call	#0xc580	
    c7b8:	3f 40 54 d0 	mov	#-12204,r15	;#0xd054
    c7bc:	1f 83       	dec	r15		
    c7be:	0f 93       	tst	r15		
    c7c0:	fd 23       	jnz	$-4      	;abs 0xc7bc
    c7c2:	03 43       	nop			
    c7c4:	03 43       	nop			
    c7c6:	7f 40 0c 00 	mov.b	#12,	r15	;#0x000c
    c7ca:	b0 12 80 c5 	call	#0xc580	
    c7ce:	3f 40 54 d0 	mov	#-12204,r15	;#0xd054
    c7d2:	1f 83       	dec	r15		
    c7d4:	0f 93       	tst	r15		
    c7d6:	fd 23       	jnz	$-4      	;abs 0xc7d2
    c7d8:	03 43       	nop			
    c7da:	03 43       	nop			
    c7dc:	7f 40 80 ff 	mov.b	#-128,	r15	;#0xff80
    c7e0:	b0 12 80 c5 	call	#0xc580	
    c7e4:	3f 40 54 d0 	mov	#-12204,r15	;#0xd054
    c7e8:	1f 83       	dec	r15		
    c7ea:	0f 93       	tst	r15		
    c7ec:	fd 23       	jnz	$-4      	;abs 0xc7e8
    c7ee:	03 43       	nop			
    c7f0:	03 43       	nop			
    c7f2:	34 41       	pop	r4		
    c7f4:	30 41       	ret			

0000c7f6 <sb_start>:
    c7f6:	04 12       	push	r4		
    c7f8:	04 41       	mov	r1,	r4	
    c7fa:	24 53       	incd	r4		
    c7fc:	5f 42 2a 00 	mov.b	&0x002a,r15	
    c800:	7f d2       	bis.b	#8,	r15	;r2 As==11
    c802:	c2 4f 2a 00 	mov.b	r15,	&0x002a	
    c806:	5f 42 29 00 	mov.b	&0x0029,r15	
    c80a:	7f f0 f7 ff 	and.b	#-9,	r15	;#0xfff7
    c80e:	c2 4f 29 00 	mov.b	r15,	&0x0029	
    c812:	3f 40 03 00 	mov	#3,	r15	;#0x0003
    c816:	3e 40 06 8b 	mov	#-29946,r14	;#0x8b06
    c81a:	1e 83       	dec	r14		
    c81c:	0e 93       	tst	r14		
    c81e:	fd 23       	jnz	$-4      	;abs 0xc81a
    c820:	1f 83       	dec	r15		
    c822:	0f 93       	tst	r15		
    c824:	fa 23       	jnz	$-10     	;abs 0xc81a
    c826:	03 43       	nop			
    c828:	5f 42 29 00 	mov.b	&0x0029,r15	
    c82c:	7f d2       	bis.b	#8,	r15	;r2 As==11
    c82e:	c2 4f 29 00 	mov.b	r15,	&0x0029	
    c832:	3f 40 c7 00 	mov	#199,	r15	;#0x00c7
    c836:	1f 83       	dec	r15		
    c838:	0f 93       	tst	r15		
    c83a:	fd 23       	jnz	$-4      	;abs 0xc836
    c83c:	03 43       	nop			
    c83e:	5f 42 2a 00 	mov.b	&0x002a,r15	
    c842:	7f f0 f7 ff 	and.b	#-9,	r15	;#0xfff7
    c846:	c2 4f 2a 00 	mov.b	r15,	&0x002a	
    c84a:	34 41       	pop	r4		
    c84c:	30 41       	ret			

0000c84e <sb_resp>:
    c84e:	04 12       	push	r4		
    c850:	04 41       	mov	r1,	r4	
    c852:	24 53       	incd	r4		
    c854:	21 82       	sub	#4,	r1	;r2 As==10
    c856:	d4 43 fc ff 	mov.b	#1,	-4(r4)	;r3 As==01, 0xfffc(r4)
    c85a:	b4 40 00 7d 	mov	#32000,	-6(r4)	;#0x7d00, 0xfffa(r4)
    c85e:	fa ff 
    c860:	03 43       	nop			
    c862:	5f 42 28 00 	mov.b	&0x0028,r15	
    c866:	4f 4f       	mov.b	r15,	r15	
    c868:	3f f2       	and	#8,	r15	;r2 As==11
    c86a:	0f 93       	tst	r15		
    c86c:	09 24       	jz	$+20     	;abs 0xc880
    c86e:	5f 43       	mov.b	#1,	r15	;r3 As==01
    c870:	84 93 fa ff 	tst	-6(r4)		;0xfffa(r4)
    c874:	01 20       	jnz	$+4      	;abs 0xc878
    c876:	4f 43       	clr.b	r15		
    c878:	b4 53 fa ff 	add	#-1,	-6(r4)	;r3 As==11, 0xfffa(r4)
    c87c:	4f 93       	tst.b	r15		
    c87e:	f1 23       	jnz	$-28     	;abs 0xc862
    c880:	94 93 fa ff 	cmp	#1,	-6(r4)	;r3 As==01, 0xfffa(r4)
    c884:	02 34       	jge	$+6      	;abs 0xc88a
    c886:	4f 43       	clr.b	r15		
    c888:	32 3c       	jmp	$+102    	;abs 0xc8ee
    c88a:	b4 40 00 7d 	mov	#32000,	-6(r4)	;#0x7d00, 0xfffa(r4)
    c88e:	fa ff 
    c890:	03 43       	nop			
    c892:	5f 42 28 00 	mov.b	&0x0028,r15	
    c896:	4f 4f       	mov.b	r15,	r15	
    c898:	3f f2       	and	#8,	r15	;r2 As==11
    c89a:	0f 93       	tst	r15		
    c89c:	09 20       	jnz	$+20     	;abs 0xc8b0
    c89e:	5f 43       	mov.b	#1,	r15	;r3 As==01
    c8a0:	84 93 fa ff 	tst	-6(r4)		;0xfffa(r4)
    c8a4:	01 20       	jnz	$+4      	;abs 0xc8a8
    c8a6:	4f 43       	clr.b	r15		
    c8a8:	b4 53 fa ff 	add	#-1,	-6(r4)	;r3 As==11, 0xfffa(r4)
    c8ac:	4f 93       	tst.b	r15		
    c8ae:	f1 23       	jnz	$-28     	;abs 0xc892
    c8b0:	94 93 fa ff 	cmp	#1,	-6(r4)	;r3 As==01, 0xfffa(r4)
    c8b4:	02 34       	jge	$+6      	;abs 0xc8ba
    c8b6:	4f 43       	clr.b	r15		
    c8b8:	1a 3c       	jmp	$+54     	;abs 0xc8ee
    c8ba:	b4 40 00 7d 	mov	#32000,	-6(r4)	;#0x7d00, 0xfffa(r4)
    c8be:	fa ff 
    c8c0:	03 43       	nop			
    c8c2:	5f 42 28 00 	mov.b	&0x0028,r15	
    c8c6:	4f 4f       	mov.b	r15,	r15	
    c8c8:	3f f2       	and	#8,	r15	;r2 As==11
    c8ca:	0f 93       	tst	r15		
    c8cc:	09 24       	jz	$+20     	;abs 0xc8e0
    c8ce:	5f 43       	mov.b	#1,	r15	;r3 As==01
    c8d0:	84 93 fa ff 	tst	-6(r4)		;0xfffa(r4)
    c8d4:	01 20       	jnz	$+4      	;abs 0xc8d8
    c8d6:	4f 43       	clr.b	r15		
    c8d8:	b4 53 fa ff 	add	#-1,	-6(r4)	;r3 As==11, 0xfffa(r4)
    c8dc:	4f 93       	tst.b	r15		
    c8de:	f1 23       	jnz	$-28     	;abs 0xc8c2
    c8e0:	94 93 fa ff 	cmp	#1,	-6(r4)	;r3 As==01, 0xfffa(r4)
    c8e4:	02 34       	jge	$+6      	;abs 0xc8ea
    c8e6:	4f 43       	clr.b	r15		
    c8e8:	02 3c       	jmp	$+6      	;abs 0xc8ee
    c8ea:	5f 44 fc ff 	mov.b	-4(r4),	r15	;0xfffc(r4)
    c8ee:	21 52       	add	#4,	r1	;r2 As==10
    c8f0:	34 41       	pop	r4		
    c8f2:	30 41       	ret			

0000c8f4 <sb_receive>:
    c8f4:	04 12       	push	r4		
    c8f6:	04 41       	mov	r1,	r4	
    c8f8:	24 53       	incd	r4		
    c8fa:	21 83       	decd	r1		
    c8fc:	d4 42 2d 00 	mov.b	&0x002d,-4(r4)	;0xfffc(r4)
    c900:	fc ff 
    c902:	d2 43 2a 02 	mov.b	#1,	&0x022a	;r3 As==01
    c906:	c2 43 36 02 	mov.b	#0,	&0x0236	;r3 As==00
    c90a:	f2 42 2d 00 	mov.b	#8,	&0x002d	;r2 As==11
    c90e:	3f 40 0b 00 	mov	#11,	r15	;#0x000b
    c912:	3e 40 1e 2c 	mov	#11294,	r14	;#0x2c1e
    c916:	1e 83       	dec	r14		
    c918:	0e 93       	tst	r14		
    c91a:	fd 23       	jnz	$-4      	;abs 0xc916
    c91c:	1f 83       	dec	r15		
    c91e:	0f 93       	tst	r15		
    c920:	fa 23       	jnz	$-10     	;abs 0xc916
    c922:	03 43       	nop			
    c924:	d2 44 fc ff 	mov.b	-4(r4),	&0x002d	;0xfffc(r4)
    c928:	2d 00 
    c92a:	5f 42 2c 02 	mov.b	&0x022c,r15	
    c92e:	4f 4f       	mov.b	r15,	r15	
    c930:	4f 4f       	mov.b	r15,	r15	
    c932:	8f 10       	swpb	r15		
    c934:	5e 42 2d 02 	mov.b	&0x022d,r14	
    c938:	4e 4e       	mov.b	r14,	r14	
    c93a:	0f de       	bis	r14,	r15	
    c93c:	3f f0 ff 7f 	and	#32767,	r15	;#0x7fff
    c940:	82 4f 32 02 	mov	r15,	&0x0232	
    c944:	5f 42 2e 02 	mov.b	&0x022e,r15	
    c948:	4f 4f       	mov.b	r15,	r15	
    c94a:	4f 4f       	mov.b	r15,	r15	
    c94c:	8f 10       	swpb	r15		
    c94e:	5e 42 2f 02 	mov.b	&0x022f,r14	
    c952:	4e 4e       	mov.b	r14,	r14	
    c954:	0f de       	bis	r14,	r15	
    c956:	3f f0 ff 7f 	and	#32767,	r15	;#0x7fff
    c95a:	82 4f 34 02 	mov	r15,	&0x0234	
    c95e:	c2 43 00 02 	mov.b	#0,	&0x0200	;r3 As==00
    c962:	4f 43       	clr.b	r15		
    c964:	21 53       	incd	r1		
    c966:	34 41       	pop	r4		
    c968:	30 41       	ret			

0000c96a <sb_get_bit>:
    c96a:	04 12       	push	r4		
    c96c:	04 41       	mov	r1,	r4	
    c96e:	24 53       	incd	r4		
    c970:	1f 42 60 01 	mov	&0x0160,r15	
    c974:	2f d2       	bis	#4,	r15	;r2 As==10
    c976:	82 4f 60 01 	mov	r15,	&0x0160	
    c97a:	03 43       	nop			
    c97c:	5f 42 28 00 	mov.b	&0x0028,r15	
    c980:	4f 4f       	mov.b	r15,	r15	
    c982:	3f f2       	and	#8,	r15	;r2 As==11
    c984:	0f 93       	tst	r15		
    c986:	fa 23       	jnz	$-10     	;abs 0xc97c
    c988:	1f 42 70 01 	mov	&0x0170,r15	
    c98c:	3e 40 14 00 	mov	#20,	r14	;#0x0014
    c990:	b0 12 ec c9 	call	#0xc9ec	
    c994:	82 4f 38 02 	mov	r15,	&0x0238	
    c998:	1f 42 38 02 	mov	&0x0238,r15	
    c99c:	3f 90 44 00 	cmp	#68,	r15	;#0x0044
    c9a0:	07 28       	jnc	$+16     	;abs 0xc9b0
    c9a2:	1f 42 38 02 	mov	&0x0238,r15	
    c9a6:	3f 90 4c 00 	cmp	#76,	r15	;#0x004c
    c9aa:	02 2c       	jc	$+6      	;abs 0xc9b0
    c9ac:	5f 43       	mov.b	#1,	r15	;r3 As==01
    c9ae:	0d 3c       	jmp	$+28     	;abs 0xc9ca
    c9b0:	1f 42 38 02 	mov	&0x0238,r15	
    c9b4:	3f 90 16 00 	cmp	#22,	r15	;#0x0016
    c9b8:	07 28       	jnc	$+16     	;abs 0xc9c8
    c9ba:	1f 42 38 02 	mov	&0x0238,r15	
    c9be:	3f 90 1f 00 	cmp	#31,	r15	;#0x001f
    c9c2:	02 2c       	jc	$+6      	;abs 0xc9c8
    c9c4:	4f 43       	clr.b	r15		
    c9c6:	01 3c       	jmp	$+4      	;abs 0xc9ca
    c9c8:	7f 43       	mov.b	#-1,	r15	;r3 As==11
    c9ca:	34 41       	pop	r4		
    c9cc:	30 41       	ret			

0000c9ce <sb_read_data>:
    c9ce:	04 12       	push	r4		
    c9d0:	04 41       	mov	r1,	r4	
    c9d2:	24 53       	incd	r4		
    c9d4:	b0 12 f6 c7 	call	#0xc7f6	
    c9d8:	b0 12 4e c8 	call	#0xc84e	
    c9dc:	4f 93       	tst.b	r15		
    c9de:	03 24       	jz	$+8      	;abs 0xc9e6
    c9e0:	b0 12 f4 c8 	call	#0xc8f4	
    c9e4:	01 3c       	jmp	$+4      	;abs 0xc9e8
    c9e6:	7f 43       	mov.b	#-1,	r15	;r3 As==11
    c9e8:	34 41       	pop	r4		
    c9ea:	30 41       	ret			

0000c9ec <__udivhi3>:
    c9ec:	7c 40 10 00 	mov.b	#16,	r12	;#0x0010
    c9f0:	0d 4e       	mov	r14,	r13	
    c9f2:	0e 43       	clr	r14		
    c9f4:	0f 5f       	rla	r15		
    c9f6:	0e 6e       	rlc	r14		
    c9f8:	0e 9d       	cmp	r13,	r14	
    c9fa:	02 28       	jnc	$+6      	;abs 0xca00
    c9fc:	0e 8d       	sub	r13,	r14	
    c9fe:	1f d3       	bis	#1,	r15	;r3 As==01
    ca00:	1c 83       	dec	r12		
    ca02:	f8 23       	jnz	$-14     	;abs 0xc9f4
    ca04:	30 41       	ret			

0000ca06 <__umodhi3>:
    ca06:	b0 12 ec c9 	call	#0xc9ec	
    ca0a:	0f 4e       	mov	r14,	r15	
    ca0c:	30 41       	ret			

0000ca0e <__divhi3>:
    ca0e:	0d 43       	clr	r13		
    ca10:	0f 93       	tst	r15		
    ca12:	04 34       	jge	$+10     	;abs 0xca1c
    ca14:	3d 40 03 00 	mov	#3,	r13	;#0x0003
    ca18:	3f e3       	inv	r15		
    ca1a:	1f 53       	inc	r15		
    ca1c:	0e 93       	tst	r14		
    ca1e:	03 34       	jge	$+8      	;abs 0xca26
    ca20:	5d e3       	xor.b	#1,	r13	;r3 As==01
    ca22:	3e e3       	inv	r14		
    ca24:	1e 53       	inc	r14		
    ca26:	0d 12       	push	r13		
    ca28:	b0 12 ec c9 	call	#0xc9ec	
    ca2c:	3d 41       	pop	r13		
    ca2e:	6d b3       	bit.b	#2,	r13	;r3 As==10
    ca30:	02 24       	jz	$+6      	;abs 0xca36
    ca32:	3e e3       	inv	r14		
    ca34:	1e 53       	inc	r14		
    ca36:	5d b3       	bit.b	#1,	r13	;r3 As==01
    ca38:	02 24       	jz	$+6      	;abs 0xca3e
    ca3a:	3f e3       	inv	r15		
    ca3c:	1f 53       	inc	r15		
    ca3e:	30 41       	ret			

0000ca40 <__modhi3>:
    ca40:	b0 12 0e ca 	call	#0xca0e	
    ca44:	0f 4e       	mov	r14,	r15	
    ca46:	30 41       	ret			

0000ca48 <append>:
    ca48:	1e 42 04 02 	mov	&0x0204,r14	
    ca4c:	1e 93       	cmp	#1,	r14	;r3 As==01
    ca4e:	0b 38       	jl	$+24     	;abs 0xca66
    ca50:	1d 42 02 02 	mov	&0x0202,r13	
    ca54:	cd 4f 00 00 	mov.b	r15,	0(r13)	;0x0000(r13)
    ca58:	1d 53       	inc	r13		
    ca5a:	82 4d 02 02 	mov	r13,	&0x0202	
    ca5e:	3e 53       	add	#-1,	r14	;r3 As==11
    ca60:	82 4e 04 02 	mov	r14,	&0x0204	
    ca64:	30 41       	ret			
    ca66:	3f 43       	mov	#-1,	r15	;r3 As==11
    ca68:	30 41       	ret			

0000ca6a <call_vuprintf>:
    ca6a:	0b 12       	push	r11		
    ca6c:	0a 12       	push	r10		
    ca6e:	21 83       	decd	r1		
    ca70:	81 4e 00 00 	mov	r14,	0(r1)	;0x0000(r1)
    ca74:	1a 42 02 02 	mov	&0x0202,r10	
    ca78:	1b 42 04 02 	mov	&0x0204,r11	
    ca7c:	0d 4e       	mov	r14,	r13	
    ca7e:	0e 4f       	mov	r15,	r14	
    ca80:	3f 40 48 ca 	mov	#-13752,r15	;#0xca48
    ca84:	b0 12 9c cc 	call	#0xcc9c	
    ca88:	0f 9b       	cmp	r11,	r15	
    ca8a:	05 38       	jl	$+12     	;abs 0xca96
    ca8c:	0e 4a       	mov	r10,	r14	
    ca8e:	0e 5b       	add	r11,	r14	
    ca90:	ce 43 ff ff 	mov.b	#0,	-1(r14)	;r3 As==00, 0xffff(r14)
    ca94:	04 3c       	jmp	$+10     	;abs 0xca9e
    ca96:	1e 42 02 02 	mov	&0x0202,r14	
    ca9a:	ce 43 00 00 	mov.b	#0,	0(r14)	;r3 As==00, 0x0000(r14)
    ca9e:	21 53       	incd	r1		
    caa0:	3a 41       	pop	r10		
    caa2:	3b 41       	pop	r11		
    caa4:	30 41       	ret			

0000caa6 <sprintf>:
    caa6:	92 41 02 00 	mov	2(r1),	&0x0202	;0x0002(r1)
    caaa:	02 02 
    caac:	b2 40 ff 7f 	mov	#32767,	&0x0204	;#0x7fff
    cab0:	04 02 
    cab2:	0e 41       	mov	r1,	r14	
    cab4:	3e 50 06 00 	add	#6,	r14	;#0x0006
    cab8:	1f 41 04 00 	mov	4(r1),	r15	;0x0004(r1)
    cabc:	b0 12 6a ca 	call	#0xca6a	
    cac0:	30 41       	ret			

0000cac2 <snprintf>:
    cac2:	92 41 02 00 	mov	2(r1),	&0x0202	;0x0002(r1)
    cac6:	02 02 
    cac8:	92 41 04 00 	mov	4(r1),	&0x0204	;0x0004(r1)
    cacc:	04 02 
    cace:	0e 41       	mov	r1,	r14	
    cad0:	3e 52       	add	#8,	r14	;r2 As==11
    cad2:	1f 41 06 00 	mov	6(r1),	r15	;0x0006(r1)
    cad6:	b0 12 6a ca 	call	#0xca6a	
    cada:	30 41       	ret			

0000cadc <vsprintf>:
    cadc:	0c 4e       	mov	r14,	r12	
    cade:	82 4f 02 02 	mov	r15,	&0x0202	
    cae2:	b2 40 ff 7f 	mov	#32767,	&0x0204	;#0x7fff
    cae6:	04 02 
    cae8:	0e 4d       	mov	r13,	r14	
    caea:	0f 4c       	mov	r12,	r15	
    caec:	b0 12 6a ca 	call	#0xca6a	
    caf0:	30 41       	ret			

0000caf2 <vsnprintf>:
    caf2:	82 4f 02 02 	mov	r15,	&0x0202	
    caf6:	82 4e 04 02 	mov	r14,	&0x0204	
    cafa:	0e 4c       	mov	r12,	r14	
    cafc:	0f 4d       	mov	r13,	r15	
    cafe:	b0 12 6a ca 	call	#0xca6a	
    cb02:	30 41       	ret			

0000cb04 <print_field>:
    cb04:	0b 12       	push	r11		
    cb06:	0a 12       	push	r10		
    cb08:	09 12       	push	r9		
    cb0a:	08 12       	push	r8		
    cb0c:	07 12       	push	r7		
    cb0e:	06 12       	push	r6		
    cb10:	05 12       	push	r5		
    cb12:	04 12       	push	r4		
    cb14:	31 82       	sub	#8,	r1	;r2 As==11
    cb16:	08 4f       	mov	r15,	r8	
    cb18:	81 4e 04 00 	mov	r14,	4(r1)	;0x0004(r1)
    cb1c:	09 4d       	mov	r13,	r9	
    cb1e:	1f 41 1a 00 	mov	26(r1),	r15	;0x001a(r1)
    cb22:	1d 41 1c 00 	mov	28(r1),	r13	;0x001c(r1)
    cb26:	4c 4d       	mov.b	r13,	r12	
    cb28:	04 4d       	mov	r13,	r4	
    cb2a:	84 10       	swpb	r4		
    cb2c:	45 44       	mov.b	r4,	r5	
    cb2e:	4e 4f       	mov.b	r15,	r14	
    cb30:	7e b0 40 00 	bit.b	#64,	r14	;#0x0040
    cb34:	11 24       	jz	$+36     	;abs 0xcb58
    cb36:	f1 40 30 00 	mov.b	#48,	0(r1)	;#0x0030, 0x0000(r1)
    cb3a:	00 00 
    cb3c:	0e 4f       	mov	r15,	r14	
    cb3e:	8e 10       	swpb	r14		
    cb40:	5e f3       	and.b	#1,	r14	;r3 As==01
    cb42:	03 24       	jz	$+8      	;abs 0xcb4a
    cb44:	7e 40 58 00 	mov.b	#88,	r14	;#0x0058
    cb48:	02 3c       	jmp	$+6      	;abs 0xcb4e
    cb4a:	7e 40 78 00 	mov.b	#120,	r14	;#0x0078
    cb4e:	c1 4e 01 00 	mov.b	r14,	1(r1)	;0x0001(r1)
    cb52:	0c 41       	mov	r1,	r12	
    cb54:	2c 53       	incd	r12		
    cb56:	0f 3c       	jmp	$+32     	;abs 0xcb76
    cb58:	7e f0 20 00 	and.b	#32,	r14	;#0x0020
    cb5c:	04 24       	jz	$+10     	;abs 0xcb66
    cb5e:	f1 40 30 00 	mov.b	#48,	0(r1)	;#0x0030, 0x0000(r1)
    cb62:	00 00 
    cb64:	04 3c       	jmp	$+10     	;abs 0xcb6e
    cb66:	4c 93       	tst.b	r12		
    cb68:	05 24       	jz	$+12     	;abs 0xcb74
    cb6a:	c1 4d 00 00 	mov.b	r13,	0(r1)	;0x0000(r1)
    cb6e:	0c 41       	mov	r1,	r12	
    cb70:	1c 53       	inc	r12		
    cb72:	01 3c       	jmp	$+4      	;abs 0xcb76
    cb74:	0c 41       	mov	r1,	r12	
    cb76:	0a 4c       	mov	r12,	r10	
    cb78:	8c 10       	swpb	r12		
    cb7a:	8c 11       	sxt	r12		
    cb7c:	8c 10       	swpb	r12		
    cb7e:	8c 11       	sxt	r12		
    cb80:	0b 4c       	mov	r12,	r11	
    cb82:	06 41       	mov	r1,	r6	
    cb84:	0c 41       	mov	r1,	r12	
    cb86:	8c 10       	swpb	r12		
    cb88:	8c 11       	sxt	r12		
    cb8a:	8c 10       	swpb	r12		
    cb8c:	8c 11       	sxt	r12		
    cb8e:	07 4c       	mov	r12,	r7	
    cb90:	0a 86       	sub	r6,	r10	
    cb92:	0b 77       	subc	r7,	r11	
    cb94:	0e 4f       	mov	r15,	r14	
    cb96:	8e 10       	swpb	r14		
    cb98:	c1 4e 02 00 	mov.b	r14,	2(r1)	;0x0002(r1)
    cb9c:	6e f2       	and.b	#4,	r14	;r2 As==10
    cb9e:	02 24       	jz	$+6      	;abs 0xcba4
    cba0:	07 45       	mov	r5,	r7	
    cba2:	01 3c       	jmp	$+4      	;abs 0xcba6
    cba4:	37 43       	mov	#-1,	r7	;r3 As==11
    cba6:	4f 4f       	mov.b	r15,	r15	
    cba8:	7f b0 10 00 	bit.b	#16,	r15	;#0x0010
    cbac:	3c 20       	jnz	$+122    	;abs 0xcc26
    cbae:	1d 41 04 00 	mov	4(r1),	r13	;0x0004(r1)
    cbb2:	3d 53       	add	#-1,	r13	;r3 As==11
    cbb4:	1d 53       	inc	r13		
    cbb6:	cd 93 00 00 	tst.b	0(r13)		;0x0000(r13)
    cbba:	fc 23       	jnz	$-6      	;abs 0xcbb4
    cbbc:	1d 81 04 00 	sub	4(r1),	r13	;0x0004(r1)
    cbc0:	09 9a       	cmp	r10,	r9	
    cbc2:	02 28       	jnc	$+6      	;abs 0xcbc8
    cbc4:	09 8a       	sub	r10,	r9	
    cbc6:	01 3c       	jmp	$+4      	;abs 0xcbca
    cbc8:	09 43       	clr	r9		
    cbca:	e1 b3 02 00 	bit.b	#2,	2(r1)	;r3 As==10, 0x0002(r1)
    cbce:	05 24       	jz	$+12     	;abs 0xcbda
    cbd0:	09 95       	cmp	r5,	r9	
    cbd2:	02 28       	jnc	$+6      	;abs 0xcbd8
    cbd4:	09 85       	sub	r5,	r9	
    cbd6:	01 3c       	jmp	$+4      	;abs 0xcbda
    cbd8:	09 43       	clr	r9		
    cbda:	05 4d       	mov	r13,	r5	
    cbdc:	07 9d       	cmp	r13,	r7	
    cbde:	01 2c       	jc	$+4      	;abs 0xcbe2
    cbe0:	05 47       	mov	r7,	r5	
    cbe2:	4f 93       	tst.b	r15		
    cbe4:	0d 38       	jl	$+28     	;abs 0xcc00
    cbe6:	f1 40 20 00 	mov.b	#32,	6(r1)	;#0x0020, 0x0006(r1)
    cbea:	06 00 
    cbec:	06 43       	clr	r6		
    cbee:	0b 43       	clr	r11		
    cbf0:	0e 3c       	jmp	$+30     	;abs 0xcc0e
    cbf2:	0f 41       	mov	r1,	r15	
    cbf4:	0f 56       	add	r6,	r15	
    cbf6:	6f 4f       	mov.b	@r15,	r15	
    cbf8:	8f 11       	sxt	r15		
    cbfa:	16 53       	inc	r6		
    cbfc:	88 12       	call	r8		
    cbfe:	01 3c       	jmp	$+4      	;abs 0xcc02
    cc00:	06 43       	clr	r6		
    cc02:	06 9a       	cmp	r10,	r6	
    cc04:	f6 3b       	jl	$-18     	;abs 0xcbf2
    cc06:	0b 4a       	mov	r10,	r11	
    cc08:	f1 40 30 00 	mov.b	#48,	6(r1)	;#0x0030, 0x0006(r1)
    cc0c:	06 00 
    cc0e:	05 8b       	sub	r11,	r5	
    cc10:	05 3c       	jmp	$+12     	;abs 0xcc1c
    cc12:	5f 41 06 00 	mov.b	6(r1),	r15	;0x0006(r1)
    cc16:	8f 11       	sxt	r15		
    cc18:	88 12       	call	r8		
    cc1a:	1b 53       	inc	r11		
    cc1c:	0f 45       	mov	r5,	r15	
    cc1e:	0f 5b       	add	r11,	r15	
    cc20:	0f 99       	cmp	r9,	r15	
    cc22:	f7 2b       	jnc	$-16     	;abs 0xcc12
    cc24:	0a 3c       	jmp	$+22     	;abs 0xcc3a
    cc26:	06 43       	clr	r6		
    cc28:	0b 43       	clr	r11		
    cc2a:	07 3c       	jmp	$+16     	;abs 0xcc3a
    cc2c:	1b 53       	inc	r11		
    cc2e:	0f 41       	mov	r1,	r15	
    cc30:	0f 56       	add	r6,	r15	
    cc32:	6f 4f       	mov.b	@r15,	r15	
    cc34:	8f 11       	sxt	r15		
    cc36:	16 53       	inc	r6		
    cc38:	88 12       	call	r8		
    cc3a:	06 9a       	cmp	r10,	r6	
    cc3c:	f7 3b       	jl	$-16     	;abs 0xcc2c
    cc3e:	e1 b3 02 00 	bit.b	#2,	2(r1)	;r3 As==10, 0x0002(r1)
    cc42:	02 24       	jz	$+6      	;abs 0xcc48
    cc44:	4a 44       	mov.b	r4,	r10	
    cc46:	08 3c       	jmp	$+18     	;abs 0xcc58
    cc48:	1a 41 04 00 	mov	4(r1),	r10	;0x0004(r1)
    cc4c:	0a 8b       	sub	r11,	r10	
    cc4e:	0d 3c       	jmp	$+28     	;abs 0xcc6a
    cc50:	3f 40 30 00 	mov	#48,	r15	;#0x0030
    cc54:	88 12       	call	r8		
    cc56:	7a 53       	add.b	#-1,	r10	;r3 As==11
    cc58:	4a 93       	tst.b	r10		
    cc5a:	fa 23       	jnz	$-10     	;abs 0xcc50
    cc5c:	44 44       	mov.b	r4,	r4	
    cc5e:	0b 54       	add	r4,	r11	
    cc60:	f3 3f       	jmp	$-24     	;abs 0xcc48
    cc62:	37 53       	add	#-1,	r7	;r3 As==11
    cc64:	8f 11       	sxt	r15		
    cc66:	88 12       	call	r8		
    cc68:	1b 53       	inc	r11		
    cc6a:	0f 4a       	mov	r10,	r15	
    cc6c:	0f 5b       	add	r11,	r15	
    cc6e:	6f 4f       	mov.b	@r15,	r15	
    cc70:	4f 93       	tst.b	r15		
    cc72:	07 24       	jz	$+16     	;abs 0xcc82
    cc74:	07 93       	tst	r7		
    cc76:	f5 23       	jnz	$-20     	;abs 0xcc62
    cc78:	04 3c       	jmp	$+10     	;abs 0xcc82
    cc7a:	3f 40 20 00 	mov	#32,	r15	;#0x0020
    cc7e:	88 12       	call	r8		
    cc80:	1b 53       	inc	r11		
    cc82:	0b 99       	cmp	r9,	r11	
    cc84:	fa 2b       	jnc	$-10     	;abs 0xcc7a
    cc86:	0f 4b       	mov	r11,	r15	
    cc88:	31 52       	add	#8,	r1	;r2 As==11
    cc8a:	34 41       	pop	r4		
    cc8c:	35 41       	pop	r5		
    cc8e:	36 41       	pop	r6		
    cc90:	37 41       	pop	r7		
    cc92:	38 41       	pop	r8		
    cc94:	39 41       	pop	r9		
    cc96:	3a 41       	pop	r10		
    cc98:	3b 41       	pop	r11		
    cc9a:	30 41       	ret			

0000cc9c <vuprintf>:
    cc9c:	0b 12       	push	r11		
    cc9e:	0a 12       	push	r10		
    cca0:	09 12       	push	r9		
    cca2:	08 12       	push	r8		
    cca4:	07 12       	push	r7		
    cca6:	06 12       	push	r6		
    cca8:	05 12       	push	r5		
    ccaa:	04 12       	push	r4		
    ccac:	31 50 b6 ff 	add	#-74,	r1	;#0xffb6
    ccb0:	81 4f 3a 00 	mov	r15,	58(r1)	;0x003a(r1)
    ccb4:	06 4e       	mov	r14,	r6	
    ccb6:	05 4d       	mov	r13,	r5	
    ccb8:	81 4e 3e 00 	mov	r14,	62(r1)	;0x003e(r1)
    ccbc:	c1 43 2f 00 	mov.b	#0,	47(r1)	;r3 As==00, 0x002f(r1)
    ccc0:	c1 43 2b 00 	mov.b	#0,	43(r1)	;r3 As==00, 0x002b(r1)
    ccc4:	c1 43 2e 00 	mov.b	#0,	46(r1)	;r3 As==00, 0x002e(r1)
    ccc8:	c1 43 2a 00 	mov.b	#0,	42(r1)	;r3 As==00, 0x002a(r1)
    cccc:	81 43 30 00 	mov	#0,	48(r1)	;r3 As==00, 0x0030(r1)
    ccd0:	81 43 26 00 	mov	#0,	38(r1)	;r3 As==00, 0x0026(r1)
    ccd4:	07 43       	clr	r7		
    ccd6:	81 43 2c 00 	mov	#0,	44(r1)	;r3 As==00, 0x002c(r1)
    ccda:	0e 41       	mov	r1,	r14	
    ccdc:	3e 50 1c 00 	add	#28,	r14	;#0x001c
    cce0:	81 4e 1c 00 	mov	r14,	28(r1)	;0x001c(r1)
    cce4:	30 40 16 d3 	br	#0xd316	
    cce8:	0f 46       	mov	r6,	r15	
    ccea:	1f 53       	inc	r15		
    ccec:	81 4f 40 00 	mov	r15,	64(r1)	;0x0040(r1)
    ccf0:	07 93       	tst	r7		
    ccf2:	1e 20       	jnz	$+62     	;abs 0xcd30
    ccf4:	7e 90 25 00 	cmp.b	#37,	r14	;#0x0025
    ccf8:	13 20       	jnz	$+40     	;abs 0xcd20
    ccfa:	81 43 00 00 	mov	#0,	0(r1)	;r3 As==00, 0x0000(r1)
    ccfe:	81 43 02 00 	mov	#0,	2(r1)	;r3 As==00, 0x0002(r1)
    cd02:	81 46 3e 00 	mov	r6,	62(r1)	;0x003e(r1)
    cd06:	c1 43 2f 00 	mov.b	#0,	47(r1)	;r3 As==00, 0x002f(r1)
    cd0a:	c1 43 2b 00 	mov.b	#0,	43(r1)	;r3 As==00, 0x002b(r1)
    cd0e:	c1 43 2e 00 	mov.b	#0,	46(r1)	;r3 As==00, 0x002e(r1)
    cd12:	c1 43 2a 00 	mov.b	#0,	42(r1)	;r3 As==00, 0x002a(r1)
    cd16:	81 43 30 00 	mov	#0,	48(r1)	;r3 As==00, 0x0030(r1)
    cd1a:	30 40 0c d3 	br	#0xd30c	
    cd1e:	05 47       	mov	r7,	r5	
    cd20:	8e 11       	sxt	r14		
    cd22:	0f 4e       	mov	r14,	r15	
    cd24:	91 12 3c 00 	call	60(r1)		;0x003c(r1)
    cd28:	91 53 2c 00 	inc	44(r1)		;0x002c(r1)
    cd2c:	30 40 f2 d2 	br	#0xd2f2	
    cd30:	7e 90 63 00 	cmp.b	#99,	r14	;#0x0063
    cd34:	c5 24       	jz	$+396    	;abs 0xcec0
    cd36:	7e 90 64 00 	cmp.b	#100,	r14	;#0x0064
    cd3a:	27 34       	jge	$+80     	;abs 0xcd8a
    cd3c:	7e 90 30 00 	cmp.b	#48,	r14	;#0x0030
    cd40:	94 24       	jz	$+298    	;abs 0xce6a
    cd42:	7e 90 31 00 	cmp.b	#49,	r14	;#0x0031
    cd46:	1a 34       	jge	$+54     	;abs 0xcd7c
    cd48:	7e 90 2a 00 	cmp.b	#42,	r14	;#0x002a
    cd4c:	77 24       	jz	$+240    	;abs 0xce3c
    cd4e:	7e 90 2b 00 	cmp.b	#43,	r14	;#0x002b
    cd52:	0a 34       	jge	$+22     	;abs 0xcd68
    cd54:	7e 90 23 00 	cmp.b	#35,	r14	;#0x0023
    cd58:	42 24       	jz	$+134    	;abs 0xcdde
    cd5a:	7e 90 25 00 	cmp.b	#37,	r14	;#0x0025
    cd5e:	e0 27       	jz	$-62     	;abs 0xcd20
    cd60:	7e 90 20 00 	cmp.b	#32,	r14	;#0x0020
    cd64:	32 20       	jnz	$+102    	;abs 0xcdca
    cd66:	56 3c       	jmp	$+174    	;abs 0xce14
    cd68:	7e 90 2d 00 	cmp.b	#45,	r14	;#0x002d
    cd6c:	49 24       	jz	$+148    	;abs 0xce00
    cd6e:	7e 90 2e 00 	cmp.b	#46,	r14	;#0x002e
    cd72:	5b 24       	jz	$+184    	;abs 0xce2a
    cd74:	7e 90 2b 00 	cmp.b	#43,	r14	;#0x002b
    cd78:	28 20       	jnz	$+82     	;abs 0xcdca
    cd7a:	47 3c       	jmp	$+144    	;abs 0xce0a
    cd7c:	7e 90 3a 00 	cmp.b	#58,	r14	;#0x003a
    cd80:	8c 38       	jl	$+282    	;abs 0xce9a
    cd82:	7e 90 58 00 	cmp.b	#88,	r14	;#0x0058
    cd86:	21 20       	jnz	$+68     	;abs 0xcdca
    cd88:	e9 3c       	jmp	$+468    	;abs 0xcf5c
    cd8a:	7e 90 6f 00 	cmp.b	#111,	r14	;#0x006f
    cd8e:	24 24       	jz	$+74     	;abs 0xcdd8
    cd90:	7e 90 70 00 	cmp.b	#112,	r14	;#0x0070
    cd94:	0a 34       	jge	$+22     	;abs 0xcdaa
    cd96:	7e 90 69 00 	cmp.b	#105,	r14	;#0x0069
    cd9a:	e3 24       	jz	$+456    	;abs 0xcf62
    cd9c:	7e 90 6c 00 	cmp.b	#108,	r14	;#0x006c
    cda0:	22 24       	jz	$+70     	;abs 0xcde6
    cda2:	7e 90 64 00 	cmp.b	#100,	r14	;#0x0064
    cda6:	11 20       	jnz	$+36     	;abs 0xcdca
    cda8:	dc 3c       	jmp	$+442    	;abs 0xcf62
    cdaa:	7e 90 73 00 	cmp.b	#115,	r14	;#0x0073
    cdae:	98 24       	jz	$+306    	;abs 0xcee0
    cdb0:	7e 90 74 00 	cmp.b	#116,	r14	;#0x0074
    cdb4:	04 34       	jge	$+10     	;abs 0xcdbe
    cdb6:	7e 90 70 00 	cmp.b	#112,	r14	;#0x0070
    cdba:	07 20       	jnz	$+16     	;abs 0xcdca
    cdbc:	b8 3c       	jmp	$+370    	;abs 0xcf2e
    cdbe:	7e 90 75 00 	cmp.b	#117,	r14	;#0x0075
    cdc2:	d1 24       	jz	$+420    	;abs 0xcf66
    cdc4:	7e 90 78 00 	cmp.b	#120,	r14	;#0x0078
    cdc8:	d2 24       	jz	$+422    	;abs 0xcf6e
    cdca:	19 41 3e 00 	mov	62(r1),	r9	;0x003e(r1)
    cdce:	18 41 2c 00 	mov	44(r1),	r8	;0x002c(r1)
    cdd2:	08 89       	sub	r9,	r8	
    cdd4:	30 40 e0 d2 	br	#0xd2e0	
    cdd8:	b1 42 28 00 	mov	#8,	40(r1)	;r2 As==11, 0x0028(r1)
    cddc:	cb 3c       	jmp	$+408    	;abs 0xcf74
    cdde:	f1 d2 00 00 	bis.b	#8,	0(r1)	;r2 As==11, 0x0000(r1)
    cde2:	30 40 10 d3 	br	#0xd310	
    cde6:	69 41       	mov.b	@r1,	r9	
    cde8:	59 f3       	and.b	#1,	r9	;r3 As==01
    cdea:	6e 41       	mov.b	@r1,	r14	
    cdec:	04 24       	jz	$+10     	;abs 0xcdf6
    cdee:	7e f0 fe ff 	and.b	#-2,	r14	;#0xfffe
    cdf2:	6e d3       	bis.b	#2,	r14	;r3 As==10
    cdf4:	01 3c       	jmp	$+4      	;abs 0xcdf8
    cdf6:	5e d3       	bis.b	#1,	r14	;r3 As==01
    cdf8:	c1 4e 00 00 	mov.b	r14,	0(r1)	;0x0000(r1)
    cdfc:	30 40 10 d3 	br	#0xd310	
    ce00:	f1 d0 10 00 	bis.b	#16,	0(r1)	;#0x0010, 0x0000(r1)
    ce04:	00 00 
    ce06:	30 40 10 d3 	br	#0xd310	
    ce0a:	f1 40 2b 00 	mov.b	#43,	2(r1)	;#0x002b, 0x0002(r1)
    ce0e:	02 00 
    ce10:	30 40 10 d3 	br	#0xd310	
    ce14:	f1 90 2b 00 	cmp.b	#43,	2(r1)	;#0x002b, 0x0002(r1)
    ce18:	02 00 
    ce1a:	02 20       	jnz	$+6      	;abs 0xce20
    ce1c:	30 40 10 d3 	br	#0xd310	
    ce20:	f1 40 20 00 	mov.b	#32,	2(r1)	;#0x0020, 0x0002(r1)
    ce24:	02 00 
    ce26:	30 40 10 d3 	br	#0xd310	
    ce2a:	c1 93 2a 00 	tst.b	42(r1)		;0x002a(r1)
    ce2e:	02 24       	jz	$+6      	;abs 0xce34
    ce30:	30 40 f6 d2 	br	#0xd2f6	
    ce34:	d1 43 2e 00 	mov.b	#1,	46(r1)	;r3 As==01, 0x002e(r1)
    ce38:	30 40 10 d3 	br	#0xd310	
    ce3c:	0e 45       	mov	r5,	r14	
    ce3e:	2e 53       	incd	r14		
    ce40:	2a 45       	mov	@r5,	r10	
    ce42:	0a 93       	tst	r10		
    ce44:	03 38       	jl	$+8      	;abs 0xce4c
    ce46:	81 4a 26 00 	mov	r10,	38(r1)	;0x0026(r1)
    ce4a:	0d 3c       	jmp	$+28     	;abs 0xce66
    ce4c:	c1 93 2e 00 	tst.b	46(r1)		;0x002e(r1)
    ce50:	02 24       	jz	$+6      	;abs 0xce56
    ce52:	30 40 06 d3 	br	#0xd306	
    ce56:	f1 d0 10 00 	bis.b	#16,	0(r1)	;#0x0010, 0x0000(r1)
    ce5a:	00 00 
    ce5c:	3a e3       	inv	r10		
    ce5e:	81 4a 26 00 	mov	r10,	38(r1)	;0x0026(r1)
    ce62:	91 53 26 00 	inc	38(r1)		;0x0026(r1)
    ce66:	05 4e       	mov	r14,	r5	
    ce68:	27 3c       	jmp	$+80     	;abs 0xceb8
    ce6a:	81 93 26 00 	tst	38(r1)		;0x0026(r1)
    ce6e:	15 20       	jnz	$+44     	;abs 0xce9a
    ce70:	c1 93 2e 00 	tst.b	46(r1)		;0x002e(r1)
    ce74:	12 20       	jnz	$+38     	;abs 0xce9a
    ce76:	69 41       	mov.b	@r1,	r9	
    ce78:	79 f0 10 00 	and.b	#16,	r9	;#0x0010
    ce7c:	5e 43       	mov.b	#1,	r14	;r3 As==01
    ce7e:	01 24       	jz	$+4      	;abs 0xce82
    ce80:	4e 43       	clr.b	r14		
    ce82:	4e 4e       	mov.b	r14,	r14	
    ce84:	0e 11       	rra	r14		
    ce86:	0e 43       	clr	r14		
    ce88:	4e 10       	rrc.b	r14		
    ce8a:	6a 41       	mov.b	@r1,	r10	
    ce8c:	7a f0 7f 00 	and.b	#127,	r10	;#0x007f
    ce90:	4a de       	bis.b	r14,	r10	
    ce92:	c1 4a 00 00 	mov.b	r10,	0(r1)	;0x0000(r1)
    ce96:	30 40 10 d3 	br	#0xd310	
    ce9a:	1a 41 26 00 	mov	38(r1),	r10	;0x0026(r1)
    ce9e:	0a 5a       	rla	r10		
    cea0:	0c 4a       	mov	r10,	r12	
    cea2:	0c 5c       	rla	r12		
    cea4:	0c 5c       	rla	r12		
    cea6:	0a 5c       	add	r12,	r10	
    cea8:	81 4a 26 00 	mov	r10,	38(r1)	;0x0026(r1)
    ceac:	b1 50 d0 ff 	add	#-48,	38(r1)	;#0xffd0, 0x0026(r1)
    ceb0:	26 00 
    ceb2:	8e 11       	sxt	r14		
    ceb4:	81 5e 26 00 	add	r14,	38(r1)	;0x0026(r1)
    ceb8:	d1 43 2a 00 	mov.b	#1,	42(r1)	;r3 As==01, 0x002a(r1)
    cebc:	30 40 10 d3 	br	#0xd310	
    cec0:	07 45       	mov	r5,	r7	
    cec2:	27 53       	incd	r7		
    cec4:	6e 45       	mov.b	@r5,	r14	
    cec6:	c1 93 2e 00 	tst.b	46(r1)		;0x002e(r1)
    ceca:	03 20       	jnz	$+8      	;abs 0xced2
    cecc:	c1 93 2a 00 	tst.b	42(r1)		;0x002a(r1)
    ced0:	26 27       	jz	$-434    	;abs 0xcd1e
    ced2:	c1 4e 04 00 	mov.b	r14,	4(r1)	;0x0004(r1)
    ced6:	c1 43 05 00 	mov.b	#0,	5(r1)	;r3 As==00, 0x0005(r1)
    ceda:	0e 41       	mov	r1,	r14	
    cedc:	2e 52       	add	#4,	r14	;r2 As==10
    cede:	03 3c       	jmp	$+8      	;abs 0xcee6
    cee0:	07 45       	mov	r5,	r7	
    cee2:	27 53       	incd	r7		
    cee4:	2e 45       	mov	@r5,	r14	
    cee6:	c1 93 2e 00 	tst.b	46(r1)		;0x002e(r1)
    ceea:	07 24       	jz	$+16     	;abs 0xcefa
    ceec:	e1 d2 01 00 	bis.b	#4,	1(r1)	;r2 As==10, 0x0001(r1)
    cef0:	1f 41 26 00 	mov	38(r1),	r15	;0x0026(r1)
    cef4:	c1 4f 03 00 	mov.b	r15,	3(r1)	;0x0003(r1)
    cef8:	06 3c       	jmp	$+14     	;abs 0xcf06
    cefa:	c1 93 2a 00 	tst.b	42(r1)		;0x002a(r1)
    cefe:	03 24       	jz	$+8      	;abs 0xcf06
    cf00:	91 41 26 00 	mov	38(r1),	48(r1)	;0x0026(r1), 0x0030(r1)
    cf04:	30 00 
    cf06:	0e 93       	tst	r14		
    cf08:	02 20       	jnz	$+6      	;abs 0xcf0e
    cf0a:	3e 40 a6 d4 	mov	#-11098,r14	;#0xd4a6
    cf0e:	11 12 04 00 	push	4(r1)		;0x0004(r1)
    cf12:	11 12 04 00 	push	4(r1)		;0x0004(r1)
    cf16:	1d 41 34 00 	mov	52(r1),	r13	;0x0034(r1)
    cf1a:	1f 41 3e 00 	mov	62(r1),	r15	;0x003e(r1)
    cf1e:	b0 12 04 cb 	call	#0xcb04	
    cf22:	21 52       	add	#4,	r1	;r2 As==10
    cf24:	81 5f 2c 00 	add	r15,	44(r1)	;0x002c(r1)
    cf28:	05 47       	mov	r7,	r5	
    cf2a:	30 40 f2 d2 	br	#0xd2f2	
    cf2e:	07 45       	mov	r5,	r7	
    cf30:	27 53       	incd	r7		
    cf32:	29 45       	mov	@r5,	r9	
    cf34:	81 49 1e 00 	mov	r9,	30(r1)	;0x001e(r1)
    cf38:	5e 43       	mov.b	#1,	r14	;r3 As==01
    cf3a:	09 93       	tst	r9		
    cf3c:	01 20       	jnz	$+4      	;abs 0xcf40
    cf3e:	4e 43       	clr.b	r14		
    cf40:	4e 5e       	rla.b	r14		
    cf42:	4e 5e       	rla.b	r14		
    cf44:	4e 5e       	rla.b	r14		
    cf46:	6a 41       	mov.b	@r1,	r10	
    cf48:	7a f0 f7 ff 	and.b	#-9,	r10	;#0xfff7
    cf4c:	4a de       	bis.b	r14,	r10	
    cf4e:	c1 4a 00 00 	mov.b	r10,	0(r1)	;0x0000(r1)
    cf52:	05 47       	mov	r7,	r5	
    cf54:	b1 40 10 00 	mov	#16,	40(r1)	;#0x0010, 0x0028(r1)
    cf58:	28 00 
    cf5a:	53 3c       	jmp	$+168    	;abs 0xd002
    cf5c:	d1 d3 01 00 	bis.b	#1,	1(r1)	;r3 As==01, 0x0001(r1)
    cf60:	06 3c       	jmp	$+14     	;abs 0xcf6e
    cf62:	e1 d2 00 00 	bis.b	#4,	0(r1)	;r2 As==10, 0x0000(r1)
    cf66:	b1 40 0a 00 	mov	#10,	40(r1)	;#0x000a, 0x0028(r1)
    cf6a:	28 00 
    cf6c:	03 3c       	jmp	$+8      	;abs 0xcf74
    cf6e:	b1 40 10 00 	mov	#16,	40(r1)	;#0x0010, 0x0028(r1)
    cf72:	28 00 
    cf74:	6b 41       	mov.b	@r1,	r11	
    cf76:	6b b3       	bit.b	#2,	r11	;r3 As==10
    cf78:	24 24       	jz	$+74     	;abs 0xcfc2
    cf7a:	0c 45       	mov	r5,	r12	
    cf7c:	3c 52       	add	#8,	r12	;r2 As==11
    cf7e:	28 45       	mov	@r5,	r8	
    cf80:	17 45 02 00 	mov	2(r5),	r7	;0x0002(r5)
    cf84:	16 45 04 00 	mov	4(r5),	r6	;0x0004(r5)
    cf88:	1b 45 06 00 	mov	6(r5),	r11	;0x0006(r5)
    cf8c:	81 48 1e 00 	mov	r8,	30(r1)	;0x001e(r1)
    cf90:	81 47 20 00 	mov	r7,	32(r1)	;0x0020(r1)
    cf94:	81 46 22 00 	mov	r6,	34(r1)	;0x0022(r1)
    cf98:	81 4b 24 00 	mov	r11,	36(r1)	;0x0024(r1)
    cf9c:	d1 43 2b 00 	mov.b	#1,	43(r1)	;r3 As==01, 0x002b(r1)
    cfa0:	08 93       	tst	r8		
    cfa2:	06 20       	jnz	$+14     	;abs 0xcfb0
    cfa4:	07 93       	tst	r7		
    cfa6:	04 20       	jnz	$+10     	;abs 0xcfb0
    cfa8:	06 93       	tst	r6		
    cfaa:	02 20       	jnz	$+6      	;abs 0xcfb0
    cfac:	0b 93       	tst	r11		
    cfae:	02 24       	jz	$+6      	;abs 0xcfb4
    cfb0:	c1 43 2b 00 	mov.b	#0,	43(r1)	;r3 As==00, 0x002b(r1)
    cfb4:	0b 5b       	rla	r11		
    cfb6:	0b 43       	clr	r11		
    cfb8:	0b 6b       	rlc	r11		
    cfba:	c1 4b 2f 00 	mov.b	r11,	47(r1)	;0x002f(r1)
    cfbe:	05 4c       	mov	r12,	r5	
    cfc0:	20 3c       	jmp	$+66     	;abs 0xd002
    cfc2:	5b f3       	and.b	#1,	r11	;r3 As==01
    cfc4:	07 45       	mov	r5,	r7	
    cfc6:	0d 24       	jz	$+28     	;abs 0xcfe2
    cfc8:	27 52       	add	#4,	r7	;r2 As==10
    cfca:	28 45       	mov	@r5,	r8	
    cfcc:	1b 45 02 00 	mov	2(r5),	r11	;0x0002(r5)
    cfd0:	81 48 1e 00 	mov	r8,	30(r1)	;0x001e(r1)
    cfd4:	81 4b 20 00 	mov	r11,	32(r1)	;0x0020(r1)
    cfd8:	d1 43 2b 00 	mov.b	#1,	43(r1)	;r3 As==01, 0x002b(r1)
    cfdc:	08 93       	tst	r8		
    cfde:	09 20       	jnz	$+20     	;abs 0xcff2
    cfe0:	06 3c       	jmp	$+14     	;abs 0xcfee
    cfe2:	27 53       	incd	r7		
    cfe4:	2b 45       	mov	@r5,	r11	
    cfe6:	81 4b 1e 00 	mov	r11,	30(r1)	;0x001e(r1)
    cfea:	d1 43 2b 00 	mov.b	#1,	43(r1)	;r3 As==01, 0x002b(r1)
    cfee:	0b 93       	tst	r11		
    cff0:	02 24       	jz	$+6      	;abs 0xcff6
    cff2:	c1 43 2b 00 	mov.b	#0,	43(r1)	;r3 As==00, 0x002b(r1)
    cff6:	0b 5b       	rla	r11		
    cff8:	0b 43       	clr	r11		
    cffa:	0b 6b       	rlc	r11		
    cffc:	c1 4b 2f 00 	mov.b	r11,	47(r1)	;0x002f(r1)
    d000:	05 47       	mov	r7,	r5	
    d002:	f1 b2 00 00 	bit.b	#8,	0(r1)	;r2 As==11, 0x0000(r1)
    d006:	12 24       	jz	$+38     	;abs 0xd02c
    d008:	c1 93 2b 00 	tst.b	43(r1)		;0x002b(r1)
    d00c:	0f 20       	jnz	$+32     	;abs 0xd02c
    d00e:	68 41       	mov.b	@r1,	r8	
    d010:	b1 90 10 00 	cmp	#16,	40(r1)	;#0x0010, 0x0028(r1)
    d014:	28 00 
    d016:	03 20       	jnz	$+8      	;abs 0xd01e
    d018:	78 d0 40 00 	bis.b	#64,	r8	;#0x0040
    d01c:	05 3c       	jmp	$+12     	;abs 0xd028
    d01e:	b1 92 28 00 	cmp	#8,	40(r1)	;r2 As==11, 0x0028(r1)
    d022:	04 20       	jnz	$+10     	;abs 0xd02c
    d024:	78 d0 20 00 	bis.b	#32,	r8	;#0x0020
    d028:	c1 48 00 00 	mov.b	r8,	0(r1)	;0x0000(r1)
    d02c:	68 41       	mov.b	@r1,	r8	
    d02e:	68 b2       	bit.b	#4,	r8	;r2 As==10
    d030:	30 24       	jz	$+98     	;abs 0xd092
    d032:	c1 93 2f 00 	tst.b	47(r1)		;0x002f(r1)
    d036:	2d 24       	jz	$+92     	;abs 0xd092
    d038:	f1 40 2d 00 	mov.b	#45,	2(r1)	;#0x002d, 0x0002(r1)
    d03c:	02 00 
    d03e:	68 b3       	bit.b	#2,	r8	;r3 As==10
    d040:	11 24       	jz	$+36     	;abs 0xd064
    d042:	b1 e3 1e 00 	xor	#-1,	30(r1)	;r3 As==11, 0x001e(r1)
    d046:	b1 e3 20 00 	xor	#-1,	32(r1)	;r3 As==11, 0x0020(r1)
    d04a:	b1 e3 22 00 	xor	#-1,	34(r1)	;r3 As==11, 0x0022(r1)
    d04e:	b1 e3 24 00 	xor	#-1,	36(r1)	;r3 As==11, 0x0024(r1)
    d052:	91 53 1e 00 	inc	30(r1)		;0x001e(r1)
    d056:	81 63 20 00 	adc	32(r1)		;0x0020(r1)
    d05a:	81 63 22 00 	adc	34(r1)		;0x0022(r1)
    d05e:	81 63 24 00 	adc	36(r1)		;0x0024(r1)
    d062:	17 3c       	jmp	$+48     	;abs 0xd092
    d064:	58 b3       	bit.b	#1,	r8	;r3 As==01
    d066:	0f 24       	jz	$+32     	;abs 0xd086
    d068:	1a 41 1e 00 	mov	30(r1),	r10	;0x001e(r1)
    d06c:	1b 41 20 00 	mov	32(r1),	r11	;0x0020(r1)
    d070:	3a e3       	inv	r10		
    d072:	3b e3       	inv	r11		
    d074:	0e 4a       	mov	r10,	r14	
    d076:	0f 4b       	mov	r11,	r15	
    d078:	1e 53       	inc	r14		
    d07a:	0f 63       	adc	r15		
    d07c:	81 4e 1e 00 	mov	r14,	30(r1)	;0x001e(r1)
    d080:	81 4f 20 00 	mov	r15,	32(r1)	;0x0020(r1)
    d084:	06 3c       	jmp	$+14     	;abs 0xd092
    d086:	1a 41 1e 00 	mov	30(r1),	r10	;0x001e(r1)
    d08a:	3a e3       	inv	r10		
    d08c:	1a 53       	inc	r10		
    d08e:	81 4a 1e 00 	mov	r10,	30(r1)	;0x001e(r1)
    d092:	c1 43 1b 00 	mov.b	#0,	27(r1)	;r3 As==00, 0x001b(r1)
    d096:	68 b3       	bit.b	#2,	r8	;r3 As==10
    d098:	6a 24       	jz	$+214    	;abs 0xd16e
    d09a:	16 41 1e 00 	mov	30(r1),	r6	;0x001e(r1)
    d09e:	91 41 20 00 	mov	32(r1),	60(r1)	;0x0020(r1), 0x003c(r1)
    d0a2:	3c 00 
    d0a4:	18 41 22 00 	mov	34(r1),	r8	;0x0022(r1)
    d0a8:	14 41 24 00 	mov	36(r1),	r4	;0x0024(r1)
    d0ac:	07 41       	mov	r1,	r7	
    d0ae:	37 50 1a 00 	add	#26,	r7	;#0x001a
    d0b2:	09 46       	mov	r6,	r9	
    d0b4:	91 41 28 00 	mov	40(r1),	50(r1)	;0x0028(r1), 0x0032(r1)
    d0b8:	32 00 
    d0ba:	1b 41 28 00 	mov	40(r1),	r11	;0x0028(r1)
    d0be:	8b 10       	swpb	r11		
    d0c0:	8b 11       	sxt	r11		
    d0c2:	8b 10       	swpb	r11		
    d0c4:	8b 11       	sxt	r11		
    d0c6:	81 4b 34 00 	mov	r11,	52(r1)	;0x0034(r1)
    d0ca:	81 4b 36 00 	mov	r11,	54(r1)	;0x0036(r1)
    d0ce:	81 4b 38 00 	mov	r11,	56(r1)	;0x0038(r1)
    d0d2:	11 12 3a 00 	push	58(r1)		;0x003a(r1)
    d0d6:	11 12 3a 00 	push	58(r1)		;0x003a(r1)
    d0da:	11 12 3a 00 	push	58(r1)		;0x003a(r1)
    d0de:	11 12 3a 00 	push	58(r1)		;0x003a(r1)
    d0e2:	0c 49       	mov	r9,	r12	
    d0e4:	1d 41 44 00 	mov	68(r1),	r13	;0x0044(r1)
    d0e8:	0e 48       	mov	r8,	r14	
    d0ea:	0f 44       	mov	r4,	r15	
    d0ec:	b0 12 fe d3 	call	#0xd3fe	
    d0f0:	31 52       	add	#8,	r1	;r2 As==11
    d0f2:	0b 4c       	mov	r12,	r11	
    d0f4:	3c 90 0a 00 	cmp	#10,	r12	;#0x000a
    d0f8:	05 34       	jge	$+12     	;abs 0xd104
    d0fa:	7b 50 30 00 	add.b	#48,	r11	;#0x0030
    d0fe:	c7 4b 00 00 	mov.b	r11,	0(r7)	;0x0000(r7)
    d102:	0c 3c       	jmp	$+26     	;abs 0xd11c
    d104:	4b 4c       	mov.b	r12,	r11	
    d106:	d1 b3 01 00 	bit.b	#1,	1(r1)	;r3 As==01, 0x0001(r1)
    d10a:	03 24       	jz	$+8      	;abs 0xd112
    d10c:	7a 40 37 00 	mov.b	#55,	r10	;#0x0037
    d110:	02 3c       	jmp	$+6      	;abs 0xd116
    d112:	7a 40 57 00 	mov.b	#87,	r10	;#0x0057
    d116:	4a 5b       	add.b	r11,	r10	
    d118:	c7 4a 00 00 	mov.b	r10,	0(r7)	;0x0000(r7)
    d11c:	06 47       	mov	r7,	r6	
    d11e:	36 53       	add	#-1,	r6	;r3 As==11
    d120:	11 12 3a 00 	push	58(r1)		;0x003a(r1)
    d124:	11 12 3a 00 	push	58(r1)		;0x003a(r1)
    d128:	11 12 3a 00 	push	58(r1)		;0x003a(r1)
    d12c:	11 12 3a 00 	push	58(r1)		;0x003a(r1)
    d130:	0c 49       	mov	r9,	r12	
    d132:	1d 41 44 00 	mov	68(r1),	r13	;0x0044(r1)
    d136:	0e 48       	mov	r8,	r14	
    d138:	0f 44       	mov	r4,	r15	
    d13a:	b0 12 d8 d3 	call	#0xd3d8	
    d13e:	31 52       	add	#8,	r1	;r2 As==11
    d140:	09 4c       	mov	r12,	r9	
    d142:	81 4d 3c 00 	mov	r13,	60(r1)	;0x003c(r1)
    d146:	08 4e       	mov	r14,	r8	
    d148:	04 4f       	mov	r15,	r4	
    d14a:	37 53       	add	#-1,	r7	;r3 As==11
    d14c:	0c 93       	tst	r12		
    d14e:	b2 23       	jnz	$-154    	;abs 0xd0b4
    d150:	0d 93       	tst	r13		
    d152:	b0 23       	jnz	$-158    	;abs 0xd0b4
    d154:	0e 93       	tst	r14		
    d156:	ae 23       	jnz	$-162    	;abs 0xd0b4
    d158:	0f 93       	tst	r15		
    d15a:	ac 23       	jnz	$-166    	;abs 0xd0b4
    d15c:	81 43 1e 00 	mov	#0,	30(r1)	;r3 As==00, 0x001e(r1)
    d160:	81 43 20 00 	mov	#0,	32(r1)	;r3 As==00, 0x0020(r1)
    d164:	81 43 22 00 	mov	#0,	34(r1)	;r3 As==00, 0x0022(r1)
    d168:	81 43 24 00 	mov	#0,	36(r1)	;r3 As==00, 0x0024(r1)
    d16c:	6c 3c       	jmp	$+218    	;abs 0xd246
    d16e:	58 b3       	bit.b	#1,	r8	;r3 As==01
    d170:	3e 24       	jz	$+126    	;abs 0xd1ee
    d172:	14 41 1e 00 	mov	30(r1),	r4	;0x001e(r1)
    d176:	17 41 20 00 	mov	32(r1),	r7	;0x0020(r1)
    d17a:	08 41       	mov	r1,	r8	
    d17c:	38 50 1a 00 	add	#26,	r8	;#0x001a
    d180:	19 41 28 00 	mov	40(r1),	r9	;0x0028(r1)
    d184:	89 10       	swpb	r9		
    d186:	89 11       	sxt	r9		
    d188:	89 10       	swpb	r9		
    d18a:	89 11       	sxt	r9		
    d18c:	1c 41 28 00 	mov	40(r1),	r12	;0x0028(r1)
    d190:	0d 49       	mov	r9,	r13	
    d192:	0e 44       	mov	r4,	r14	
    d194:	0f 47       	mov	r7,	r15	
    d196:	b0 12 70 d3 	call	#0xd370	
    d19a:	0b 4e       	mov	r14,	r11	
    d19c:	3e 90 0a 00 	cmp	#10,	r14	;#0x000a
    d1a0:	05 34       	jge	$+12     	;abs 0xd1ac
    d1a2:	7b 50 30 00 	add.b	#48,	r11	;#0x0030
    d1a6:	c8 4b 00 00 	mov.b	r11,	0(r8)	;0x0000(r8)
    d1aa:	0c 3c       	jmp	$+26     	;abs 0xd1c4
    d1ac:	4b 4e       	mov.b	r14,	r11	
    d1ae:	d1 b3 01 00 	bit.b	#1,	1(r1)	;r3 As==01, 0x0001(r1)
    d1b2:	03 24       	jz	$+8      	;abs 0xd1ba
    d1b4:	7a 40 37 00 	mov.b	#55,	r10	;#0x0037
    d1b8:	02 3c       	jmp	$+6      	;abs 0xd1be
    d1ba:	7a 40 57 00 	mov.b	#87,	r10	;#0x0057
    d1be:	4a 5b       	add.b	r11,	r10	
    d1c0:	c8 4a 00 00 	mov.b	r10,	0(r8)	;0x0000(r8)
    d1c4:	06 48       	mov	r8,	r6	
    d1c6:	36 53       	add	#-1,	r6	;r3 As==11
    d1c8:	1c 41 28 00 	mov	40(r1),	r12	;0x0028(r1)
    d1cc:	0d 49       	mov	r9,	r13	
    d1ce:	0e 44       	mov	r4,	r14	
    d1d0:	0f 47       	mov	r7,	r15	
    d1d2:	b0 12 3a d3 	call	#0xd33a	
    d1d6:	04 4e       	mov	r14,	r4	
    d1d8:	07 4f       	mov	r15,	r7	
    d1da:	38 53       	add	#-1,	r8	;r3 As==11
    d1dc:	0e 93       	tst	r14		
    d1de:	d0 23       	jnz	$-94     	;abs 0xd180
    d1e0:	0f 93       	tst	r15		
    d1e2:	ce 23       	jnz	$-98     	;abs 0xd180
    d1e4:	81 43 1e 00 	mov	#0,	30(r1)	;r3 As==00, 0x001e(r1)
    d1e8:	81 43 20 00 	mov	#0,	32(r1)	;r3 As==00, 0x0020(r1)
    d1ec:	2c 3c       	jmp	$+90     	;abs 0xd246
    d1ee:	17 41 1e 00 	mov	30(r1),	r7	;0x001e(r1)
    d1f2:	08 41       	mov	r1,	r8	
    d1f4:	38 50 1a 00 	add	#26,	r8	;#0x001a
    d1f8:	1e 41 28 00 	mov	40(r1),	r14	;0x0028(r1)
    d1fc:	0f 47       	mov	r7,	r15	
    d1fe:	b0 12 06 ca 	call	#0xca06	
    d202:	0d 4f       	mov	r15,	r13	
    d204:	3f 90 0a 00 	cmp	#10,	r15	;#0x000a
    d208:	05 34       	jge	$+12     	;abs 0xd214
    d20a:	7d 50 30 00 	add.b	#48,	r13	;#0x0030
    d20e:	c8 4d 00 00 	mov.b	r13,	0(r8)	;0x0000(r8)
    d212:	0c 3c       	jmp	$+26     	;abs 0xd22c
    d214:	4d 4f       	mov.b	r15,	r13	
    d216:	d1 b3 01 00 	bit.b	#1,	1(r1)	;r3 As==01, 0x0001(r1)
    d21a:	03 24       	jz	$+8      	;abs 0xd222
    d21c:	7c 40 37 00 	mov.b	#55,	r12	;#0x0037
    d220:	02 3c       	jmp	$+6      	;abs 0xd226
    d222:	7c 40 57 00 	mov.b	#87,	r12	;#0x0057
    d226:	4c 5d       	add.b	r13,	r12	
    d228:	c8 4c 00 00 	mov.b	r12,	0(r8)	;0x0000(r8)
    d22c:	06 48       	mov	r8,	r6	
    d22e:	36 53       	add	#-1,	r6	;r3 As==11
    d230:	1e 41 28 00 	mov	40(r1),	r14	;0x0028(r1)
    d234:	0f 47       	mov	r7,	r15	
    d236:	b0 12 ec c9 	call	#0xc9ec	
    d23a:	07 4f       	mov	r15,	r7	
    d23c:	38 53       	add	#-1,	r8	;r3 As==11
    d23e:	0f 93       	tst	r15		
    d240:	db 23       	jnz	$-72     	;abs 0xd1f8
    d242:	81 43 1e 00 	mov	#0,	30(r1)	;r3 As==00, 0x001e(r1)
    d246:	b1 90 0a 00 	cmp	#10,	40(r1)	;#0x000a, 0x0028(r1)
    d24a:	28 00 
    d24c:	02 24       	jz	$+6      	;abs 0xd252
    d24e:	c1 43 02 00 	mov.b	#0,	2(r1)	;r3 As==00, 0x0002(r1)
    d252:	c1 93 2e 00 	tst.b	46(r1)		;0x002e(r1)
    d256:	2a 24       	jz	$+86     	;abs 0xd2ac
    d258:	0f 41       	mov	r1,	r15	
    d25a:	3f 50 1c 00 	add	#28,	r15	;#0x001c
    d25e:	81 4f 42 00 	mov	r15,	66(r1)	;0x0042(r1)
    d262:	1a 41 1c 00 	mov	28(r1),	r10	;0x001c(r1)
    d266:	8a 10       	swpb	r10		
    d268:	8a 11       	sxt	r10		
    d26a:	8a 10       	swpb	r10		
    d26c:	8a 11       	sxt	r10		
    d26e:	81 4a 44 00 	mov	r10,	68(r1)	;0x0044(r1)
    d272:	81 46 46 00 	mov	r6,	70(r1)	;0x0046(r1)
    d276:	0a 46       	mov	r6,	r10	
    d278:	8a 10       	swpb	r10		
    d27a:	8a 11       	sxt	r10		
    d27c:	8a 10       	swpb	r10		
    d27e:	8a 11       	sxt	r10		
    d280:	81 4a 48 00 	mov	r10,	72(r1)	;0x0048(r1)
    d284:	1c 41 42 00 	mov	66(r1),	r12	;0x0042(r1)
    d288:	1d 41 44 00 	mov	68(r1),	r13	;0x0044(r1)
    d28c:	1c 81 46 00 	sub	70(r1),	r12	;0x0046(r1)
    d290:	1d 71 48 00 	subc	72(r1),	r13	;0x0048(r1)
    d294:	2c 83       	decd	r12		
    d296:	1c 91 26 00 	cmp	38(r1),	r12	;0x0026(r1)
    d29a:	0e 2c       	jc	$+30     	;abs 0xd2b8
    d29c:	e1 d3 01 00 	bis.b	#2,	1(r1)	;r3 As==10, 0x0001(r1)
    d2a0:	5e 41 26 00 	mov.b	38(r1),	r14	;0x0026(r1)
    d2a4:	4e 8c       	sub.b	r12,	r14	
    d2a6:	c1 4e 03 00 	mov.b	r14,	3(r1)	;0x0003(r1)
    d2aa:	06 3c       	jmp	$+14     	;abs 0xd2b8
    d2ac:	c1 93 2a 00 	tst.b	42(r1)		;0x002a(r1)
    d2b0:	03 24       	jz	$+8      	;abs 0xd2b8
    d2b2:	91 41 26 00 	mov	38(r1),	48(r1)	;0x0026(r1), 0x0030(r1)
    d2b6:	30 00 
    d2b8:	11 12 04 00 	push	4(r1)		;0x0004(r1)
    d2bc:	11 12 04 00 	push	4(r1)		;0x0004(r1)
    d2c0:	1d 41 34 00 	mov	52(r1),	r13	;0x0034(r1)
    d2c4:	0e 46       	mov	r6,	r14	
    d2c6:	1e 53       	inc	r14		
    d2c8:	1f 41 3e 00 	mov	62(r1),	r15	;0x003e(r1)
    d2cc:	b0 12 04 cb 	call	#0xcb04	
    d2d0:	21 52       	add	#4,	r1	;r2 As==10
    d2d2:	81 5f 2c 00 	add	r15,	44(r1)	;0x002c(r1)
    d2d6:	0d 3c       	jmp	$+28     	;abs 0xd2f2
    d2d8:	7f 49       	mov.b	@r9+,	r15	
    d2da:	8f 11       	sxt	r15		
    d2dc:	91 12 3c 00 	call	60(r1)		;0x003c(r1)
    d2e0:	0e 49       	mov	r9,	r14	
    d2e2:	0e 58       	add	r8,	r14	
    d2e4:	19 91 40 00 	cmp	64(r1),	r9	;0x0040(r1)
    d2e8:	f7 2b       	jnc	$-16     	;abs 0xd2d8
    d2ea:	81 49 3e 00 	mov	r9,	62(r1)	;0x003e(r1)
    d2ee:	81 4e 2c 00 	mov	r14,	44(r1)	;0x002c(r1)
    d2f2:	07 43       	clr	r7		
    d2f4:	0e 3c       	jmp	$+30     	;abs 0xd312
    d2f6:	91 41 26 00 	mov	38(r1),	48(r1)	;0x0026(r1), 0x0030(r1)
    d2fa:	30 00 
    d2fc:	d1 43 2e 00 	mov.b	#1,	46(r1)	;r3 As==01, 0x002e(r1)
    d300:	c1 43 2a 00 	mov.b	#0,	42(r1)	;r3 As==00, 0x002a(r1)
    d304:	03 3c       	jmp	$+8      	;abs 0xd30c
    d306:	05 4e       	mov	r14,	r5	
    d308:	d1 43 2a 00 	mov.b	#1,	42(r1)	;r3 As==01, 0x002a(r1)
    d30c:	81 43 26 00 	mov	#0,	38(r1)	;r3 As==00, 0x0026(r1)
    d310:	17 43       	mov	#1,	r7	;r3 As==01
    d312:	16 41 40 00 	mov	64(r1),	r6	;0x0040(r1)
    d316:	6e 46       	mov.b	@r6,	r14	
    d318:	4e 93       	tst.b	r14		
    d31a:	02 24       	jz	$+6      	;abs 0xd320
    d31c:	30 40 e8 cc 	br	#0xcce8	
    d320:	1f 41 2c 00 	mov	44(r1),	r15	;0x002c(r1)
    d324:	31 50 4a 00 	add	#74,	r1	;#0x004a
    d328:	34 41       	pop	r4		
    d32a:	35 41       	pop	r5		
    d32c:	36 41       	pop	r6		
    d32e:	37 41       	pop	r7		
    d330:	38 41       	pop	r8		
    d332:	39 41       	pop	r9		
    d334:	3a 41       	pop	r10		
    d336:	3b 41       	pop	r11		
    d338:	30 41       	ret			

0000d33a <__udivsi3>:
    d33a:	0b 12       	push	r11		
    d33c:	0a 12       	push	r10		
    d33e:	09 12       	push	r9		
    d340:	79 40 20 00 	mov.b	#32,	r9	;#0x0020
    d344:	0a 4c       	mov	r12,	r10	
    d346:	0b 4d       	mov	r13,	r11	
    d348:	0c 43       	clr	r12		
    d34a:	0d 43       	clr	r13		
    d34c:	0e 5e       	rla	r14		
    d34e:	0f 6f       	rlc	r15		
    d350:	0c 6c       	rlc	r12		
    d352:	0d 6d       	rlc	r13		
    d354:	0d 9b       	cmp	r11,	r13	
    d356:	06 28       	jnc	$+14     	;abs 0xd364
    d358:	02 20       	jnz	$+6      	;abs 0xd35e
    d35a:	0c 9a       	cmp	r10,	r12	
    d35c:	03 28       	jnc	$+8      	;abs 0xd364
    d35e:	0c 8a       	sub	r10,	r12	
    d360:	0d 7b       	subc	r11,	r13	
    d362:	1e d3       	bis	#1,	r14	;r3 As==01
    d364:	19 83       	dec	r9		
    d366:	f2 23       	jnz	$-26     	;abs 0xd34c
    d368:	39 41       	pop	r9		
    d36a:	3a 41       	pop	r10		
    d36c:	3b 41       	pop	r11		
    d36e:	30 41       	ret			

0000d370 <__umodsi3>:
    d370:	b0 12 3a d3 	call	#0xd33a	
    d374:	0e 4c       	mov	r12,	r14	
    d376:	0f 4d       	mov	r13,	r15	
    d378:	30 41       	ret			

0000d37a <__xabi_udivmod64>:
    d37a:	07 12       	push	r7		
    d37c:	06 12       	push	r6		
    d37e:	05 12       	push	r5		
    d380:	04 12       	push	r4		
    d382:	30 12 40 00 	push	#64		;#0x0040
    d386:	04 48       	mov	r8,	r4	
    d388:	05 49       	mov	r9,	r5	
    d38a:	06 4a       	mov	r10,	r6	
    d38c:	07 4b       	mov	r11,	r7	
    d38e:	08 43       	clr	r8		
    d390:	09 43       	clr	r9		
    d392:	0a 43       	clr	r10		
    d394:	0b 43       	clr	r11		
    d396:	0c 5c       	rla	r12		
    d398:	0d 6d       	rlc	r13		
    d39a:	0e 6e       	rlc	r14		
    d39c:	0f 6f       	rlc	r15		
    d39e:	08 68       	rlc	r8		
    d3a0:	09 69       	rlc	r9		
    d3a2:	0a 6a       	rlc	r10		
    d3a4:	0b 6b       	rlc	r11		
    d3a6:	0b 97       	cmp	r7,	r11	
    d3a8:	0e 28       	jnc	$+30     	;abs 0xd3c6
    d3aa:	08 20       	jnz	$+18     	;abs 0xd3bc
    d3ac:	0a 96       	cmp	r6,	r10	
    d3ae:	0b 28       	jnc	$+24     	;abs 0xd3c6
    d3b0:	05 20       	jnz	$+12     	;abs 0xd3bc
    d3b2:	09 95       	cmp	r5,	r9	
    d3b4:	08 28       	jnc	$+18     	;abs 0xd3c6
    d3b6:	02 20       	jnz	$+6      	;abs 0xd3bc
    d3b8:	08 94       	cmp	r4,	r8	
    d3ba:	05 28       	jnc	$+12     	;abs 0xd3c6
    d3bc:	08 84       	sub	r4,	r8	
    d3be:	09 75       	subc	r5,	r9	
    d3c0:	0a 76       	subc	r6,	r10	
    d3c2:	0b 77       	subc	r7,	r11	
    d3c4:	1c d3       	bis	#1,	r12	;r3 As==01
    d3c6:	91 83 00 00 	dec	0(r1)		;0x0000(r1)
    d3ca:	e5 23       	jnz	$-52     	;abs 0xd396
    d3cc:	21 53       	incd	r1		
    d3ce:	34 41       	pop	r4		
    d3d0:	35 41       	pop	r5		
    d3d2:	36 41       	pop	r6		
    d3d4:	37 41       	pop	r7		
    d3d6:	30 41       	ret			

0000d3d8 <__udivdi3>:
    d3d8:	0b 12       	push	r11		
    d3da:	0a 12       	push	r10		
    d3dc:	09 12       	push	r9		
    d3de:	08 12       	push	r8		
    d3e0:	18 41 0a 00 	mov	10(r1),	r8	;0x000a(r1)
    d3e4:	19 41 0c 00 	mov	12(r1),	r9	;0x000c(r1)
    d3e8:	1a 41 0e 00 	mov	14(r1),	r10	;0x000e(r1)
    d3ec:	1b 41 10 00 	mov	16(r1),	r11	;0x0010(r1)
    d3f0:	b0 12 7a d3 	call	#0xd37a	
    d3f4:	38 41       	pop	r8		
    d3f6:	39 41       	pop	r9		
    d3f8:	3a 41       	pop	r10		
    d3fa:	3b 41       	pop	r11		
    d3fc:	30 41       	ret			

0000d3fe <__umoddi3>:
    d3fe:	0b 12       	push	r11		
    d400:	0a 12       	push	r10		
    d402:	09 12       	push	r9		
    d404:	08 12       	push	r8		
    d406:	18 41 0a 00 	mov	10(r1),	r8	;0x000a(r1)
    d40a:	19 41 0c 00 	mov	12(r1),	r9	;0x000c(r1)
    d40e:	1a 41 0e 00 	mov	14(r1),	r10	;0x000e(r1)
    d412:	1b 41 10 00 	mov	16(r1),	r11	;0x0010(r1)
    d416:	b0 12 7a d3 	call	#0xd37a	
    d41a:	0c 48       	mov	r8,	r12	
    d41c:	0d 49       	mov	r9,	r13	
    d41e:	0e 4a       	mov	r10,	r14	
    d420:	0f 4b       	mov	r11,	r15	
    d422:	38 41       	pop	r8		
    d424:	39 41       	pop	r9		
    d426:	3a 41       	pop	r10		
    d428:	3b 41       	pop	r11		
    d42a:	30 41       	ret			

0000d42c <__udivmoddi4>:
    d42c:	0b 12       	push	r11		
    d42e:	0a 12       	push	r10		
    d430:	09 12       	push	r9		
    d432:	08 12       	push	r8		
    d434:	07 12       	push	r7		
    d436:	18 41 0c 00 	mov	12(r1),	r8	;0x000c(r1)
    d43a:	19 41 0e 00 	mov	14(r1),	r9	;0x000e(r1)
    d43e:	1a 41 10 00 	mov	16(r1),	r10	;0x0010(r1)
    d442:	1b 41 12 00 	mov	18(r1),	r11	;0x0012(r1)
    d446:	b0 12 7a d3 	call	#0xd37a	
    d44a:	17 41 14 00 	mov	20(r1),	r7	;0x0014(r1)
    d44e:	87 48 00 00 	mov	r8,	0(r7)	;0x0000(r7)
    d452:	87 49 02 00 	mov	r9,	2(r7)	;0x0002(r7)
    d456:	87 4a 04 00 	mov	r10,	4(r7)	;0x0004(r7)
    d45a:	87 4b 06 00 	mov	r11,	6(r7)	;0x0006(r7)
    d45e:	37 41       	pop	r7		
    d460:	38 41       	pop	r8		
    d462:	39 41       	pop	r9		
    d464:	3a 41       	pop	r10		
    d466:	3b 41       	pop	r11		
    d468:	30 41       	ret			

0000d46a <_unexpected_>:
    d46a:	00 13       	reti			

Disassembly of section .rodata:

0000d46c <__data_start+0xd26c>:
    d46c:	25 64       	addc	@r4,	r5	
    d46e:	5f 25       	jz	$+704    	;abs 0xd72e
    d470:	64 00       	.word	0x0064;	????	
    d472:	54 c2 62 c2 	bic.b	&0xc262,r4	
    d476:	70 c2       	bic.b	#8,	r0	;r2 As==11
    d478:	7e c2       	bic.b	#8,	r14	;r2 As==11
    d47a:	8c c2 6b 69 	bic	r2,	26987(r12);0x696b(r12)
    d47e:	74 63       	addc.b	#-1,	r4	;r3 As==11
    d480:	68 65       	addc.b	@r5,	r8	
    d482:	6e 20       	jnz	$+222    	;abs 0xd560
    d484:	63 6c       	.word	0x6c63;	????	Illegal as 2-op instr
    d486:	6f 63       	addc.b	#2,	r15	;r3 As==10
    d488:	6b 00       	.word	0x006b;	????	
    d48a:	53 65       	.word	0x6553;	????	Illegal as 2-op instr
    d48c:	6e 73       	subc.b	#2,	r14	;r3 As==10
    d48e:	6f 72       	subc.b	#4,	r15	;r2 As==10
    d490:	20 65       	addc	@r5,	r0	
    d492:	72 72       	subc.b	#8,	r2	;r2 As==11
    d494:	6f 72       	subc.b	#4,	r15	;r2 As==10
    d496:	00 25       	jz	$+514    	;abs 0xd698
    d498:	64 2e       	jc	$-822    	;abs 0xd162
    d49a:	25 64       	addc	@r4,	r5	
    d49c:	5f 25       	jz	$+704    	;abs 0xd75c
    d49e:	64 2e       	jc	$-822    	;abs 0xd168
    d4a0:	25 64       	addc	@r4,	r5	
    d4a2:	5f 25       	jz	$+704    	;abs 0xd762
    d4a4:	64 00       	.word	0x0064;	????	
    d4a6:	28 6e       	addc	@r14,	r8	
    d4a8:	75 6c       	addc.b	@r12+,	r5	
    d4aa:	6c 29       	jnc	$+730    	;abs 0xd784
	...

Disassembly of section .bss:

00000200 <__bss_start>:
	...

00000202 <destination_>:
	...

00000204 <available_>:
	...

00000206 <bot_str>:
	...

00000216 <c_mode>:
	...

00000218 <top_str>:
	...

00000228 <init_flag>:
	...

0000022a <rec_oper>:
	...

0000022c <ht_data>:
	...

00000236 <bit_count>:
	...

00000238 <tar_val>:
	...

Disassembly of section .noinit:

0000023a <__wdt_clear_value>:
	...

Disassembly of section .vectors:

0000ffe0 <__ivtbl_16>:
    ffe0:	00 c1       	bic	r1,	r0	
    ffe2:	00 c1       	bic	r1,	r0	
    ffe4:	00 c1       	bic	r1,	r0	
    ffe6:	e0 c1 00 c1 	bic.b	@r1,	-16128(r0);PC rel. 0xc0e8
    ffea:	00 c1       	bic	r1,	r0	
    ffec:	00 c1       	bic	r1,	r0	
    ffee:	00 c1       	bic	r1,	r0	
    fff0:	00 c1       	bic	r1,	r0	
    fff2:	00 c1       	bic	r1,	r0	
    fff4:	00 c1       	bic	r1,	r0	
    fff6:	00 c1       	bic	r1,	r0	
    fff8:	00 c1       	bic	r1,	r0	
    fffa:	00 c1       	bic	r1,	r0	
    fffc:	00 c1       	bic	r1,	r0	
    fffe:	00 c0       	bic	r0,	r0	

Disassembly of section .debug_aranges:

00000000 <.debug_aranges>:
   0:	10 00       	.word	0x0010;	????	
   2:	00 00       	.word	0x0000;	????	
   4:	02 00       	.word	0x0002;	????	
   6:	00 00       	.word	0x0000;	????	
   8:	00 00       	.word	0x0000;	????	
   a:	02 00       	.word	0x0002;	????	
   c:	ec c9 22 00 	bic.b	@r9,	34(r12)	;0x0022(r12)
  10:	00 00       	.word	0x0000;	????	
  12:	00 00       	.word	0x0000;	????	
  14:	10 00       	.word	0x0010;	????	
  16:	00 00       	.word	0x0000;	????	
  18:	02 00       	.word	0x0002;	????	
  1a:	ce 00       	.word	0x00ce;	????	
  1c:	00 00       	.word	0x0000;	????	
  1e:	02 00       	.word	0x0002;	????	
  20:	0e ca       	bic	r10,	r14	
  22:	3a 00       	.word	0x003a;	????	
  24:	00 00       	.word	0x0000;	????	
  26:	00 00       	.word	0x0000;	????	
  28:	10 00       	.word	0x0010;	????	
  2a:	00 00       	.word	0x0000;	????	
  2c:	02 00       	.word	0x0002;	????	
  2e:	9c 01       	.word	0x019c;	????	
  30:	00 00       	.word	0x0000;	????	
  32:	02 00       	.word	0x0002;	????	
  34:	48 ca       	bic.b	r10,	r8	
  36:	bc 00       	.word	0x00bc;	????	
  38:	00 00       	.word	0x0000;	????	
  3a:	00 00       	.word	0x0000;	????	
  3c:	10 00       	.word	0x0010;	????	
  3e:	00 00       	.word	0x0000;	????	
  40:	02 00       	.word	0x0002;	????	
  42:	13 04       	.word	0x0413;	????	
  44:	00 00       	.word	0x0000;	????	
  46:	02 00       	.word	0x0002;	????	
  48:	04 cb       	bic	r11,	r4	
  4a:	36 08       	.word	0x0836;	????	
  4c:	00 00       	.word	0x0000;	????	
  4e:	00 00       	.word	0x0000;	????	
  50:	10 00       	.word	0x0010;	????	
  52:	00 00       	.word	0x0000;	????	
  54:	02 00       	.word	0x0002;	????	
  56:	78 09       	.word	0x0978;	????	
  58:	00 00       	.word	0x0000;	????	
  5a:	02 00       	.word	0x0002;	????	
  5c:	3a d3       	bis	#-1,	r10	;r3 As==11
  5e:	40 00       	.word	0x0040;	????	
  60:	00 00       	.word	0x0000;	????	
  62:	00 00       	.word	0x0000;	????	
  64:	10 00       	.word	0x0010;	????	
  66:	00 00       	.word	0x0000;	????	
  68:	02 00       	.word	0x0002;	????	
  6a:	46 0a       	.word	0x0a46;	????	
  6c:	00 00       	.word	0x0000;	????	
  6e:	02 00       	.word	0x0002;	????	
  70:	7a d3       	bis.b	#-1,	r10	;r3 As==11
  72:	f0 00       	.word	0x00f0;	????	
  74:	00 00       	.word	0x0000;	????	
  76:	00 00       	.word	0x0000;	????	
  78:	10 00       	.word	0x0010;	????	
  7a:	00 00       	.word	0x0000;	????	
  7c:	02 00       	.word	0x0002;	????	
  7e:	14 0b       	.word	0x0b14;	????	
  80:	00 00       	.word	0x0000;	????	
  82:	02 00       	.word	0x0002;	????	
  84:	00 c0       	bic	r0,	r0	
  86:	0c 00       	.word	0x000c;	????	
  88:	00 00       	.word	0x0000;	????	
  8a:	00 00       	.word	0x0000;	????	
  8c:	10 00       	.word	0x0010;	????	
  8e:	00 00       	.word	0x0000;	????	
  90:	02 00       	.word	0x0002;	????	
  92:	cc 0b       	.word	0x0bcc;	????	
  94:	00 00       	.word	0x0000;	????	
  96:	02 00       	.word	0x0002;	????	
  98:	0c c0       	bic	r0,	r12	
  9a:	04 00       	.word	0x0004;	????	
  9c:	00 00       	.word	0x0000;	????	
  9e:	00 00       	.word	0x0000;	????	
  a0:	10 00       	.word	0x0010;	????	
  a2:	00 00       	.word	0x0000;	????	
  a4:	02 00       	.word	0x0002;	????	
  a6:	84 0c       	.word	0x0c84;	????	
  a8:	00 00       	.word	0x0000;	????	
  aa:	02 00       	.word	0x0002;	????	
  ac:	10 c0 18 00 	bic	24(r0),	r0	;PC rel. 0x00c6
  b0:	00 00       	.word	0x0000;	????	
  b2:	00 00       	.word	0x0000;	????	
  b4:	10 00       	.word	0x0010;	????	
  b6:	00 00       	.word	0x0000;	????	
  b8:	02 00       	.word	0x0002;	????	
  ba:	3c 0d       	.word	0x0d3c;	????	
  bc:	00 00       	.word	0x0000;	????	
  be:	02 00       	.word	0x0002;	????	
  c0:	28 c0       	bic	@r0,	r8	
  c2:	16 00       	.word	0x0016;	????	
  c4:	00 00       	.word	0x0000;	????	
  c6:	00 00       	.word	0x0000;	????	
  c8:	10 00       	.word	0x0010;	????	
  ca:	00 00       	.word	0x0000;	????	
  cc:	02 00       	.word	0x0002;	????	
  ce:	f4 0d       	.word	0x0df4;	????	
  d0:	00 00       	.word	0x0000;	????	
  d2:	02 00       	.word	0x0002;	????	
  d4:	fa c0 06 00 	bic.b	#6,	0(r10)	;#0x0006, 0x0000(r10)
  d8:	00 00 
  da:	00 00       	.word	0x0000;	????	
  dc:	10 00       	.word	0x0010;	????	
  de:	00 00       	.word	0x0000;	????	
  e0:	02 00       	.word	0x0002;	????	
  e2:	ac 0e       	.word	0x0eac;	????	
  e4:	00 00       	.word	0x0000;	????	
  e6:	02 00       	.word	0x0002;	????	
  e8:	6a d4       	bis.b	@r4,	r10	
  ea:	02 00       	.word	0x0002;	????	
  ec:	00 00       	.word	0x0000;	????	
	...

Disassembly of section .debug_info:

00000000 <.debug_info>:
   0:	ca 00       	.word	0x00ca;	????	
   2:	00 00       	.word	0x0000;	????	
   4:	02 00       	.word	0x0002;	????	
   6:	00 00       	.word	0x0000;	????	
   8:	00 00       	.word	0x0000;	????	
   a:	02 01       	.word	0x0102;	????	
   c:	00 00       	.word	0x0000;	????	
   e:	00 00       	.word	0x0000;	????	
  10:	ec c9 0e ca 	bic.b	@r9,	-13810(r12);0xca0e(r12)
  14:	2f 62       	addc	#4,	r15	;r2 As==10
  16:	75 69       	addc.b	@r9+,	r5	
  18:	6c 64       	addc.b	@r4,	r12	
  1a:	2f 62       	addc	#4,	r15	;r2 As==10
  1c:	75 69       	addc.b	@r9+,	r5	
  1e:	6c 64       	addc.b	@r4,	r12	
  20:	64 2f       	jc	$-310    	;abs 0xfeea
  22:	67 63       	addc.b	#2,	r7	;r3 As==10
  24:	63 2d       	jc	$+712    	;abs 0x2ec
  26:	6d 73       	subc.b	#2,	r13	;r3 As==10
  28:	70 34       	jge	$+226    	;abs 0x10a
  2a:	33 30       	jn	$+104    	;abs 0x92
  2c:	2d 34       	jge	$+92     	;abs 0x88
  2e:	2e 36       	jge	$-930    	;abs 0xfc8c
  30:	2e 33       	jn	$-418    	;abs 0xfe8e
  32:	7e 6d       	addc.b	@r13+,	r14	
  34:	73 70       	.word	0x7073;	????	Illegal as 2-op instr
  36:	67 63       	addc.b	#2,	r7	;r3 As==10
  38:	63 2d       	jc	$+712    	;abs 0x300
  3a:	32 30       	jn	$+102    	;abs 0xa0
  3c:	31 32       	jn	$-924    	;abs 0xfca0
  3e:	30 34       	jge	$+98     	;abs 0xa0
  40:	30 36       	jge	$-926    	;abs 0xfca2
  42:	2f 2e       	jc	$-928    	;abs 0xfca2
  44:	2f 67       	addc	@r7,	r15	
  46:	63 63       	.word	0x6363;	????	Illegal as 2-op instr
  48:	2d 34       	jge	$+92     	;abs 0xa4
  4a:	2e 36       	jge	$-930    	;abs 0xfca8
  4c:	2e 33       	jn	$-418    	;abs 0xfeaa
  4e:	2f 6c       	addc	@r12,	r15	
  50:	69 62       	addc.b	#4,	r9	;r2 As==10
  52:	67 63       	addc.b	#2,	r7	;r3 As==10
  54:	63 2f       	jc	$-312    	;abs 0xff1c
  56:	2e 2e       	jc	$-930    	;abs 0xfcb4
  58:	2f 67       	addc	@r7,	r15	
  5a:	63 63       	.word	0x6363;	????	Illegal as 2-op instr
  5c:	2f 63       	addc	#2,	r15	;r3 As==10
  5e:	6f 6e       	addc.b	@r14,	r15	
  60:	66 69       	addc.b	@r9,	r6	
  62:	67 2f       	jc	$-304    	;abs 0xff32
  64:	6d 73       	subc.b	#2,	r13	;r3 As==10
  66:	70 34       	jge	$+226    	;abs 0x148
  68:	33 30       	jn	$+104    	;abs 0xd0
  6a:	2f 6c       	addc	@r12,	r15	
  6c:	69 62       	addc.b	#4,	r9	;r2 As==10
  6e:	67 63       	addc.b	#2,	r7	;r3 As==10
  70:	63 2e       	jc	$-824    	;abs 0xfd38
  72:	53 00       	.word	0x0053;	????	
  74:	2f 62       	addc	#4,	r15	;r2 As==10
  76:	75 69       	addc.b	@r9+,	r5	
  78:	6c 64       	addc.b	@r4,	r12	
  7a:	2f 62       	addc	#4,	r15	;r2 As==10
  7c:	75 69       	addc.b	@r9+,	r5	
  7e:	6c 64       	addc.b	@r4,	r12	
  80:	64 2f       	jc	$-310    	;abs 0xff4a
  82:	67 63       	addc.b	#2,	r7	;r3 As==10
  84:	63 2d       	jc	$+712    	;abs 0x34c
  86:	6d 73       	subc.b	#2,	r13	;r3 As==10
  88:	70 34       	jge	$+226    	;abs 0x16a
  8a:	33 30       	jn	$+104    	;abs 0xf2
  8c:	2d 34       	jge	$+92     	;abs 0xe8
  8e:	2e 36       	jge	$-930    	;abs 0xfcec
  90:	2e 33       	jn	$-418    	;abs 0xfeee
  92:	7e 6d       	addc.b	@r13+,	r14	
  94:	73 70       	.word	0x7073;	????	Illegal as 2-op instr
  96:	67 63       	addc.b	#2,	r7	;r3 As==10
  98:	63 2d       	jc	$+712    	;abs 0x360
  9a:	32 30       	jn	$+102    	;abs 0x100
  9c:	31 32       	jn	$-924    	;abs 0xfd00
  9e:	30 34       	jge	$+98     	;abs 0x100
  a0:	30 36       	jge	$-926    	;abs 0xfd02
  a2:	2f 62       	addc	#4,	r15	;r2 As==10
  a4:	75 69       	addc.b	@r9+,	r5	
  a6:	6c 64       	addc.b	@r4,	r12	
  a8:	2d 72       	subc	#4,	r13	;r2 As==10
  aa:	65 73       	subc.b	#2,	r5	;r3 As==10
  ac:	75 6c       	addc.b	@r12+,	r5	
  ae:	74 2f       	jc	$-278    	;abs 0xff98
  b0:	6d 73       	subc.b	#2,	r13	;r3 As==10
  b2:	70 34       	jge	$+226    	;abs 0x194
  b4:	33 30       	jn	$+104    	;abs 0x11c
  b6:	2f 6c       	addc	@r12,	r15	
  b8:	69 62       	addc.b	#4,	r9	;r2 As==10
  ba:	67 63       	addc.b	#2,	r7	;r3 As==10
  bc:	63 00       	.word	0x0063;	????	
  be:	47 4e       	mov.b	r14,	r7	
  c0:	55 20       	jnz	$+172    	;abs 0x16c
  c2:	41 53       	add.b	#0,	r1	;r3 As==00
  c4:	20 32       	jn	$-958    	;abs 0xfd06
  c6:	2e 32       	jn	$-930    	;abs 0xfd24
  c8:	31 2e       	jc	$-924    	;abs 0xfd2c
  ca:	31 00       	.word	0x0031;	????	
  cc:	01 80       	sub	r0,	r1	
  ce:	ca 00       	.word	0x00ca;	????	
  d0:	00 00       	.word	0x0000;	????	
  d2:	02 00       	.word	0x0002;	????	
  d4:	14 00       	.word	0x0014;	????	
  d6:	00 00       	.word	0x0000;	????	
  d8:	02 01       	.word	0x0102;	????	
  da:	9c 00       	.word	0x009c;	????	
  dc:	00 00       	.word	0x0000;	????	
  de:	0e ca       	bic	r10,	r14	
  e0:	48 ca       	bic.b	r10,	r8	
  e2:	2f 62       	addc	#4,	r15	;r2 As==10
  e4:	75 69       	addc.b	@r9+,	r5	
  e6:	6c 64       	addc.b	@r4,	r12	
  e8:	2f 62       	addc	#4,	r15	;r2 As==10
  ea:	75 69       	addc.b	@r9+,	r5	
  ec:	6c 64       	addc.b	@r4,	r12	
  ee:	64 2f       	jc	$-310    	;abs 0xffb8
  f0:	67 63       	addc.b	#2,	r7	;r3 As==10
  f2:	63 2d       	jc	$+712    	;abs 0x3ba
  f4:	6d 73       	subc.b	#2,	r13	;r3 As==10
  f6:	70 34       	jge	$+226    	;abs 0x1d8
  f8:	33 30       	jn	$+104    	;abs 0x160
  fa:	2d 34       	jge	$+92     	;abs 0x156
  fc:	2e 36       	jge	$-930    	;abs 0xfd5a
  fe:	2e 33       	jn	$-418    	;abs 0xff5c
 100:	7e 6d       	addc.b	@r13+,	r14	
 102:	73 70       	.word	0x7073;	????	Illegal as 2-op instr
 104:	67 63       	addc.b	#2,	r7	;r3 As==10
 106:	63 2d       	jc	$+712    	;abs 0x3ce
 108:	32 30       	jn	$+102    	;abs 0x16e
 10a:	31 32       	jn	$-924    	;abs 0xfd6e
 10c:	30 34       	jge	$+98     	;abs 0x16e
 10e:	30 36       	jge	$-926    	;abs 0xfd70
 110:	2f 2e       	jc	$-928    	;abs 0xfd70
 112:	2f 67       	addc	@r7,	r15	
 114:	63 63       	.word	0x6363;	????	Illegal as 2-op instr
 116:	2d 34       	jge	$+92     	;abs 0x172
 118:	2e 36       	jge	$-930    	;abs 0xfd76
 11a:	2e 33       	jn	$-418    	;abs 0xff78
 11c:	2f 6c       	addc	@r12,	r15	
 11e:	69 62       	addc.b	#4,	r9	;r2 As==10
 120:	67 63       	addc.b	#2,	r7	;r3 As==10
 122:	63 2f       	jc	$-312    	;abs 0xffea
 124:	2e 2e       	jc	$-930    	;abs 0xfd82
 126:	2f 67       	addc	@r7,	r15	
 128:	63 63       	.word	0x6363;	????	Illegal as 2-op instr
 12a:	2f 63       	addc	#2,	r15	;r3 As==10
 12c:	6f 6e       	addc.b	@r14,	r15	
 12e:	66 69       	addc.b	@r9,	r6	
 130:	67 2f       	jc	$-304    	;abs 0x0
 132:	6d 73       	subc.b	#2,	r13	;r3 As==10
 134:	70 34       	jge	$+226    	;abs 0x216
 136:	33 30       	jn	$+104    	;abs 0x19e
 138:	2f 6c       	addc	@r12,	r15	
 13a:	69 62       	addc.b	#4,	r9	;r2 As==10
 13c:	67 63       	addc.b	#2,	r7	;r3 As==10
 13e:	63 2e       	jc	$-824    	;abs 0xfe06
 140:	53 00       	.word	0x0053;	????	
 142:	2f 62       	addc	#4,	r15	;r2 As==10
 144:	75 69       	addc.b	@r9+,	r5	
 146:	6c 64       	addc.b	@r4,	r12	
 148:	2f 62       	addc	#4,	r15	;r2 As==10
 14a:	75 69       	addc.b	@r9+,	r5	
 14c:	6c 64       	addc.b	@r4,	r12	
 14e:	64 2f       	jc	$-310    	;abs 0x18
 150:	67 63       	addc.b	#2,	r7	;r3 As==10
 152:	63 2d       	jc	$+712    	;abs 0x41a
 154:	6d 73       	subc.b	#2,	r13	;r3 As==10
 156:	70 34       	jge	$+226    	;abs 0x238
 158:	33 30       	jn	$+104    	;abs 0x1c0
 15a:	2d 34       	jge	$+92     	;abs 0x1b6
 15c:	2e 36       	jge	$-930    	;abs 0xfdba
 15e:	2e 33       	jn	$-418    	;abs 0xffbc
 160:	7e 6d       	addc.b	@r13+,	r14	
 162:	73 70       	.word	0x7073;	????	Illegal as 2-op instr
 164:	67 63       	addc.b	#2,	r7	;r3 As==10
 166:	63 2d       	jc	$+712    	;abs 0x42e
 168:	32 30       	jn	$+102    	;abs 0x1ce
 16a:	31 32       	jn	$-924    	;abs 0xfdce
 16c:	30 34       	jge	$+98     	;abs 0x1ce
 16e:	30 36       	jge	$-926    	;abs 0xfdd0
 170:	2f 62       	addc	#4,	r15	;r2 As==10
 172:	75 69       	addc.b	@r9+,	r5	
 174:	6c 64       	addc.b	@r4,	r12	
 176:	2d 72       	subc	#4,	r13	;r2 As==10
 178:	65 73       	subc.b	#2,	r5	;r3 As==10
 17a:	75 6c       	addc.b	@r12+,	r5	
 17c:	74 2f       	jc	$-278    	;abs 0x66
 17e:	6d 73       	subc.b	#2,	r13	;r3 As==10
 180:	70 34       	jge	$+226    	;abs 0x262
 182:	33 30       	jn	$+104    	;abs 0x1ea
 184:	2f 6c       	addc	@r12,	r15	
 186:	69 62       	addc.b	#4,	r9	;r2 As==10
 188:	67 63       	addc.b	#2,	r7	;r3 As==10
 18a:	63 00       	.word	0x0063;	????	
 18c:	47 4e       	mov.b	r14,	r7	
 18e:	55 20       	jnz	$+172    	;abs 0x23a
 190:	41 53       	add.b	#0,	r1	;r3 As==00
 192:	20 32       	jn	$-958    	;abs 0xfdd4
 194:	2e 32       	jn	$-930    	;abs 0xfdf2
 196:	31 2e       	jc	$-924    	;abs 0xfdfa
 198:	31 00       	.word	0x0031;	????	
 19a:	01 80       	sub	r0,	r1	
 19c:	73 02       	.word	0x0273;	????	
 19e:	00 00       	.word	0x0000;	????	
 1a0:	02 00       	.word	0x0002;	????	
 1a2:	28 00       	.word	0x0028;	????	
 1a4:	00 00       	.word	0x0000;	????	
 1a6:	02 01       	.word	0x0102;	????	
 1a8:	e5 00       	.word	0x00e5;	????	
 1aa:	00 00       	.word	0x0000;	????	
 1ac:	01 d2       	bis	r2,	r1	
 1ae:	00 00       	.word	0x0000;	????	
 1b0:	00 3e       	jmp	$-1022   	;abs 0xfdb2
 1b2:	00 00       	.word	0x0000;	????	
 1b4:	00 48       	br	r8		
 1b6:	ca 04       	.word	0x04ca;	????	
 1b8:	cb 43 01 00 	mov.b	#0,	1(r11)	;r3 As==00, 0x0001(r11)
 1bc:	00 02       	.word	0x0200;	????	
 1be:	04 05       	.word	0x0504;	????	
 1c0:	c9 00       	.word	0x00c9;	????	
 1c2:	00 00       	.word	0x0000;	????	
 1c4:	03 00       	.word	0x0003;	????	
 1c6:	00 00       	.word	0x0000;	????	
 1c8:	00 02       	.word	0x0200;	????	
 1ca:	d4 33       	jn	$-86     	;abs 0x174
 1cc:	00 00       	.word	0x0000;	????	
 1ce:	00 02       	.word	0x0200;	????	
 1d0:	02 07       	.word	0x0702;	????	
 1d2:	9f 00       	.word	0x009f;	????	
 1d4:	00 00       	.word	0x0000;	????	
 1d6:	04 02       	.word	0x0204;	????	
 1d8:	05 69       	addc	r9,	r5	
 1da:	6e 74       	subc.b	@r4,	r14	
 1dc:	00 02       	.word	0x0200;	????	
 1de:	01 06       	.word	0x0601;	????	
 1e0:	67 00       	.word	0x0067;	????	
 1e2:	00 00       	.word	0x0000;	????	
 1e4:	02 08       	.word	0x0802;	????	
 1e6:	05 c4       	bic	r4,	r5	
 1e8:	00 00       	.word	0x0000;	????	
 1ea:	00 02       	.word	0x0200;	????	
 1ec:	01 08       	.word	0x0801;	????	
 1ee:	65 00       	.word	0x0065;	????	
 1f0:	00 00       	.word	0x0000;	????	
 1f2:	02 04       	.word	0x0402;	????	
 1f4:	07 9a       	cmp	r10,	r7	
 1f6:	00 00       	.word	0x0000;	????	
 1f8:	00 02       	.word	0x0200;	????	
 1fa:	08 07       	.word	0x0708;	????	
 1fc:	95 00       	.word	0x0095;	????	
 1fe:	00 00       	.word	0x0000;	????	
 200:	02 02       	.word	0x0202;	????	
 202:	07 73       	sbc	r7		
 204:	00 00       	.word	0x0000;	????	
 206:	00 05       	.word	0x0500;	????	
 208:	02 71       	subc	r1,	r2	
 20a:	00 00       	.word	0x0000;	????	
 20c:	00 02       	.word	0x0200;	????	
 20e:	01 06       	.word	0x0601;	????	
 210:	6e 00       	.word	0x006e;	????	
 212:	00 00       	.word	0x0000;	????	
 214:	05 02       	.word	0x0205;	????	
 216:	7e 00       	.word	0x007e;	????	
 218:	00 00       	.word	0x0000;	????	
 21a:	06 71       	subc	r1,	r6	
 21c:	00 00       	.word	0x0000;	????	
 21e:	00 03       	.word	0x0300;	????	
 220:	2f 00       	.word	0x002f;	????	
 222:	00 00       	.word	0x0000;	????	
 224:	03 28       	jnc	$+8      	;abs 0x22c
 226:	8e 00       	.word	0x008e;	????	
 228:	00 00       	.word	0x0000;	????	
 22a:	07 02       	.word	0x0207;	????	
 22c:	07 00       	.word	0x0007;	????	
 22e:	00 00       	.word	0x0000;	????	
 230:	03 36       	jge	$-1016   	;abs 0xfe38
 232:	00 00       	.word	0x0000;	????	
 234:	00 03       	.word	0x0300;	????	
 236:	66 83       	decd.b	r6		
 238:	00 00       	.word	0x0000;	????	
 23a:	00 08       	.word	0x0800;	????	
 23c:	1a 01       	.word	0x011a;	????	
 23e:	00 00       	.word	0x0000;	????	
 240:	01 2e       	jc	$-1020   	;abs 0xfe44
 242:	01 3a       	jl	$-1020   	;abs 0xfe46
 244:	00 00       	.word	0x0000;	????	
 246:	00 48       	br	r8		
 248:	ca 6a ca 02 	addc.b	r10,	714(r10);0x02ca(r10)
 24c:	71 02       	.word	0x0271;	????	
 24e:	c4 00       	.word	0x00c4;	????	
 250:	00 00       	.word	0x0000;	????	
 252:	09 63       	adc	r9		
 254:	00 01       	.word	0x0100;	????	
 256:	2e 3a       	jl	$-930    	;abs 0xfeb4
	...
 260:	0a 21       	jnz	$+534    	;abs 0x476
 262:	01 00       	.word	0x0001;	????	
 264:	00 01       	.word	0x0100;	????	
 266:	38 01       	.word	0x0138;	????	
 268:	3a 00       	.word	0x003a;	????	
 26a:	00 00       	.word	0x0000;	????	
 26c:	6a ca       	bic.b	@r10,	r10	
 26e:	a6 ca 0b 00 	bic	@r10,	11(r6)	;0x000b(r6)
 272:	00 00       	.word	0x0000;	????	
 274:	25 01       	.word	0x0125;	????	
 276:	00 00       	.word	0x0000;	????	
 278:	09 66       	addc	r6,	r9	
 27a:	6d 74       	subc.b	@r4,	r13	
 27c:	00 01       	.word	0x0100;	????	
 27e:	38 78       	subc	@r8+,	r8	
 280:	00 00       	.word	0x0000;	????	
 282:	00 2f       	jc	$-510    	;abs 0x84
 284:	00 00       	.word	0x0000;	????	
 286:	00 0b       	.word	0x0b00;	????	
 288:	90 00       	.word	0x0090;	????	
 28a:	00 00       	.word	0x0000;	????	
 28c:	01 38       	jl	$+4      	;abs 0x290
 28e:	94 00       	.word	0x0094;	????	
 290:	00 00       	.word	0x0000;	????	
 292:	41 00       	.word	0x0041;	????	
 294:	00 00       	.word	0x0000;	????	
 296:	0c 23       	jnz	$-486    	;abs 0xb0
 298:	00 00       	.word	0x0000;	????	
 29a:	00 01       	.word	0x0100;	????	
 29c:	3a 6b       	addc	@r11+,	r10	
 29e:	00 00       	.word	0x0000;	????	
 2a0:	00 54       	add	r4,	r0	
 2a2:	00 00       	.word	0x0000;	????	
 2a4:	00 0c       	.word	0x0c00;	????	
 2a6:	86 00       	.word	0x0086;	????	
 2a8:	00 00       	.word	0x0000;	????	
 2aa:	01 3b       	jl	$-508    	;abs 0xae
 2ac:	3a 00       	.word	0x003a;	????	
 2ae:	00 00       	.word	0x0000;	????	
 2b0:	68 00       	.word	0x0068;	????	
 2b2:	00 00       	.word	0x0000;	????	
 2b4:	0d 72       	subc	r2,	r13	
 2b6:	63 00       	.word	0x0063;	????	
 2b8:	01 3c       	jmp	$+4      	;abs 0x2bc
 2ba:	3a 00       	.word	0x003a;	????	
 2bc:	00 00       	.word	0x0000;	????	
 2be:	01 5f       	add	r15,	r1	
 2c0:	00 0e       	.word	0x0e00;	????	
 2c2:	01 35       	jge	$+516    	;abs 0x4c6
 2c4:	01 00       	.word	0x0001;	????	
 2c6:	00 01       	.word	0x0100;	????	
 2c8:	48 01       	.word	0x0148;	????	
 2ca:	3a 00       	.word	0x003a;	????	
 2cc:	00 00       	.word	0x0000;	????	
 2ce:	a6 ca c2 ca 	bic	@r10,	-13630(r6);0xcac2(r6)
 2d2:	02 71       	subc	r1,	r2	
 2d4:	02 6a       	addc	r10,	r2	
 2d6:	01 00       	.word	0x0001;	????	
 2d8:	00 0f       	.word	0x0f00;	????	
 2da:	62 75       	subc.b	@r5,	r2	
 2dc:	66 00       	.word	0x0066;	????	
 2de:	01 48       	mov	r8,	r1	
 2e0:	6b 00       	.word	0x006b;	????	
 2e2:	00 00       	.word	0x0000;	????	
 2e4:	02 91       	cmp	r1,	r2	
 2e6:	00 0f       	.word	0x0f00;	????	
 2e8:	66 6d       	addc.b	@r13,	r6	
 2ea:	74 00       	.word	0x0074;	????	
 2ec:	01 48       	mov	r8,	r1	
 2ee:	78 00       	.word	0x0078;	????	
 2f0:	00 00       	.word	0x0000;	????	
 2f2:	02 91       	cmp	r1,	r2	
 2f4:	02 10       	rrc	r2		
 2f6:	11 90 00 00 	cmp	0(r0),	r1	;PC rel. 0x02f8
 2fa:	00 01       	.word	0x0100;	????	
 2fc:	4a 94       	cmp.b	r4,	r10	
 2fe:	00 00       	.word	0x0000;	????	
 300:	00 03       	.word	0x0300;	????	
 302:	91 04       	.word	0x0491;	????	
 304:	9f 00       	.word	0x009f;	????	
 306:	0e 01       	.word	0x010e;	????	
 308:	1a 00       	.word	0x001a;	????	
 30a:	00 00       	.word	0x0000;	????	
 30c:	01 53       	add	#0,	r1	;r3 As==00
 30e:	01 3a       	jl	$-1020   	;abs 0xff12
 310:	00 00       	.word	0x0000;	????	
 312:	00 c2       	bic	r2,	r0	
 314:	ca dc ca 02 	bis.b	r12,	714(r10);0x02ca(r10)
 318:	71 02       	.word	0x0271;	????	
 31a:	bd 01       	.word	0x01bd;	????	
 31c:	00 00       	.word	0x0000;	????	
 31e:	0f 62       	addc	r2,	r15	
 320:	75 66       	addc.b	@r6+,	r5	
 322:	00 01       	.word	0x0100;	????	
 324:	53 6b       	.word	0x6b53;	????	Illegal as 2-op instr
 326:	00 00       	.word	0x0000;	????	
 328:	00 02       	.word	0x0200;	????	
 32a:	91 00       	.word	0x0091;	????	
 32c:	12 2f       	jc	$-474    	;abs 0x152
 32e:	01 00       	.word	0x0001;	????	
 330:	00 01       	.word	0x0100;	????	
 332:	53 28       	jnc	$+168    	;abs 0x3da
 334:	00 00       	.word	0x0000;	????	
 336:	00 02       	.word	0x0200;	????	
 338:	91 02       	.word	0x0291;	????	
 33a:	0f 66       	addc	r6,	r15	
 33c:	6d 74       	subc.b	@r4,	r13	
 33e:	00 01       	.word	0x0100;	????	
 340:	53 78       	.word	0x7853;	????	Illegal as 2-op instr
 342:	00 00       	.word	0x0000;	????	
 344:	00 02       	.word	0x0200;	????	
 346:	91 04       	.word	0x0491;	????	
 348:	10 11 90 00 	rra	144(r0)	;PC rel. 0x03da
 34c:	00 00       	.word	0x0000;	????	
 34e:	01 55       	add	r5,	r1	
 350:	94 00       	.word	0x0094;	????	
 352:	00 00       	.word	0x0000;	????	
 354:	03 91       	.word	0x9103;	????	Illegal as 2-op instr
 356:	06 9f       	cmp	r15,	r6	
 358:	00 0e       	.word	0x0e00;	????	
 35a:	01 34       	jge	$+4      	;abs 0x35e
 35c:	01 00       	.word	0x0001;	????	
 35e:	00 01       	.word	0x0100;	????	
 360:	5e 01       	.word	0x015e;	????	
 362:	3a 00       	.word	0x003a;	????	
 364:	00 00       	.word	0x0000;	????	
 366:	dc ca f2 ca 	bic.b	-13582(r10),28930(r12);0xcaf2(r10), 0x7102(r12)
 36a:	02 71 
 36c:	02 03       	.word	0x0302;	????	
 36e:	02 00       	.word	0x0002;	????	
 370:	00 09       	.word	0x0900;	????	
 372:	62 75       	subc.b	@r5,	r2	
 374:	66 00       	.word	0x0066;	????	
 376:	01 5e       	add	r14,	r1	
 378:	6b 00       	.word	0x006b;	????	
 37a:	00 00       	.word	0x0000;	????	
 37c:	7c 00       	.word	0x007c;	????	
 37e:	00 00       	.word	0x0000;	????	
 380:	09 66       	addc	r6,	r9	
 382:	6d 74       	subc.b	@r4,	r13	
 384:	00 01       	.word	0x0100;	????	
 386:	5e 78 00 00 	subc.b	0(r8),	r14	;0x0000(r8)
 38a:	00 90       	cmp	r0,	r0	
 38c:	00 00       	.word	0x0000;	????	
 38e:	00 0b       	.word	0x0b00;	????	
 390:	90 00       	.word	0x0090;	????	
 392:	00 00       	.word	0x0000;	????	
 394:	01 5e       	add	r14,	r1	
 396:	94 00       	.word	0x0094;	????	
 398:	00 00       	.word	0x0000;	????	
 39a:	a2 00       	.word	0x00a2;	????	
 39c:	00 00       	.word	0x0000;	????	
 39e:	00 0e       	.word	0x0e00;	????	
 3a0:	01 19       	.word	0x1901;	????	
 3a2:	00 00       	.word	0x0000;	????	
 3a4:	00 01       	.word	0x0100;	????	
 3a6:	66 01       	.word	0x0166;	????	
 3a8:	3a 00       	.word	0x003a;	????	
 3aa:	00 00       	.word	0x0000;	????	
 3ac:	f2 ca 04 cb 	bic.b	@r10+,	&0xcb04	
 3b0:	02 71       	subc	r1,	r2	
 3b2:	02 58       	add	r8,	r2	
 3b4:	02 00       	.word	0x0002;	????	
 3b6:	00 09       	.word	0x0900;	????	
 3b8:	62 75       	subc.b	@r5,	r2	
 3ba:	66 00       	.word	0x0066;	????	
 3bc:	01 66       	addc	r6,	r1	
 3be:	6b 00       	.word	0x006b;	????	
 3c0:	00 00       	.word	0x0000;	????	
 3c2:	ad 00       	.word	0x00ad;	????	
 3c4:	00 00       	.word	0x0000;	????	
 3c6:	0b 2f       	jc	$-488    	;abs 0x1de
 3c8:	01 00       	.word	0x0001;	????	
 3ca:	00 01       	.word	0x0100;	????	
 3cc:	66 28       	jnc	$+206    	;abs 0x49a
 3ce:	00 00       	.word	0x0000;	????	
 3d0:	00 c1       	bic	r1,	r0	
 3d2:	00 00       	.word	0x0000;	????	
 3d4:	00 09       	.word	0x0900;	????	
 3d6:	66 6d       	addc.b	@r13,	r6	
 3d8:	74 00       	.word	0x0074;	????	
 3da:	01 66       	addc	r6,	r1	
 3dc:	78 00       	.word	0x0078;	????	
 3de:	00 00       	.word	0x0000;	????	
 3e0:	d5 00       	.word	0x00d5;	????	
 3e2:	00 00       	.word	0x0000;	????	
 3e4:	0b 90       	cmp	r0,	r11	
 3e6:	00 00       	.word	0x0000;	????	
 3e8:	00 01       	.word	0x0100;	????	
 3ea:	66 94       	cmp.b	@r4,	r6	
 3ec:	00 00       	.word	0x0000;	????	
 3ee:	00 e0       	xor	r0,	r0	
 3f0:	00 00       	.word	0x0000;	????	
 3f2:	00 00       	.word	0x0000;	????	
 3f4:	11 ac 00 00 	dadd	0(r12),	r1	;0x0000(r12)
 3f8:	00 01       	.word	0x0100;	????	
 3fa:	28 3a       	jl	$-942    	;abs 0x4c
 3fc:	00 00       	.word	0x0000;	????	
 3fe:	00 03       	.word	0x0300;	????	
 400:	03 04       	.word	0x0403;	????	
 402:	02 11       	rra	r2		
 404:	b7 00       	.word	0x00b7;	????	
 406:	00 00       	.word	0x0000;	????	
 408:	01 2b       	jnc	$-508    	;abs 0x20c
 40a:	6b 00       	.word	0x006b;	????	
 40c:	00 00       	.word	0x0000;	????	
 40e:	03 03       	.word	0x0303;	????	
 410:	02 02       	.word	0x0202;	????	
 412:	00 61       	addc	r1,	r0	
 414:	05 00       	.word	0x0005;	????	
 416:	00 02       	.word	0x0200;	????	
 418:	00 2d       	jc	$+514    	;abs 0x61a
 41a:	01 00       	.word	0x0001;	????	
 41c:	00 02       	.word	0x0200;	????	
 41e:	01 e5       	xor	r5,	r1	
 420:	00 00       	.word	0x0000;	????	
 422:	00 01       	.word	0x0100;	????	
 424:	f3 02       	.word	0x02f3;	????	
 426:	00 00       	.word	0x0000;	????	
 428:	3e 00       	.word	0x003e;	????	
 42a:	00 00       	.word	0x0000;	????	
 42c:	04 cb       	bic	r11,	r4	
 42e:	3a d3       	bis	#-1,	r10	;r3 As==11
 430:	df 01       	.word	0x01df;	????	
 432:	00 00       	.word	0x0000;	????	
 434:	02 04       	.word	0x0402;	????	
 436:	05 c9       	bic	r9,	r5	
 438:	00 00       	.word	0x0000;	????	
 43a:	00 02       	.word	0x0200;	????	
 43c:	02 07       	.word	0x0702;	????	
 43e:	9f 00       	.word	0x009f;	????	
 440:	00 00       	.word	0x0000;	????	
 442:	03 02       	.word	0x0203;	????	
 444:	05 69       	addc	r9,	r5	
 446:	6e 74       	subc.b	@r4,	r14	
 448:	00 02       	.word	0x0200;	????	
 44a:	01 06       	.word	0x0601;	????	
 44c:	67 00       	.word	0x0067;	????	
 44e:	00 00       	.word	0x0000;	????	
 450:	04 67       	addc	r7,	r4	
 452:	02 00       	.word	0x0002;	????	
 454:	00 02       	.word	0x0200;	????	
 456:	27 2f       	jc	$-432    	;abs 0x2a6
 458:	00 00       	.word	0x0000;	????	
 45a:	00 04       	.word	0x0400;	????	
 45c:	54 02       	.word	0x0254;	????	
 45e:	00 00       	.word	0x0000;	????	
 460:	02 28       	jnc	$+6      	;abs 0x466
 462:	21 00       	.word	0x0021;	????	
 464:	00 00       	.word	0x0000;	????	
 466:	04 49       	mov	r9,	r4	
 468:	01 00       	.word	0x0001;	????	
 46a:	00 02       	.word	0x0200;	????	
 46c:	29 5e       	add	@r14,	r9	
 46e:	00 00       	.word	0x0000;	????	
 470:	00 02       	.word	0x0200;	????	
 472:	08 05       	.word	0x0508;	????	
 474:	c4 00       	.word	0x00c4;	????	
 476:	00 00       	.word	0x0000;	????	
 478:	04 89       	sub	r9,	r4	
 47a:	01 00       	.word	0x0001;	????	
 47c:	00 02       	.word	0x0200;	????	
 47e:	2b 70       	subc	@r0,	r11	
 480:	00 00       	.word	0x0000;	????	
 482:	00 02       	.word	0x0200;	????	
 484:	01 08       	.word	0x0801;	????	
 486:	65 00       	.word	0x0065;	????	
 488:	00 00       	.word	0x0000;	????	
 48a:	04 66       	addc	r6,	r4	
 48c:	02 00       	.word	0x0002;	????	
 48e:	00 02       	.word	0x0200;	????	
 490:	2c 28       	jnc	$+90     	;abs 0x4ea
 492:	00 00       	.word	0x0000;	????	
 494:	00 04       	.word	0x0400;	????	
 496:	53 02       	.word	0x0253;	????	
 498:	00 00       	.word	0x0000;	????	
 49a:	02 2d       	jc	$+518    	;abs 0x6a0
 49c:	8d 00       	.word	0x008d;	????	
 49e:	00 00       	.word	0x0000;	????	
 4a0:	02 04       	.word	0x0402;	????	
 4a2:	07 9a       	cmp	r10,	r7	
 4a4:	00 00       	.word	0x0000;	????	
 4a6:	00 04       	.word	0x0400;	????	
 4a8:	48 01       	.word	0x0148;	????	
 4aa:	00 00       	.word	0x0000;	????	
 4ac:	02 2e       	jc	$-1018   	;abs 0xb2
 4ae:	9f 00       	.word	0x009f;	????	
 4b0:	00 00       	.word	0x0000;	????	
 4b2:	02 08       	.word	0x0802;	????	
 4b4:	07 95       	cmp	r5,	r7	
 4b6:	00 00       	.word	0x0000;	????	
 4b8:	00 04       	.word	0x0400;	????	
 4ba:	51 01       	.word	0x0151;	????	
 4bc:	00 00       	.word	0x0000;	????	
 4be:	02 56       	add	r6,	r2	
 4c0:	3d 00       	.word	0x003d;	????	
 4c2:	00 00       	.word	0x0000;	????	
 4c4:	02 02       	.word	0x0202;	????	
 4c6:	07 73       	sbc	r7		
 4c8:	00 00       	.word	0x0000;	????	
 4ca:	00 05       	.word	0x0500;	????	
 4cc:	02 be       	bit	r14,	r2	
 4ce:	00 00       	.word	0x0000;	????	
 4d0:	00 02       	.word	0x0200;	????	
 4d2:	01 06       	.word	0x0601;	????	
 4d4:	6e 00       	.word	0x006e;	????	
 4d6:	00 00       	.word	0x0000;	????	
 4d8:	05 02       	.word	0x0205;	????	
 4da:	cb 00       	.word	0x00cb;	????	
 4dc:	00 00       	.word	0x0000;	????	
 4de:	06 be       	bit	r14,	r6	
 4e0:	00 00       	.word	0x0000;	????	
 4e2:	00 04       	.word	0x0400;	????	
 4e4:	2f 00       	.word	0x002f;	????	
 4e6:	00 00       	.word	0x0000;	????	
 4e8:	03 28       	jnc	$+8      	;abs 0x4f0
 4ea:	db 00       	.word	0x00db;	????	
 4ec:	00 00       	.word	0x0000;	????	
 4ee:	07 02       	.word	0x0207;	????	
 4f0:	07 00       	.word	0x0007;	????	
 4f2:	00 00       	.word	0x0000;	????	
 4f4:	04 36       	jge	$-1014   	;abs 0xfe
 4f6:	00 00       	.word	0x0000;	????	
 4f8:	00 03       	.word	0x0300;	????	
 4fa:	66 d0       	bis.b	@r0,	r6	
 4fc:	00 00       	.word	0x0000;	????	
 4fe:	00 08       	.word	0x0800;	????	
 500:	04 01       	.word	0x0104;	????	
 502:	33 cc       	.word	0xcc33;	????	Illegal as 2-op instr
 504:	01 00       	.word	0x0001;	????	
 506:	00 09       	.word	0x0900;	????	
 508:	5c 02       	.word	0x025c;	????	
 50a:	00 00       	.word	0x0000;	????	
 50c:	01 36       	jge	$-1020   	;abs 0x110
 50e:	65 00       	.word	0x0065;	????	
 510:	00 00       	.word	0x0000;	????	
 512:	01 01       	.word	0x0101;	????	
 514:	07 02       	.word	0x0207;	????	
 516:	23 00       	.word	0x0023;	????	
 518:	09 e0       	xor	r0,	r9	
 51a:	01 00       	.word	0x0001;	????	
 51c:	00 01       	.word	0x0100;	????	
 51e:	39 65       	addc	@r5+,	r9	
 520:	00 00       	.word	0x0000;	????	
 522:	00 01       	.word	0x0100;	????	
 524:	01 06       	.word	0x0601;	????	
 526:	02 23       	jnz	$-506    	;abs 0x32c
 528:	00 09       	.word	0x0900;	????	
 52a:	d7 02       	.word	0x02d7;	????	
 52c:	00 00       	.word	0x0000;	????	
 52e:	01 3b       	jl	$-508    	;abs 0x332
 530:	65 00       	.word	0x0065;	????	
 532:	00 00       	.word	0x0000;	????	
 534:	01 01       	.word	0x0101;	????	
 536:	05 02       	.word	0x0205;	????	
 538:	23 00       	.word	0x0023;	????	
 53a:	09 c2       	bic	r2,	r9	
 53c:	01 00       	.word	0x0001;	????	
 53e:	00 01       	.word	0x0100;	????	
 540:	3c 65       	addc	@r5+,	r12	
 542:	00 00       	.word	0x0000;	????	
 544:	00 01       	.word	0x0100;	????	
 546:	01 04       	.word	0x0401;	????	
 548:	02 23       	jnz	$-506    	;abs 0x34e
 54a:	00 09       	.word	0x0900;	????	
 54c:	29 03       	.word	0x0329;	????	
 54e:	00 00       	.word	0x0000;	????	
 550:	01 3d       	jmp	$+516    	;abs 0x754
 552:	65 00       	.word	0x0065;	????	
 554:	00 00       	.word	0x0000;	????	
 556:	01 01       	.word	0x0101;	????	
 558:	03 02       	.word	0x0203;	????	
 55a:	23 00       	.word	0x0023;	????	
 55c:	09 5f       	add	r15,	r9	
 55e:	01 00       	.word	0x0001;	????	
 560:	00 01       	.word	0x0100;	????	
 562:	3e 65       	addc	@r5+,	r14	
 564:	00 00       	.word	0x0000;	????	
 566:	00 01       	.word	0x0100;	????	
 568:	01 02       	.word	0x0201;	????	
 56a:	02 23       	jnz	$-506    	;abs 0x370
 56c:	00 09       	.word	0x0900;	????	
 56e:	91 01       	.word	0x0191;	????	
 570:	00 00       	.word	0x0000;	????	
 572:	01 3f       	jmp	$-508    	;abs 0x376
 574:	65 00       	.word	0x0065;	????	
 576:	00 00       	.word	0x0000;	????	
 578:	01 01       	.word	0x0101;	????	
 57a:	01 02       	.word	0x0201;	????	
 57c:	23 00       	.word	0x0023;	????	
 57e:	09 e9       	xor	r9,	r9	
 580:	02 00       	.word	0x0002;	????	
 582:	00 01       	.word	0x0100;	????	
 584:	40 65       	addc.b	r5,	r0	
 586:	00 00       	.word	0x0000;	????	
 588:	00 01       	.word	0x0100;	????	
 58a:	01 00       	.word	0x0001;	????	
 58c:	02 23       	jnz	$-506    	;abs 0x392
 58e:	00 09       	.word	0x0900;	????	
 590:	f4 01       	.word	0x01f4;	????	
 592:	00 00       	.word	0x0000;	????	
 594:	01 41       	mov	r1,	r1	
 596:	65 00       	.word	0x0065;	????	
 598:	00 00       	.word	0x0000;	????	
 59a:	01 01       	.word	0x0101;	????	
 59c:	07 02       	.word	0x0207;	????	
 59e:	23 01       	.word	0x0123;	????	
 5a0:	09 fe       	and	r14,	r9	
 5a2:	01 00       	.word	0x0001;	????	
 5a4:	00 01       	.word	0x0100;	????	
 5a6:	42 65       	addc.b	r5,	r2	
 5a8:	00 00       	.word	0x0000;	????	
 5aa:	00 01       	.word	0x0100;	????	
 5ac:	01 06       	.word	0x0601;	????	
 5ae:	02 23       	jnz	$-506    	;abs 0x3b4
 5b0:	01 09       	.word	0x0901;	????	
 5b2:	c4 02       	.word	0x02c4;	????	
 5b4:	00 00       	.word	0x0000;	????	
 5b6:	01 43       	clr	r1		
 5b8:	65 00       	.word	0x0065;	????	
 5ba:	00 00       	.word	0x0000;	????	
 5bc:	01 01       	.word	0x0101;	????	
 5be:	05 02       	.word	0x0205;	????	
 5c0:	23 01       	.word	0x0123;	????	
 5c2:	0a ba       	bit	r10,	r10	
 5c4:	02 00       	.word	0x0002;	????	
 5c6:	00 01       	.word	0x0100;	????	
 5c8:	44 be       	bit.b	r14,	r4	
 5ca:	00 00       	.word	0x0000;	????	
 5cc:	00 02       	.word	0x0200;	????	
 5ce:	23 02       	.word	0x0223;	????	
 5d0:	0a 07       	.word	0x070a;	????	
 5d2:	02 00       	.word	0x0002;	????	
 5d4:	00 01       	.word	0x0100;	????	
 5d6:	45 65       	rlc.b	r5		
 5d8:	00 00       	.word	0x0000;	????	
 5da:	00 02       	.word	0x0200;	????	
 5dc:	23 03       	.word	0x0323;	????	
 5de:	00 04       	.word	0x0400;	????	
 5e0:	e1 02       	.word	0x02e1;	????	
 5e2:	00 00       	.word	0x0000;	????	
 5e4:	01 46       	mov	r6,	r1	
 5e6:	ec 00       	.word	0x00ec;	????	
 5e8:	00 00       	.word	0x0000;	????	
 5ea:	0b 40       	mov	r0,	r11	
 5ec:	03 00       	.word	0x0003;	????	
 5ee:	00 01       	.word	0x0100;	????	
 5f0:	60 01       	.word	0x0160;	????	
 5f2:	2f 00       	.word	0x002f;	????	
 5f4:	00 00       	.word	0x0000;	????	
 5f6:	01 08       	.word	0x0801;	????	
 5f8:	02 00       	.word	0x0002;	????	
 5fa:	00 0c       	.word	0x0c00;	????	
 5fc:	74 02       	.word	0x0274;	????	
 5fe:	00 00       	.word	0x0000;	????	
 600:	01 60       	addc	r0,	r1	
 602:	b8 00       	.word	0x00b8;	????	
 604:	00 00       	.word	0x0000;	????	
 606:	0c 4d       	mov	r13,	r12	
 608:	02 00       	.word	0x0002;	????	
 60a:	00 01       	.word	0x0100;	????	
 60c:	60 cc       	bic.b	@r12,	r0	
 60e:	01 00       	.word	0x0001;	????	
 610:	00 0d       	.word	0x0d00;	????	
 612:	70 00       	.word	0x0070;	????	
 614:	01 62       	addc	r2,	r1	
 616:	b8 00       	.word	0x00b8;	????	
 618:	00 00       	.word	0x0000;	????	
 61a:	00 0e       	.word	0x0e00;	????	
 61c:	29 02       	.word	0x0229;	????	
 61e:	00 00       	.word	0x0000;	????	
 620:	01 7a       	subc	r10,	r1	
 622:	01 2f       	jc	$-508    	;abs 0x426
 624:	00 00       	.word	0x0000;	????	
 626:	00 04       	.word	0x0400;	????	
 628:	cb 9c cc eb 	cmp.b	r12,	-5172(r11);0xebcc(r11)
 62c:	00 00       	.word	0x0000;	????	
 62e:	00 fa       	and	r10,	r0	
 630:	02 00       	.word	0x0002;	????	
 632:	00 0f       	.word	0x0f00;	????	
 634:	7e 01       	.word	0x017e;	????	
 636:	00 00       	.word	0x0000;	????	
 638:	01 7a       	subc	r10,	r1	
 63a:	0a 03       	.word	0x030a;	????	
 63c:	00 00       	.word	0x0000;	????	
 63e:	3f 01       	.word	0x013f;	????	
 640:	00 00       	.word	0x0000;	????	
 642:	0f ac       	dadd	r12,	r15	
 644:	01 00       	.word	0x0001;	????	
 646:	00 01       	.word	0x0100;	????	
 648:	7a c5       	bic.b	@r5+,	r10	
 64a:	00 00       	.word	0x0000;	????	
 64c:	00 51       	add	r1,	r0	
 64e:	01 00       	.word	0x0001;	????	
 650:	00 0f       	.word	0x0f00;	????	
 652:	a4 02       	.word	0x02a4;	????	
 654:	00 00       	.word	0x0000;	????	
 656:	01 7a       	subc	r10,	r1	
 658:	28 00       	.word	0x0028;	????	
 65a:	00 00       	.word	0x0000;	????	
 65c:	64 01       	.word	0x0164;	????	
 65e:	00 00       	.word	0x0000;	????	
 660:	0f 4d       	mov	r13,	r15	
 662:	02 00       	.word	0x0002;	????	
 664:	00 01       	.word	0x0100;	????	
 666:	7b cc       	bic.b	@r12+,	r11	
 668:	01 00       	.word	0x0001;	????	
 66a:	00 76       	subc	r6,	r0	
 66c:	01 00       	.word	0x0001;	????	
 66e:	00 10       	rrc	r0		
 670:	0d 03       	.word	0x030d;	????	
 672:	00 00       	.word	0x0000;	????	
 674:	01 7d       	subc	r13,	r1	
 676:	2f 00       	.word	0x002f;	????	
 678:	00 00       	.word	0x0000;	????	
 67a:	e5 01       	.word	0x01e5;	????	
 67c:	00 00       	.word	0x0000;	????	
 67e:	11 74 02 00 	subc	2(r4),	r1	;0x0002(r4)
 682:	00 01       	.word	0x0100;	????	
 684:	7e 10       	rrc.b	@r14+		
 686:	03 00       	.word	0x0003;	????	
 688:	00 02       	.word	0x0200;	????	
 68a:	91 66 10 42 	addc	16912(r6),2(r1)	;0x4210(r6), 0x0002(r1)
 68e:	02 00 
 690:	00 01       	.word	0x0100;	????	
 692:	7f 2f       	jc	$-256    	;abs 0x592
 694:	00 00       	.word	0x0000;	????	
 696:	00 15       	.word	0x1500;	????	
 698:	02 00       	.word	0x0002;	????	
 69a:	00 10       	rrc	r0		
 69c:	c4 02       	.word	0x02c4;	????	
 69e:	00 00       	.word	0x0000;	????	
 6a0:	01 80       	sub	r0,	r1	
 6a2:	28 00       	.word	0x0028;	????	
 6a4:	00 00       	.word	0x0000;	????	
 6a6:	4d 02       	.word	0x024d;	????	
 6a8:	00 00       	.word	0x0000;	????	
 6aa:	11 a1 01 00 	dadd	1(r1),	r1	;0x0001(r1)
 6ae:	00 01       	.word	0x0100;	????	
 6b0:	81 2f       	jc	$-252    	;abs 0x5b4
 6b2:	00 00       	.word	0x0000;	????	
 6b4:	00 01       	.word	0x0100;	????	
 6b6:	5a 12 d7 01 	push.b	471(r10)	;0x01d7(r10)
 6ba:	00 00       	.word	0x0000;	????	
 6bc:	2e cb       	bic	@r11,	r14	
 6be:	94 cb 01 81 	bic	-32511(r11),725(r4)	;0x8101(r11), 0x02d5(r4)
 6c2:	d5 02 
 6c4:	00 00       	.word	0x0000;	????	
 6c6:	13 f3       	.word	0xf313;	????	Illegal as 2-op instr
 6c8:	01 00       	.word	0x0001;	????	
 6ca:	00 78       	subc	r8,	r0	
 6cc:	02 00       	.word	0x0002;	????	
 6ce:	00 13       	reti			
 6d0:	e8 01       	.word	0x01e8;	????	
 6d2:	00 00       	.word	0x0000;	????	
 6d4:	af 02       	.word	0x02af;	????	
 6d6:	00 00       	.word	0x0000;	????	
 6d8:	14 2e       	jc	$-982    	;abs 0x302
 6da:	cb 94 cb 15 	cmp.b	r4,	5579(r11);0x15cb(r11)
 6de:	fe 01       	.word	0x01fe;	????	
 6e0:	00 00       	.word	0x0000;	????	
 6e2:	c3 02       	.word	0x02c3;	????	
 6e4:	00 00       	.word	0x0000;	????	
 6e6:	00 00       	.word	0x0000;	????	
 6e8:	14 ae cb 26 	dadd	9931(r14),r4	;0x26cb(r14)
 6ec:	cc 10       	.word	0x10cc;	????	
 6ee:	71 01       	.word	0x0171;	????	
 6f0:	00 00       	.word	0x0000;	????	
 6f2:	01 89       	sub	r9,	r1	
 6f4:	be 00       	.word	0x00be;	????	
 6f6:	00 00       	.word	0x0000;	????	
 6f8:	15 03       	.word	0x0315;	????	
 6fa:	00 00       	.word	0x0000;	????	
 6fc:	16 6c 65 6e 	addc	28261(r12),r6	;0x6e65(r12)
 700:	00 01       	.word	0x0100;	????	
 702:	8a 28       	jnc	$+278    	;abs 0x818
 704:	00 00       	.word	0x0000;	????	
 706:	00 2a       	jnc	$-1022   	;abs 0x308
 708:	03 00       	.word	0x0003;	????	
 70a:	00 00       	.word	0x0000;	????	
 70c:	00 17       	.word	0x1700;	????	
 70e:	01 2f       	jc	$-508    	;abs 0x512
 710:	00 00       	.word	0x0000;	????	
 712:	00 0a       	.word	0x0a00;	????	
 714:	03 00       	.word	0x0003;	????	
 716:	00 18       	.word	0x1800;	????	
 718:	2f 00       	.word	0x002f;	????	
 71a:	00 00       	.word	0x0000;	????	
 71c:	00 05       	.word	0x0500;	????	
 71e:	02 fa       	and	r10,	r2	
 720:	02 00       	.word	0x0002;	????	
 722:	00 19       	.word	0x1900;	????	
 724:	be 00       	.word	0x00be;	????	
 726:	00 00       	.word	0x0000;	????	
 728:	20 03       	.word	0x0320;	????	
 72a:	00 00       	.word	0x0000;	????	
 72c:	1a 28       	jnc	$+54     	;abs 0x762
 72e:	00 00       	.word	0x0000;	????	
 730:	00 01       	.word	0x0100;	????	
 732:	00 1b       	.word	0x1b00;	????	
 734:	01 26       	jz	$-1020   	;abs 0x338
 736:	01 00       	.word	0x0001;	????	
 738:	00 01       	.word	0x0100;	????	
 73a:	f9 01       	.word	0x01f9;	????	
 73c:	2f 00       	.word	0x002f;	????	
 73e:	00 00       	.word	0x0000;	????	
 740:	9c cc 3a d3 	bic	-11462(r12),828(r12);0xd33a(r12), 0x033c(r12)
 744:	3c 03 
 746:	00 00       	.word	0x0000;	????	
 748:	51 05       	.word	0x0551;	????	
 74a:	00 00       	.word	0x0000;	????	
 74c:	0f 7e       	subc	r14,	r15	
 74e:	01 00       	.word	0x0001;	????	
 750:	00 01       	.word	0x0100;	????	
 752:	f9 0a       	.word	0x0af9;	????	
 754:	03 00       	.word	0x0003;	????	
 756:	00 d9       	bis	r9,	r0	
 758:	03 00       	.word	0x0003;	????	
 75a:	00 0f       	.word	0x0f00;	????	
 75c:	41 01       	.word	0x0141;	????	
 75e:	00 00       	.word	0x0000;	????	
 760:	01 f9       	and	r9,	r1	
 762:	c5 00       	.word	0x00c5;	????	
 764:	00 00       	.word	0x0000;	????	
 766:	ec 03       	.word	0x03ec;	????	
 768:	00 00       	.word	0x0000;	????	
 76a:	0f 6f       	rlc	r15		
 76c:	02 00       	.word	0x0002;	????	
 76e:	00 01       	.word	0x0100;	????	
 770:	f9 e1 00 00 	xor.b	@r1+,	0(r9)	;0x0000(r9)
 774:	00 18       	.word	0x1800;	????	
 776:	04 00       	.word	0x0004;	????	
 778:	00 10       	rrc	r0		
 77a:	0d 03       	.word	0x030d;	????	
 77c:	00 00       	.word	0x0000;	????	
 77e:	01 fb       	and	r11,	r1	
 780:	2f 00       	.word	0x002f;	????	
 782:	00 00       	.word	0x0000;	????	
 784:	a8 04       	.word	0x04a8;	????	
 786:	00 00       	.word	0x0000;	????	
 788:	1c 02       	.word	0x021c;	????	
 78a:	01 fd       	and	r13,	r1	
 78c:	8a 03       	.word	0x038a;	????	
 78e:	00 00       	.word	0x0000;	????	
 790:	1d b3       	bit	#1,	r13	;r3 As==01
 792:	01 00       	.word	0x0001;	????	
 794:	00 00       	.word	0x0000;	????	
 796:	1d 1f       	.word	0x1f1d;	????	
 798:	02 00       	.word	0x0002;	????	
 79a:	00 01       	.word	0x0100;	????	
 79c:	00 10       	rrc	r0		
 79e:	5a 01       	.word	0x015a;	????	
 7a0:	00 00       	.word	0x0000;	????	
 7a2:	01 fd       	and	r13,	r1	
 7a4:	75 03       	.word	0x0375;	????	
 7a6:	00 00       	.word	0x0000;	????	
 7a8:	d2 04       	.word	0x04d2;	????	
 7aa:	00 00       	.word	0x0000;	????	
 7ac:	10 16       	.word	0x1610;	????	
 7ae:	02 00       	.word	0x0002;	????	
 7b0:	00 01       	.word	0x0100;	????	
 7b2:	fe 28       	jnc	$+510    	;abs 0x9b0
 7b4:	00 00       	.word	0x0000;	????	
 7b6:	00 3d       	jmp	$+514    	;abs 0x9b8
 7b8:	05 00       	.word	0x0005;	????	
 7ba:	00 10       	rrc	r0		
 7bc:	a4 02       	.word	0x02a4;	????	
 7be:	00 00       	.word	0x0000;	????	
 7c0:	01 ff       	and	r15,	r1	
 7c2:	28 00       	.word	0x0028;	????	
 7c4:	00 00       	.word	0x0000;	????	
 7c6:	8d 05       	.word	0x058d;	????	
 7c8:	00 00       	.word	0x0000;	????	
 7ca:	1e 4d 02 00 	mov	2(r13),	r14	;0x0002(r13)
 7ce:	00 01       	.word	0x0100;	????	
 7d0:	00 01       	.word	0x0100;	????	
 7d2:	cc 01       	.word	0x01cc;	????	
 7d4:	00 00       	.word	0x0000;	????	
 7d6:	03 91       	.word	0x9103;	????	Illegal as 2-op instr
 7d8:	a4 7f 1f ea 	subc	@r15,	-5601(r4);0xea1f(r4)
 7dc:	01 00       	.word	0x0001;	????	
 7de:	00 01       	.word	0x0100;	????	
 7e0:	01 01       	.word	0x0101;	????	
 7e2:	c5 00       	.word	0x00c5;	????	
 7e4:	00 00       	.word	0x0000;	????	
 7e6:	b9 05       	.word	0x05b9;	????	
 7e8:	00 00       	.word	0x0000;	????	
 7ea:	1f ac 01 00 	dadd	1(r12),	r15	;0x0001(r12)
 7ee:	00 01       	.word	0x0100;	????	
 7f0:	02 01       	.word	0x0102;	????	
 7f2:	b8 00       	.word	0x00b8;	????	
 7f4:	00 00       	.word	0x0000;	????	
 7f6:	08 06       	.word	0x0608;	????	
 7f8:	00 00       	.word	0x0000;	????	
 7fa:	1f b0 02 00 	bit	2(r0),	r15	;PC rel. 0x07fe
 7fe:	00 01       	.word	0x0100;	????	
 800:	03 01       	.word	0x0103;	????	
 802:	be 00       	.word	0x00be;	????	
 804:	00 00       	.word	0x0000;	????	
 806:	5a 06       	.word	0x065a;	????	
 808:	00 00       	.word	0x0000;	????	
 80a:	1f 82 02 00 	sub	&0x0002,r15	
 80e:	00 01       	.word	0x0100;	????	
 810:	04 01       	.word	0x0104;	????	
 812:	2f 00       	.word	0x002f;	????	
 814:	00 00       	.word	0x0000;	????	
 816:	d5 06       	.word	0x06d5;	????	
 818:	00 00       	.word	0x0000;	????	
 81a:	1f 11 02 00 	rra	2(r15)		;0x0002(r15)
 81e:	00 01       	.word	0x0100;	????	
 820:	05 01       	.word	0x0105;	????	
 822:	51 05       	.word	0x0551;	????	
 824:	00 00       	.word	0x0000;	????	
 826:	e9 06       	.word	0x06e9;	????	
 828:	00 00       	.word	0x0000;	????	
 82a:	1f 88 02 00 	sub	2(r8),	r15	;0x0002(r8)
 82e:	00 01       	.word	0x0100;	????	
 830:	06 01       	.word	0x0106;	????	
 832:	51 05       	.word	0x0551;	????	
 834:	00 00       	.word	0x0000;	????	
 836:	25 07       	.word	0x0725;	????	
 838:	00 00       	.word	0x0000;	????	
 83a:	1f ba 01 00 	bit	1(r10),	r15	;0x0001(r10)
 83e:	00 01       	.word	0x0100;	????	
 840:	07 01       	.word	0x0107;	????	
 842:	51 05       	.word	0x0551;	????	
 844:	00 00       	.word	0x0000;	????	
 846:	51 07       	.word	0x0751;	????	
 848:	00 00       	.word	0x0000;	????	
 84a:	1f d4 01 00 	bis	1(r4),	r15	;0x0001(r4)
 84e:	00 01       	.word	0x0100;	????	
 850:	08 01       	.word	0x0108;	????	
 852:	51 05       	.word	0x0551;	????	
 854:	00 00       	.word	0x0000;	????	
 856:	7d 07       	.word	0x077d;	????	
 858:	00 00       	.word	0x0000;	????	
 85a:	20 08       	.word	0x0820;	????	
 85c:	01 09       	.word	0x0901;	????	
 85e:	01 81       	sub	r1,	r1	
 860:	04 00       	.word	0x0004;	????	
 862:	00 21       	jnz	$+514    	;abs 0xa64
 864:	69 31       	jn	$+724    	;abs 0xb38
 866:	36 00       	.word	0x0036;	????	
 868:	01 0b       	.word	0x0b01;	????	
 86a:	01 3d       	jmp	$+516    	;abs 0xa6e
 86c:	00 00       	.word	0x0000;	????	
 86e:	00 21       	jnz	$+514    	;abs 0xa70
 870:	70 74       	subc.b	@r4+,	r0	
 872:	72 00       	.word	0x0072;	????	
 874:	01 0c       	.word	0x0c01;	????	
 876:	01 a6       	dadd	r6,	r1	
 878:	00 00       	.word	0x0000;	????	
 87a:	00 21       	jnz	$+514    	;abs 0xa7c
 87c:	69 33       	jn	$-300    	;abs 0x750
 87e:	32 00       	.word	0x0032;	????	
 880:	01 0e       	.word	0x0e01;	????	
 882:	01 48       	mov	r8,	r1	
 884:	00 00       	.word	0x0000;	????	
 886:	00 21       	jnz	$+514    	;abs 0xa88
 888:	69 36       	jge	$-812    	;abs 0x55c
 88a:	34 00       	.word	0x0034;	????	
 88c:	01 11       	rra	r1		
 88e:	01 53       	add	#0,	r1	;r3 As==00
 890:	00 00       	.word	0x0000;	????	
 892:	00 00       	.word	0x0000;	????	
 894:	1e 3b       	jl	$-450    	;abs 0x6d2
 896:	02 00       	.word	0x0002;	????	
 898:	00 01       	.word	0x0100;	????	
 89a:	13 01       	.word	0x0113;	????	
 89c:	47 04       	.word	0x0447;	????	
 89e:	00 00       	.word	0x0000;	????	
 8a0:	02 71       	subc	r1,	r2	
 8a2:	1e 1e       	.word	0x1e1e;	????	
 8a4:	7b 02       	.word	0x027b;	????	
 8a6:	00 00       	.word	0x0000;	????	
 8a8:	01 14       	.word	0x1401;	????	
 8aa:	01 58       	add	r8,	r1	
 8ac:	05 00       	.word	0x0005;	????	
 8ae:	00 03       	.word	0x0300;	????	
 8b0:	91 a8 7f 22 	dadd	8831(r8),682(r1)	;0x227f(r8), 0x02aa(r1)
 8b4:	aa 02 
 8b6:	00 00       	.word	0x0000;	????	
 8b8:	01 26       	jz	$-1020   	;abs 0x4bc
 8ba:	01 20       	jnz	$+4      	;abs 0x8be
 8bc:	cd 22       	jnz	$-612    	;abs 0x658
 8be:	3d 01       	.word	0x013d;	????	
 8c0:	00 00       	.word	0x0000;	????	
 8c2:	01 42       	mov	r2,	r1	
 8c4:	02 ca       	bic	r10,	r2	
 8c6:	cd 22       	jnz	$-612    	;abs 0x662
 8c8:	1d 03       	.word	0x031d;	????	
 8ca:	00 00       	.word	0x0000;	????	
 8cc:	01 a7       	dadd	r7,	r1	
 8ce:	01 e6       	xor	r6,	r1	
 8d0:	ce 22       	jnz	$-610    	;abs 0x66e
 8d2:	34 03       	.word	0x0334;	????	
 8d4:	00 00       	.word	0x0000;	????	
 8d6:	01 f2       	and	r2,	r1	
 8d8:	01 02       	.word	0x0201;	????	
 8da:	d0 22       	jnz	$-606    	;abs 0x67c
 8dc:	35 02       	.word	0x0235;	????	
 8de:	00 00       	.word	0x0000;	????	
 8e0:	01 d8       	bis	r8,	r1	
 8e2:	01 74       	subc	r4,	r1	
 8e4:	cf 23       	jnz	$-96     	;abs 0x884
 8e6:	00 00       	.word	0x0000;	????	
 8e8:	00 00       	.word	0x0000;	????	
 8ea:	ec 04       	.word	0x04ec;	????	
 8ec:	00 00       	.word	0x0000;	????	
 8ee:	1f 9d 02 00 	cmp	2(r13),	r15	;0x0002(r13)
 8f2:	00 01       	.word	0x0100;	????	
 8f4:	33 02       	.word	0x0233;	????	
 8f6:	2f 00       	.word	0x002f;	????	
 8f8:	00 00       	.word	0x0000;	????	
 8fa:	a9 07       	.word	0x07a9;	????	
 8fc:	00 00       	.word	0x0000;	????	
 8fe:	00 23       	jnz	$-510    	;abs 0x700
 900:	0c 00       	.word	0x000c;	????	
 902:	00 00       	.word	0x0000;	????	
 904:	06 05       	.word	0x0506;	????	
 906:	00 00       	.word	0x0000;	????	
 908:	24 76       	subc	@r6,	r4	
 90a:	61 6c       	addc.b	@r12,	r1	
 90c:	00 01       	.word	0x0100;	????	
 90e:	6f 01       	.word	0x016f;	????	
 910:	2f 00       	.word	0x002f;	????	
 912:	00 00       	.word	0x0000;	????	
 914:	b4 07       	.word	0x07b4;	????	
 916:	00 00       	.word	0x0000;	????	
 918:	00 25       	jz	$+514    	;abs 0xb1a
 91a:	b4 d0 4c d1 	bis	#-11956,1312(r4);#0xd14c, 0x0520(r4)
 91e:	20 05 
 920:	00 00       	.word	0x0000;	????	
 922:	1f 07       	.word	0x071f;	????	
 924:	03 00       	.word	0x0003;	????	
 926:	00 01       	.word	0x0100;	????	
 928:	20 02       	.word	0x0220;	????	
 92a:	2f 00       	.word	0x002f;	????	
 92c:	00 00       	.word	0x0000;	????	
 92e:	cf 07       	.word	0x07cf;	????	
 930:	00 00       	.word	0x0000;	????	
 932:	00 25       	jz	$+514    	;abs 0xb34
 934:	80 d1 dc d1 	bis	r1,	-11812(r0);PC rel. 0xdb12
 938:	3a 05       	.word	0x053a;	????	
 93a:	00 00       	.word	0x0000;	????	
 93c:	1f 07       	.word	0x071f;	????	
 93e:	03 00       	.word	0x0003;	????	
 940:	00 01       	.word	0x0100;	????	
 942:	25 02       	.word	0x0225;	????	
 944:	2f 00       	.word	0x002f;	????	
 946:	00 00       	.word	0x0000;	????	
 948:	da 07       	.word	0x07da;	????	
 94a:	00 00       	.word	0x0000;	????	
 94c:	00 14       	.word	0x1400;	????	
 94e:	f8 d1 3e d2 	bis.b	@r1+,	-11714(r8);0xd23e(r8)
 952:	1f 07       	.word	0x071f;	????	
 954:	03 00       	.word	0x0003;	????	
 956:	00 01       	.word	0x0100;	????	
 958:	28 02       	.word	0x0228;	????	
 95a:	2f 00       	.word	0x002f;	????	
 95c:	00 00       	.word	0x0000;	????	
 95e:	e5 07       	.word	0x07e5;	????	
 960:	00 00       	.word	0x0000;	????	
 962:	00 00       	.word	0x0000;	????	
 964:	02 01       	.word	0x0102;	????	
 966:	02 97       	cmp	r7,	r2	
 968:	02 00       	.word	0x0002;	????	
 96a:	00 26       	jz	$-1022   	;abs 0x56c
 96c:	be 00       	.word	0x00be;	????	
 96e:	00 00       	.word	0x0000;	????	
 970:	1a 28       	jnc	$+54     	;abs 0x9a6
 972:	00 00       	.word	0x0000;	????	
 974:	00 17       	.word	0x1700;	????	
 976:	00 00       	.word	0x0000;	????	
 978:	ca 00       	.word	0x00ca;	????	
 97a:	00 00       	.word	0x0000;	????	
 97c:	02 00       	.word	0x0002;	????	
 97e:	1c 03       	.word	0x031c;	????	
 980:	00 00       	.word	0x0000;	????	
 982:	02 01       	.word	0x0102;	????	
 984:	b1 04       	.word	0x04b1;	????	
 986:	00 00       	.word	0x0000;	????	
 988:	3a d3       	bis	#-1,	r10	;r3 As==11
 98a:	7a d3       	bis.b	#-1,	r10	;r3 As==11
 98c:	2f 62       	addc	#4,	r15	;r2 As==10
 98e:	75 69       	addc.b	@r9+,	r5	
 990:	6c 64       	addc.b	@r4,	r12	
 992:	2f 62       	addc	#4,	r15	;r2 As==10
 994:	75 69       	addc.b	@r9+,	r5	
 996:	6c 64       	addc.b	@r4,	r12	
 998:	64 2f       	jc	$-310    	;abs 0x862
 99a:	67 63       	addc.b	#2,	r7	;r3 As==10
 99c:	63 2d       	jc	$+712    	;abs 0xc64
 99e:	6d 73       	subc.b	#2,	r13	;r3 As==10
 9a0:	70 34       	jge	$+226    	;abs 0xa82
 9a2:	33 30       	jn	$+104    	;abs 0xa0a
 9a4:	2d 34       	jge	$+92     	;abs 0xa00
 9a6:	2e 36       	jge	$-930    	;abs 0x604
 9a8:	2e 33       	jn	$-418    	;abs 0x806
 9aa:	7e 6d       	addc.b	@r13+,	r14	
 9ac:	73 70       	.word	0x7073;	????	Illegal as 2-op instr
 9ae:	67 63       	addc.b	#2,	r7	;r3 As==10
 9b0:	63 2d       	jc	$+712    	;abs 0xc78
 9b2:	32 30       	jn	$+102    	;abs 0xa18
 9b4:	31 32       	jn	$-924    	;abs 0x618
 9b6:	30 34       	jge	$+98     	;abs 0xa18
 9b8:	30 36       	jge	$-926    	;abs 0x61a
 9ba:	2f 2e       	jc	$-928    	;abs 0x61a
 9bc:	2f 67       	addc	@r7,	r15	
 9be:	63 63       	.word	0x6363;	????	Illegal as 2-op instr
 9c0:	2d 34       	jge	$+92     	;abs 0xa1c
 9c2:	2e 36       	jge	$-930    	;abs 0x620
 9c4:	2e 33       	jn	$-418    	;abs 0x822
 9c6:	2f 6c       	addc	@r12,	r15	
 9c8:	69 62       	addc.b	#4,	r9	;r2 As==10
 9ca:	67 63       	addc.b	#2,	r7	;r3 As==10
 9cc:	63 2f       	jc	$-312    	;abs 0x894
 9ce:	2e 2e       	jc	$-930    	;abs 0x62c
 9d0:	2f 67       	addc	@r7,	r15	
 9d2:	63 63       	.word	0x6363;	????	Illegal as 2-op instr
 9d4:	2f 63       	addc	#2,	r15	;r3 As==10
 9d6:	6f 6e       	addc.b	@r14,	r15	
 9d8:	66 69       	addc.b	@r9,	r6	
 9da:	67 2f       	jc	$-304    	;abs 0x8aa
 9dc:	6d 73       	subc.b	#2,	r13	;r3 As==10
 9de:	70 34       	jge	$+226    	;abs 0xac0
 9e0:	33 30       	jn	$+104    	;abs 0xa48
 9e2:	2f 6c       	addc	@r12,	r15	
 9e4:	69 62       	addc.b	#4,	r9	;r2 As==10
 9e6:	67 63       	addc.b	#2,	r7	;r3 As==10
 9e8:	63 2e       	jc	$-824    	;abs 0x6b0
 9ea:	53 00       	.word	0x0053;	????	
 9ec:	2f 62       	addc	#4,	r15	;r2 As==10
 9ee:	75 69       	addc.b	@r9+,	r5	
 9f0:	6c 64       	addc.b	@r4,	r12	
 9f2:	2f 62       	addc	#4,	r15	;r2 As==10
 9f4:	75 69       	addc.b	@r9+,	r5	
 9f6:	6c 64       	addc.b	@r4,	r12	
 9f8:	64 2f       	jc	$-310    	;abs 0x8c2
 9fa:	67 63       	addc.b	#2,	r7	;r3 As==10
 9fc:	63 2d       	jc	$+712    	;abs 0xcc4
 9fe:	6d 73       	subc.b	#2,	r13	;r3 As==10
 a00:	70 34       	jge	$+226    	;abs 0xae2
 a02:	33 30       	jn	$+104    	;abs 0xa6a
 a04:	2d 34       	jge	$+92     	;abs 0xa60
 a06:	2e 36       	jge	$-930    	;abs 0x664
 a08:	2e 33       	jn	$-418    	;abs 0x866
 a0a:	7e 6d       	addc.b	@r13+,	r14	
 a0c:	73 70       	.word	0x7073;	????	Illegal as 2-op instr
 a0e:	67 63       	addc.b	#2,	r7	;r3 As==10
 a10:	63 2d       	jc	$+712    	;abs 0xcd8
 a12:	32 30       	jn	$+102    	;abs 0xa78
 a14:	31 32       	jn	$-924    	;abs 0x678
 a16:	30 34       	jge	$+98     	;abs 0xa78
 a18:	30 36       	jge	$-926    	;abs 0x67a
 a1a:	2f 62       	addc	#4,	r15	;r2 As==10
 a1c:	75 69       	addc.b	@r9+,	r5	
 a1e:	6c 64       	addc.b	@r4,	r12	
 a20:	2d 72       	subc	#4,	r13	;r2 As==10
 a22:	65 73       	subc.b	#2,	r5	;r3 As==10
 a24:	75 6c       	addc.b	@r12+,	r5	
 a26:	74 2f       	jc	$-278    	;abs 0x910
 a28:	6d 73       	subc.b	#2,	r13	;r3 As==10
 a2a:	70 34       	jge	$+226    	;abs 0xb0c
 a2c:	33 30       	jn	$+104    	;abs 0xa94
 a2e:	2f 6c       	addc	@r12,	r15	
 a30:	69 62       	addc.b	#4,	r9	;r2 As==10
 a32:	67 63       	addc.b	#2,	r7	;r3 As==10
 a34:	63 00       	.word	0x0063;	????	
 a36:	47 4e       	mov.b	r14,	r7	
 a38:	55 20       	jnz	$+172    	;abs 0xae4
 a3a:	41 53       	add.b	#0,	r1	;r3 As==00
 a3c:	20 32       	jn	$-958    	;abs 0x67e
 a3e:	2e 32       	jn	$-930    	;abs 0x69c
 a40:	31 2e       	jc	$-924    	;abs 0x6a4
 a42:	31 00       	.word	0x0031;	????	
 a44:	01 80       	sub	r0,	r1	
 a46:	ca 00       	.word	0x00ca;	????	
 a48:	00 00       	.word	0x0000;	????	
 a4a:	02 00       	.word	0x0002;	????	
 a4c:	30 03       	.word	0x0330;	????	
 a4e:	00 00       	.word	0x0000;	????	
 a50:	02 01       	.word	0x0102;	????	
 a52:	5c 05       	.word	0x055c;	????	
 a54:	00 00       	.word	0x0000;	????	
 a56:	7a d3       	bis.b	#-1,	r10	;r3 As==11
 a58:	6a d4       	bis.b	@r4,	r10	
 a5a:	2f 62       	addc	#4,	r15	;r2 As==10
 a5c:	75 69       	addc.b	@r9+,	r5	
 a5e:	6c 64       	addc.b	@r4,	r12	
 a60:	2f 62       	addc	#4,	r15	;r2 As==10
 a62:	75 69       	addc.b	@r9+,	r5	
 a64:	6c 64       	addc.b	@r4,	r12	
 a66:	64 2f       	jc	$-310    	;abs 0x930
 a68:	67 63       	addc.b	#2,	r7	;r3 As==10
 a6a:	63 2d       	jc	$+712    	;abs 0xd32
 a6c:	6d 73       	subc.b	#2,	r13	;r3 As==10
 a6e:	70 34       	jge	$+226    	;abs 0xb50
 a70:	33 30       	jn	$+104    	;abs 0xad8
 a72:	2d 34       	jge	$+92     	;abs 0xace
 a74:	2e 36       	jge	$-930    	;abs 0x6d2
 a76:	2e 33       	jn	$-418    	;abs 0x8d4
 a78:	7e 6d       	addc.b	@r13+,	r14	
 a7a:	73 70       	.word	0x7073;	????	Illegal as 2-op instr
 a7c:	67 63       	addc.b	#2,	r7	;r3 As==10
 a7e:	63 2d       	jc	$+712    	;abs 0xd46
 a80:	32 30       	jn	$+102    	;abs 0xae6
 a82:	31 32       	jn	$-924    	;abs 0x6e6
 a84:	30 34       	jge	$+98     	;abs 0xae6
 a86:	30 36       	jge	$-926    	;abs 0x6e8
 a88:	2f 2e       	jc	$-928    	;abs 0x6e8
 a8a:	2f 67       	addc	@r7,	r15	
 a8c:	63 63       	.word	0x6363;	????	Illegal as 2-op instr
 a8e:	2d 34       	jge	$+92     	;abs 0xaea
 a90:	2e 36       	jge	$-930    	;abs 0x6ee
 a92:	2e 33       	jn	$-418    	;abs 0x8f0
 a94:	2f 6c       	addc	@r12,	r15	
 a96:	69 62       	addc.b	#4,	r9	;r2 As==10
 a98:	67 63       	addc.b	#2,	r7	;r3 As==10
 a9a:	63 2f       	jc	$-312    	;abs 0x962
 a9c:	2e 2e       	jc	$-930    	;abs 0x6fa
 a9e:	2f 67       	addc	@r7,	r15	
 aa0:	63 63       	.word	0x6363;	????	Illegal as 2-op instr
 aa2:	2f 63       	addc	#2,	r15	;r3 As==10
 aa4:	6f 6e       	addc.b	@r14,	r15	
 aa6:	66 69       	addc.b	@r9,	r6	
 aa8:	67 2f       	jc	$-304    	;abs 0x978
 aaa:	6d 73       	subc.b	#2,	r13	;r3 As==10
 aac:	70 34       	jge	$+226    	;abs 0xb8e
 aae:	33 30       	jn	$+104    	;abs 0xb16
 ab0:	2f 6c       	addc	@r12,	r15	
 ab2:	69 62       	addc.b	#4,	r9	;r2 As==10
 ab4:	67 63       	addc.b	#2,	r7	;r3 As==10
 ab6:	63 2e       	jc	$-824    	;abs 0x77e
 ab8:	53 00       	.word	0x0053;	????	
 aba:	2f 62       	addc	#4,	r15	;r2 As==10
 abc:	75 69       	addc.b	@r9+,	r5	
 abe:	6c 64       	addc.b	@r4,	r12	
 ac0:	2f 62       	addc	#4,	r15	;r2 As==10
 ac2:	75 69       	addc.b	@r9+,	r5	
 ac4:	6c 64       	addc.b	@r4,	r12	
 ac6:	64 2f       	jc	$-310    	;abs 0x990
 ac8:	67 63       	addc.b	#2,	r7	;r3 As==10
 aca:	63 2d       	jc	$+712    	;abs 0xd92
 acc:	6d 73       	subc.b	#2,	r13	;r3 As==10
 ace:	70 34       	jge	$+226    	;abs 0xbb0
 ad0:	33 30       	jn	$+104    	;abs 0xb38
 ad2:	2d 34       	jge	$+92     	;abs 0xb2e
 ad4:	2e 36       	jge	$-930    	;abs 0x732
 ad6:	2e 33       	jn	$-418    	;abs 0x934
 ad8:	7e 6d       	addc.b	@r13+,	r14	
 ada:	73 70       	.word	0x7073;	????	Illegal as 2-op instr
 adc:	67 63       	addc.b	#2,	r7	;r3 As==10
 ade:	63 2d       	jc	$+712    	;abs 0xda6
 ae0:	32 30       	jn	$+102    	;abs 0xb46
 ae2:	31 32       	jn	$-924    	;abs 0x746
 ae4:	30 34       	jge	$+98     	;abs 0xb46
 ae6:	30 36       	jge	$-926    	;abs 0x748
 ae8:	2f 62       	addc	#4,	r15	;r2 As==10
 aea:	75 69       	addc.b	@r9+,	r5	
 aec:	6c 64       	addc.b	@r4,	r12	
 aee:	2d 72       	subc	#4,	r13	;r2 As==10
 af0:	65 73       	subc.b	#2,	r5	;r3 As==10
 af2:	75 6c       	addc.b	@r12+,	r5	
 af4:	74 2f       	jc	$-278    	;abs 0x9de
 af6:	6d 73       	subc.b	#2,	r13	;r3 As==10
 af8:	70 34       	jge	$+226    	;abs 0xbda
 afa:	33 30       	jn	$+104    	;abs 0xb62
 afc:	2f 6c       	addc	@r12,	r15	
 afe:	69 62       	addc.b	#4,	r9	;r2 As==10
 b00:	67 63       	addc.b	#2,	r7	;r3 As==10
 b02:	63 00       	.word	0x0063;	????	
 b04:	47 4e       	mov.b	r14,	r7	
 b06:	55 20       	jnz	$+172    	;abs 0xbb2
 b08:	41 53       	add.b	#0,	r1	;r3 As==00
 b0a:	20 32       	jn	$-958    	;abs 0x74c
 b0c:	2e 32       	jn	$-930    	;abs 0x76a
 b0e:	31 2e       	jc	$-924    	;abs 0x772
 b10:	31 00       	.word	0x0031;	????	
 b12:	01 80       	sub	r0,	r1	
 b14:	b4 00       	.word	0x00b4;	????	
 b16:	00 00       	.word	0x0000;	????	
 b18:	02 00       	.word	0x0002;	????	
 b1a:	44 03       	.word	0x0344;	????	
 b1c:	00 00       	.word	0x0000;	????	
 b1e:	02 01       	.word	0x0102;	????	
 b20:	4d 06       	.word	0x064d;	????	
 b22:	00 00       	.word	0x0000;	????	
 b24:	00 c0       	bic	r0,	r0	
 b26:	0c c0       	bic	r0,	r12	
 b28:	2f 62       	addc	#4,	r15	;r2 As==10
 b2a:	75 69       	addc.b	@r9+,	r5	
 b2c:	6c 64       	addc.b	@r4,	r12	
 b2e:	2f 62       	addc	#4,	r15	;r2 As==10
 b30:	75 69       	addc.b	@r9+,	r5	
 b32:	6c 64       	addc.b	@r4,	r12	
 b34:	64 2f       	jc	$-310    	;abs 0x9fe
 b36:	67 63       	addc.b	#2,	r7	;r3 As==10
 b38:	63 2d       	jc	$+712    	;abs 0xe00
 b3a:	6d 73       	subc.b	#2,	r13	;r3 As==10
 b3c:	70 34       	jge	$+226    	;abs 0xc1e
 b3e:	33 30       	jn	$+104    	;abs 0xba6
 b40:	2d 34       	jge	$+92     	;abs 0xb9c
 b42:	2e 36       	jge	$-930    	;abs 0x7a0
 b44:	2e 33       	jn	$-418    	;abs 0x9a2
 b46:	7e 6d       	addc.b	@r13+,	r14	
 b48:	73 70       	.word	0x7073;	????	Illegal as 2-op instr
 b4a:	67 63       	addc.b	#2,	r7	;r3 As==10
 b4c:	63 2d       	jc	$+712    	;abs 0xe14
 b4e:	32 30       	jn	$+102    	;abs 0xbb4
 b50:	31 32       	jn	$-924    	;abs 0x7b4
 b52:	30 34       	jge	$+98     	;abs 0xbb4
 b54:	30 36       	jge	$-926    	;abs 0x7b6
 b56:	2f 2e       	jc	$-928    	;abs 0x7b6
 b58:	2f 67       	addc	@r7,	r15	
 b5a:	63 63       	.word	0x6363;	????	Illegal as 2-op instr
 b5c:	2d 34       	jge	$+92     	;abs 0xbb8
 b5e:	2e 36       	jge	$-930    	;abs 0x7bc
 b60:	2e 33       	jn	$-418    	;abs 0x9be
 b62:	2f 67       	addc	@r7,	r15	
 b64:	63 63       	.word	0x6363;	????	Illegal as 2-op instr
 b66:	2f 63       	addc	#2,	r15	;r3 As==10
 b68:	6f 6e       	addc.b	@r14,	r15	
 b6a:	66 69       	addc.b	@r9,	r6	
 b6c:	67 2f       	jc	$-304    	;abs 0xa3c
 b6e:	6d 73       	subc.b	#2,	r13	;r3 As==10
 b70:	70 34       	jge	$+226    	;abs 0xc52
 b72:	33 30       	jn	$+104    	;abs 0xbda
 b74:	2f 63       	addc	#2,	r15	;r3 As==10
 b76:	72 74       	subc.b	@r4+,	r2	
 b78:	30 2e       	jc	$-926    	;abs 0x7da
 b7a:	53 00       	.word	0x0053;	????	
 b7c:	2f 62       	addc	#4,	r15	;r2 As==10
 b7e:	75 69       	addc.b	@r9+,	r5	
 b80:	6c 64       	addc.b	@r4,	r12	
 b82:	2f 62       	addc	#4,	r15	;r2 As==10
 b84:	75 69       	addc.b	@r9+,	r5	
 b86:	6c 64       	addc.b	@r4,	r12	
 b88:	64 2f       	jc	$-310    	;abs 0xa52
 b8a:	67 63       	addc.b	#2,	r7	;r3 As==10
 b8c:	63 2d       	jc	$+712    	;abs 0xe54
 b8e:	6d 73       	subc.b	#2,	r13	;r3 As==10
 b90:	70 34       	jge	$+226    	;abs 0xc72
 b92:	33 30       	jn	$+104    	;abs 0xbfa
 b94:	2d 34       	jge	$+92     	;abs 0xbf0
 b96:	2e 36       	jge	$-930    	;abs 0x7f4
 b98:	2e 33       	jn	$-418    	;abs 0x9f6
 b9a:	7e 6d       	addc.b	@r13+,	r14	
 b9c:	73 70       	.word	0x7073;	????	Illegal as 2-op instr
 b9e:	67 63       	addc.b	#2,	r7	;r3 As==10
 ba0:	63 2d       	jc	$+712    	;abs 0xe68
 ba2:	32 30       	jn	$+102    	;abs 0xc08
 ba4:	31 32       	jn	$-924    	;abs 0x808
 ba6:	30 34       	jge	$+98     	;abs 0xc08
 ba8:	30 36       	jge	$-926    	;abs 0x80a
 baa:	2f 62       	addc	#4,	r15	;r2 As==10
 bac:	75 69       	addc.b	@r9+,	r5	
 bae:	6c 64       	addc.b	@r4,	r12	
 bb0:	2d 72       	subc	#4,	r13	;r2 As==10
 bb2:	65 73       	subc.b	#2,	r5	;r3 As==10
 bb4:	75 6c       	addc.b	@r12+,	r5	
 bb6:	74 2f       	jc	$-278    	;abs 0xaa0
 bb8:	67 63       	addc.b	#2,	r7	;r3 As==10
 bba:	63 00       	.word	0x0063;	????	
 bbc:	47 4e       	mov.b	r14,	r7	
 bbe:	55 20       	jnz	$+172    	;abs 0xc6a
 bc0:	41 53       	add.b	#0,	r1	;r3 As==00
 bc2:	20 32       	jn	$-958    	;abs 0x804
 bc4:	2e 32       	jn	$-930    	;abs 0x822
 bc6:	31 2e       	jc	$-924    	;abs 0x82a
 bc8:	31 00       	.word	0x0031;	????	
 bca:	01 80       	sub	r0,	r1	
 bcc:	b4 00       	.word	0x00b4;	????	
 bce:	00 00       	.word	0x0000;	????	
 bd0:	02 00       	.word	0x0002;	????	
 bd2:	58 03       	.word	0x0358;	????	
 bd4:	00 00       	.word	0x0000;	????	
 bd6:	02 01       	.word	0x0102;	????	
 bd8:	d1 06       	.word	0x06d1;	????	
 bda:	00 00       	.word	0x0000;	????	
 bdc:	0c c0       	bic	r0,	r12	
 bde:	10 c0 2f 62 	bic	25135(r0),r0	;PC rel. 0x6e0f
 be2:	75 69       	addc.b	@r9+,	r5	
 be4:	6c 64       	addc.b	@r4,	r12	
 be6:	2f 62       	addc	#4,	r15	;r2 As==10
 be8:	75 69       	addc.b	@r9+,	r5	
 bea:	6c 64       	addc.b	@r4,	r12	
 bec:	64 2f       	jc	$-310    	;abs 0xab6
 bee:	67 63       	addc.b	#2,	r7	;r3 As==10
 bf0:	63 2d       	jc	$+712    	;abs 0xeb8
 bf2:	6d 73       	subc.b	#2,	r13	;r3 As==10
 bf4:	70 34       	jge	$+226    	;abs 0xcd6
 bf6:	33 30       	jn	$+104    	;abs 0xc5e
 bf8:	2d 34       	jge	$+92     	;abs 0xc54
 bfa:	2e 36       	jge	$-930    	;abs 0x858
 bfc:	2e 33       	jn	$-418    	;abs 0xa5a
 bfe:	7e 6d       	addc.b	@r13+,	r14	
 c00:	73 70       	.word	0x7073;	????	Illegal as 2-op instr
 c02:	67 63       	addc.b	#2,	r7	;r3 As==10
 c04:	63 2d       	jc	$+712    	;abs 0xecc
 c06:	32 30       	jn	$+102    	;abs 0xc6c
 c08:	31 32       	jn	$-924    	;abs 0x86c
 c0a:	30 34       	jge	$+98     	;abs 0xc6c
 c0c:	30 36       	jge	$-926    	;abs 0x86e
 c0e:	2f 2e       	jc	$-928    	;abs 0x86e
 c10:	2f 67       	addc	@r7,	r15	
 c12:	63 63       	.word	0x6363;	????	Illegal as 2-op instr
 c14:	2d 34       	jge	$+92     	;abs 0xc70
 c16:	2e 36       	jge	$-930    	;abs 0x874
 c18:	2e 33       	jn	$-418    	;abs 0xa76
 c1a:	2f 67       	addc	@r7,	r15	
 c1c:	63 63       	.word	0x6363;	????	Illegal as 2-op instr
 c1e:	2f 63       	addc	#2,	r15	;r3 As==10
 c20:	6f 6e       	addc.b	@r14,	r15	
 c22:	66 69       	addc.b	@r9,	r6	
 c24:	67 2f       	jc	$-304    	;abs 0xaf4
 c26:	6d 73       	subc.b	#2,	r13	;r3 As==10
 c28:	70 34       	jge	$+226    	;abs 0xd0a
 c2a:	33 30       	jn	$+104    	;abs 0xc92
 c2c:	2f 63       	addc	#2,	r15	;r3 As==10
 c2e:	72 74       	subc.b	@r4+,	r2	
 c30:	30 2e       	jc	$-926    	;abs 0x892
 c32:	53 00       	.word	0x0053;	????	
 c34:	2f 62       	addc	#4,	r15	;r2 As==10
 c36:	75 69       	addc.b	@r9+,	r5	
 c38:	6c 64       	addc.b	@r4,	r12	
 c3a:	2f 62       	addc	#4,	r15	;r2 As==10
 c3c:	75 69       	addc.b	@r9+,	r5	
 c3e:	6c 64       	addc.b	@r4,	r12	
 c40:	64 2f       	jc	$-310    	;abs 0xb0a
 c42:	67 63       	addc.b	#2,	r7	;r3 As==10
 c44:	63 2d       	jc	$+712    	;abs 0xf0c
 c46:	6d 73       	subc.b	#2,	r13	;r3 As==10
 c48:	70 34       	jge	$+226    	;abs 0xd2a
 c4a:	33 30       	jn	$+104    	;abs 0xcb2
 c4c:	2d 34       	jge	$+92     	;abs 0xca8
 c4e:	2e 36       	jge	$-930    	;abs 0x8ac
 c50:	2e 33       	jn	$-418    	;abs 0xaae
 c52:	7e 6d       	addc.b	@r13+,	r14	
 c54:	73 70       	.word	0x7073;	????	Illegal as 2-op instr
 c56:	67 63       	addc.b	#2,	r7	;r3 As==10
 c58:	63 2d       	jc	$+712    	;abs 0xf20
 c5a:	32 30       	jn	$+102    	;abs 0xcc0
 c5c:	31 32       	jn	$-924    	;abs 0x8c0
 c5e:	30 34       	jge	$+98     	;abs 0xcc0
 c60:	30 36       	jge	$-926    	;abs 0x8c2
 c62:	2f 62       	addc	#4,	r15	;r2 As==10
 c64:	75 69       	addc.b	@r9+,	r5	
 c66:	6c 64       	addc.b	@r4,	r12	
 c68:	2d 72       	subc	#4,	r13	;r2 As==10
 c6a:	65 73       	subc.b	#2,	r5	;r3 As==10
 c6c:	75 6c       	addc.b	@r12+,	r5	
 c6e:	74 2f       	jc	$-278    	;abs 0xb58
 c70:	67 63       	addc.b	#2,	r7	;r3 As==10
 c72:	63 00       	.word	0x0063;	????	
 c74:	47 4e       	mov.b	r14,	r7	
 c76:	55 20       	jnz	$+172    	;abs 0xd22
 c78:	41 53       	add.b	#0,	r1	;r3 As==00
 c7a:	20 32       	jn	$-958    	;abs 0x8bc
 c7c:	2e 32       	jn	$-930    	;abs 0x8da
 c7e:	31 2e       	jc	$-924    	;abs 0x8e2
 c80:	31 00       	.word	0x0031;	????	
 c82:	01 80       	sub	r0,	r1	
 c84:	b4 00       	.word	0x00b4;	????	
 c86:	00 00       	.word	0x0000;	????	
 c88:	02 00       	.word	0x0002;	????	
 c8a:	6c 03       	.word	0x036c;	????	
 c8c:	00 00       	.word	0x0000;	????	
 c8e:	02 01       	.word	0x0102;	????	
 c90:	53 07       	.word	0x0753;	????	
 c92:	00 00       	.word	0x0000;	????	
 c94:	10 c0 28 c0 	bic	-16344(r0),r0	;PC rel. 0xccbe
 c98:	2f 62       	addc	#4,	r15	;r2 As==10
 c9a:	75 69       	addc.b	@r9+,	r5	
 c9c:	6c 64       	addc.b	@r4,	r12	
 c9e:	2f 62       	addc	#4,	r15	;r2 As==10
 ca0:	75 69       	addc.b	@r9+,	r5	
 ca2:	6c 64       	addc.b	@r4,	r12	
 ca4:	64 2f       	jc	$-310    	;abs 0xb6e
 ca6:	67 63       	addc.b	#2,	r7	;r3 As==10
 ca8:	63 2d       	jc	$+712    	;abs 0xf70
 caa:	6d 73       	subc.b	#2,	r13	;r3 As==10
 cac:	70 34       	jge	$+226    	;abs 0xd8e
 cae:	33 30       	jn	$+104    	;abs 0xd16
 cb0:	2d 34       	jge	$+92     	;abs 0xd0c
 cb2:	2e 36       	jge	$-930    	;abs 0x910
 cb4:	2e 33       	jn	$-418    	;abs 0xb12
 cb6:	7e 6d       	addc.b	@r13+,	r14	
 cb8:	73 70       	.word	0x7073;	????	Illegal as 2-op instr
 cba:	67 63       	addc.b	#2,	r7	;r3 As==10
 cbc:	63 2d       	jc	$+712    	;abs 0xf84
 cbe:	32 30       	jn	$+102    	;abs 0xd24
 cc0:	31 32       	jn	$-924    	;abs 0x924
 cc2:	30 34       	jge	$+98     	;abs 0xd24
 cc4:	30 36       	jge	$-926    	;abs 0x926
 cc6:	2f 2e       	jc	$-928    	;abs 0x926
 cc8:	2f 67       	addc	@r7,	r15	
 cca:	63 63       	.word	0x6363;	????	Illegal as 2-op instr
 ccc:	2d 34       	jge	$+92     	;abs 0xd28
 cce:	2e 36       	jge	$-930    	;abs 0x92c
 cd0:	2e 33       	jn	$-418    	;abs 0xb2e
 cd2:	2f 67       	addc	@r7,	r15	
 cd4:	63 63       	.word	0x6363;	????	Illegal as 2-op instr
 cd6:	2f 63       	addc	#2,	r15	;r3 As==10
 cd8:	6f 6e       	addc.b	@r14,	r15	
 cda:	66 69       	addc.b	@r9,	r6	
 cdc:	67 2f       	jc	$-304    	;abs 0xbac
 cde:	6d 73       	subc.b	#2,	r13	;r3 As==10
 ce0:	70 34       	jge	$+226    	;abs 0xdc2
 ce2:	33 30       	jn	$+104    	;abs 0xd4a
 ce4:	2f 63       	addc	#2,	r15	;r3 As==10
 ce6:	72 74       	subc.b	@r4+,	r2	
 ce8:	30 2e       	jc	$-926    	;abs 0x94a
 cea:	53 00       	.word	0x0053;	????	
 cec:	2f 62       	addc	#4,	r15	;r2 As==10
 cee:	75 69       	addc.b	@r9+,	r5	
 cf0:	6c 64       	addc.b	@r4,	r12	
 cf2:	2f 62       	addc	#4,	r15	;r2 As==10
 cf4:	75 69       	addc.b	@r9+,	r5	
 cf6:	6c 64       	addc.b	@r4,	r12	
 cf8:	64 2f       	jc	$-310    	;abs 0xbc2
 cfa:	67 63       	addc.b	#2,	r7	;r3 As==10
 cfc:	63 2d       	jc	$+712    	;abs 0xfc4
 cfe:	6d 73       	subc.b	#2,	r13	;r3 As==10
 d00:	70 34       	jge	$+226    	;abs 0xde2
 d02:	33 30       	jn	$+104    	;abs 0xd6a
 d04:	2d 34       	jge	$+92     	;abs 0xd60
 d06:	2e 36       	jge	$-930    	;abs 0x964
 d08:	2e 33       	jn	$-418    	;abs 0xb66
 d0a:	7e 6d       	addc.b	@r13+,	r14	
 d0c:	73 70       	.word	0x7073;	????	Illegal as 2-op instr
 d0e:	67 63       	addc.b	#2,	r7	;r3 As==10
 d10:	63 2d       	jc	$+712    	;abs 0xfd8
 d12:	32 30       	jn	$+102    	;abs 0xd78
 d14:	31 32       	jn	$-924    	;abs 0x978
 d16:	30 34       	jge	$+98     	;abs 0xd78
 d18:	30 36       	jge	$-926    	;abs 0x97a
 d1a:	2f 62       	addc	#4,	r15	;r2 As==10
 d1c:	75 69       	addc.b	@r9+,	r5	
 d1e:	6c 64       	addc.b	@r4,	r12	
 d20:	2d 72       	subc	#4,	r13	;r2 As==10
 d22:	65 73       	subc.b	#2,	r5	;r3 As==10
 d24:	75 6c       	addc.b	@r12+,	r5	
 d26:	74 2f       	jc	$-278    	;abs 0xc10
 d28:	67 63       	addc.b	#2,	r7	;r3 As==10
 d2a:	63 00       	.word	0x0063;	????	
 d2c:	47 4e       	mov.b	r14,	r7	
 d2e:	55 20       	jnz	$+172    	;abs 0xdda
 d30:	41 53       	add.b	#0,	r1	;r3 As==00
 d32:	20 32       	jn	$-958    	;abs 0x974
 d34:	2e 32       	jn	$-930    	;abs 0x992
 d36:	31 2e       	jc	$-924    	;abs 0x99a
 d38:	31 00       	.word	0x0031;	????	
 d3a:	01 80       	sub	r0,	r1	
 d3c:	b4 00       	.word	0x00b4;	????	
 d3e:	00 00       	.word	0x0000;	????	
 d40:	02 00       	.word	0x0002;	????	
 d42:	80 03       	.word	0x0380;	????	
 d44:	00 00       	.word	0x0000;	????	
 d46:	02 01       	.word	0x0102;	????	
 d48:	db 07       	.word	0x07db;	????	
 d4a:	00 00       	.word	0x0000;	????	
 d4c:	28 c0       	bic	@r0,	r8	
 d4e:	3e c0 2f 62 	bic	#25135,	r14	;#0x622f
 d52:	75 69       	addc.b	@r9+,	r5	
 d54:	6c 64       	addc.b	@r4,	r12	
 d56:	2f 62       	addc	#4,	r15	;r2 As==10
 d58:	75 69       	addc.b	@r9+,	r5	
 d5a:	6c 64       	addc.b	@r4,	r12	
 d5c:	64 2f       	jc	$-310    	;abs 0xc26
 d5e:	67 63       	addc.b	#2,	r7	;r3 As==10
 d60:	63 2d       	jc	$+712    	;abs 0x1028
 d62:	6d 73       	subc.b	#2,	r13	;r3 As==10
 d64:	70 34       	jge	$+226    	;abs 0xe46
 d66:	33 30       	jn	$+104    	;abs 0xdce
 d68:	2d 34       	jge	$+92     	;abs 0xdc4
 d6a:	2e 36       	jge	$-930    	;abs 0x9c8
 d6c:	2e 33       	jn	$-418    	;abs 0xbca
 d6e:	7e 6d       	addc.b	@r13+,	r14	
 d70:	73 70       	.word	0x7073;	????	Illegal as 2-op instr
 d72:	67 63       	addc.b	#2,	r7	;r3 As==10
 d74:	63 2d       	jc	$+712    	;abs 0x103c
 d76:	32 30       	jn	$+102    	;abs 0xddc
 d78:	31 32       	jn	$-924    	;abs 0x9dc
 d7a:	30 34       	jge	$+98     	;abs 0xddc
 d7c:	30 36       	jge	$-926    	;abs 0x9de
 d7e:	2f 2e       	jc	$-928    	;abs 0x9de
 d80:	2f 67       	addc	@r7,	r15	
 d82:	63 63       	.word	0x6363;	????	Illegal as 2-op instr
 d84:	2d 34       	jge	$+92     	;abs 0xde0
 d86:	2e 36       	jge	$-930    	;abs 0x9e4
 d88:	2e 33       	jn	$-418    	;abs 0xbe6
 d8a:	2f 67       	addc	@r7,	r15	
 d8c:	63 63       	.word	0x6363;	????	Illegal as 2-op instr
 d8e:	2f 63       	addc	#2,	r15	;r3 As==10
 d90:	6f 6e       	addc.b	@r14,	r15	
 d92:	66 69       	addc.b	@r9,	r6	
 d94:	67 2f       	jc	$-304    	;abs 0xc64
 d96:	6d 73       	subc.b	#2,	r13	;r3 As==10
 d98:	70 34       	jge	$+226    	;abs 0xe7a
 d9a:	33 30       	jn	$+104    	;abs 0xe02
 d9c:	2f 63       	addc	#2,	r15	;r3 As==10
 d9e:	72 74       	subc.b	@r4+,	r2	
 da0:	30 2e       	jc	$-926    	;abs 0xa02
 da2:	53 00       	.word	0x0053;	????	
 da4:	2f 62       	addc	#4,	r15	;r2 As==10
 da6:	75 69       	addc.b	@r9+,	r5	
 da8:	6c 64       	addc.b	@r4,	r12	
 daa:	2f 62       	addc	#4,	r15	;r2 As==10
 dac:	75 69       	addc.b	@r9+,	r5	
 dae:	6c 64       	addc.b	@r4,	r12	
 db0:	64 2f       	jc	$-310    	;abs 0xc7a
 db2:	67 63       	addc.b	#2,	r7	;r3 As==10
 db4:	63 2d       	jc	$+712    	;abs 0x107c
 db6:	6d 73       	subc.b	#2,	r13	;r3 As==10
 db8:	70 34       	jge	$+226    	;abs 0xe9a
 dba:	33 30       	jn	$+104    	;abs 0xe22
 dbc:	2d 34       	jge	$+92     	;abs 0xe18
 dbe:	2e 36       	jge	$-930    	;abs 0xa1c
 dc0:	2e 33       	jn	$-418    	;abs 0xc1e
 dc2:	7e 6d       	addc.b	@r13+,	r14	
 dc4:	73 70       	.word	0x7073;	????	Illegal as 2-op instr
 dc6:	67 63       	addc.b	#2,	r7	;r3 As==10
 dc8:	63 2d       	jc	$+712    	;abs 0x1090
 dca:	32 30       	jn	$+102    	;abs 0xe30
 dcc:	31 32       	jn	$-924    	;abs 0xa30
 dce:	30 34       	jge	$+98     	;abs 0xe30
 dd0:	30 36       	jge	$-926    	;abs 0xa32
 dd2:	2f 62       	addc	#4,	r15	;r2 As==10
 dd4:	75 69       	addc.b	@r9+,	r5	
 dd6:	6c 64       	addc.b	@r4,	r12	
 dd8:	2d 72       	subc	#4,	r13	;r2 As==10
 dda:	65 73       	subc.b	#2,	r5	;r3 As==10
 ddc:	75 6c       	addc.b	@r12+,	r5	
 dde:	74 2f       	jc	$-278    	;abs 0xcc8
 de0:	67 63       	addc.b	#2,	r7	;r3 As==10
 de2:	63 00       	.word	0x0063;	????	
 de4:	47 4e       	mov.b	r14,	r7	
 de6:	55 20       	jnz	$+172    	;abs 0xe92
 de8:	41 53       	add.b	#0,	r1	;r3 As==00
 dea:	20 32       	jn	$-958    	;abs 0xa2c
 dec:	2e 32       	jn	$-930    	;abs 0xa4a
 dee:	31 2e       	jc	$-924    	;abs 0xa52
 df0:	31 00       	.word	0x0031;	????	
 df2:	01 80       	sub	r0,	r1	
 df4:	b4 00       	.word	0x00b4;	????	
 df6:	00 00       	.word	0x0000;	????	
 df8:	02 00       	.word	0x0002;	????	
 dfa:	94 03       	.word	0x0394;	????	
 dfc:	00 00       	.word	0x0000;	????	
 dfe:	02 01       	.word	0x0102;	????	
 e00:	63 08       	.word	0x0863;	????	
 e02:	00 00       	.word	0x0000;	????	
 e04:	fa c0 00 c1 	bic.b	#-16128,25135(r10);#0xc100, 0x622f(r10)
 e08:	2f 62 
 e0a:	75 69       	addc.b	@r9+,	r5	
 e0c:	6c 64       	addc.b	@r4,	r12	
 e0e:	2f 62       	addc	#4,	r15	;r2 As==10
 e10:	75 69       	addc.b	@r9+,	r5	
 e12:	6c 64       	addc.b	@r4,	r12	
 e14:	64 2f       	jc	$-310    	;abs 0xcde
 e16:	67 63       	addc.b	#2,	r7	;r3 As==10
 e18:	63 2d       	jc	$+712    	;abs 0x10e0
 e1a:	6d 73       	subc.b	#2,	r13	;r3 As==10
 e1c:	70 34       	jge	$+226    	;abs 0xefe
 e1e:	33 30       	jn	$+104    	;abs 0xe86
 e20:	2d 34       	jge	$+92     	;abs 0xe7c
 e22:	2e 36       	jge	$-930    	;abs 0xa80
 e24:	2e 33       	jn	$-418    	;abs 0xc82
 e26:	7e 6d       	addc.b	@r13+,	r14	
 e28:	73 70       	.word	0x7073;	????	Illegal as 2-op instr
 e2a:	67 63       	addc.b	#2,	r7	;r3 As==10
 e2c:	63 2d       	jc	$+712    	;abs 0x10f4
 e2e:	32 30       	jn	$+102    	;abs 0xe94
 e30:	31 32       	jn	$-924    	;abs 0xa94
 e32:	30 34       	jge	$+98     	;abs 0xe94
 e34:	30 36       	jge	$-926    	;abs 0xa96
 e36:	2f 2e       	jc	$-928    	;abs 0xa96
 e38:	2f 67       	addc	@r7,	r15	
 e3a:	63 63       	.word	0x6363;	????	Illegal as 2-op instr
 e3c:	2d 34       	jge	$+92     	;abs 0xe98
 e3e:	2e 36       	jge	$-930    	;abs 0xa9c
 e40:	2e 33       	jn	$-418    	;abs 0xc9e
 e42:	2f 67       	addc	@r7,	r15	
 e44:	63 63       	.word	0x6363;	????	Illegal as 2-op instr
 e46:	2f 63       	addc	#2,	r15	;r3 As==10
 e48:	6f 6e       	addc.b	@r14,	r15	
 e4a:	66 69       	addc.b	@r9,	r6	
 e4c:	67 2f       	jc	$-304    	;abs 0xd1c
 e4e:	6d 73       	subc.b	#2,	r13	;r3 As==10
 e50:	70 34       	jge	$+226    	;abs 0xf32
 e52:	33 30       	jn	$+104    	;abs 0xeba
 e54:	2f 63       	addc	#2,	r15	;r3 As==10
 e56:	72 74       	subc.b	@r4+,	r2	
 e58:	30 2e       	jc	$-926    	;abs 0xaba
 e5a:	53 00       	.word	0x0053;	????	
 e5c:	2f 62       	addc	#4,	r15	;r2 As==10
 e5e:	75 69       	addc.b	@r9+,	r5	
 e60:	6c 64       	addc.b	@r4,	r12	
 e62:	2f 62       	addc	#4,	r15	;r2 As==10
 e64:	75 69       	addc.b	@r9+,	r5	
 e66:	6c 64       	addc.b	@r4,	r12	
 e68:	64 2f       	jc	$-310    	;abs 0xd32
 e6a:	67 63       	addc.b	#2,	r7	;r3 As==10
 e6c:	63 2d       	jc	$+712    	;abs 0x1134
 e6e:	6d 73       	subc.b	#2,	r13	;r3 As==10
 e70:	70 34       	jge	$+226    	;abs 0xf52
 e72:	33 30       	jn	$+104    	;abs 0xeda
 e74:	2d 34       	jge	$+92     	;abs 0xed0
 e76:	2e 36       	jge	$-930    	;abs 0xad4
 e78:	2e 33       	jn	$-418    	;abs 0xcd6
 e7a:	7e 6d       	addc.b	@r13+,	r14	
 e7c:	73 70       	.word	0x7073;	????	Illegal as 2-op instr
 e7e:	67 63       	addc.b	#2,	r7	;r3 As==10
 e80:	63 2d       	jc	$+712    	;abs 0x1148
 e82:	32 30       	jn	$+102    	;abs 0xee8
 e84:	31 32       	jn	$-924    	;abs 0xae8
 e86:	30 34       	jge	$+98     	;abs 0xee8
 e88:	30 36       	jge	$-926    	;abs 0xaea
 e8a:	2f 62       	addc	#4,	r15	;r2 As==10
 e8c:	75 69       	addc.b	@r9+,	r5	
 e8e:	6c 64       	addc.b	@r4,	r12	
 e90:	2d 72       	subc	#4,	r13	;r2 As==10
 e92:	65 73       	subc.b	#2,	r5	;r3 As==10
 e94:	75 6c       	addc.b	@r12+,	r5	
 e96:	74 2f       	jc	$-278    	;abs 0xd80
 e98:	67 63       	addc.b	#2,	r7	;r3 As==10
 e9a:	63 00       	.word	0x0063;	????	
 e9c:	47 4e       	mov.b	r14,	r7	
 e9e:	55 20       	jnz	$+172    	;abs 0xf4a
 ea0:	41 53       	add.b	#0,	r1	;r3 As==00
 ea2:	20 32       	jn	$-958    	;abs 0xae4
 ea4:	2e 32       	jn	$-930    	;abs 0xb02
 ea6:	31 2e       	jc	$-924    	;abs 0xb0a
 ea8:	31 00       	.word	0x0031;	????	
 eaa:	01 80       	sub	r0,	r1	
 eac:	b4 00       	.word	0x00b4;	????	
 eae:	00 00       	.word	0x0000;	????	
 eb0:	02 00       	.word	0x0002;	????	
 eb2:	a8 03       	.word	0x03a8;	????	
 eb4:	00 00       	.word	0x0000;	????	
 eb6:	02 01       	.word	0x0102;	????	
 eb8:	e6 08       	.word	0x08e6;	????	
 eba:	00 00       	.word	0x0000;	????	
 ebc:	6a d4       	bis.b	@r4,	r10	
 ebe:	6c d4       	bis.b	@r4,	r12	
 ec0:	2f 62       	addc	#4,	r15	;r2 As==10
 ec2:	75 69       	addc.b	@r9+,	r5	
 ec4:	6c 64       	addc.b	@r4,	r12	
 ec6:	2f 62       	addc	#4,	r15	;r2 As==10
 ec8:	75 69       	addc.b	@r9+,	r5	
 eca:	6c 64       	addc.b	@r4,	r12	
 ecc:	64 2f       	jc	$-310    	;abs 0xd96
 ece:	67 63       	addc.b	#2,	r7	;r3 As==10
 ed0:	63 2d       	jc	$+712    	;abs 0x1198
 ed2:	6d 73       	subc.b	#2,	r13	;r3 As==10
 ed4:	70 34       	jge	$+226    	;abs 0xfb6
 ed6:	33 30       	jn	$+104    	;abs 0xf3e
 ed8:	2d 34       	jge	$+92     	;abs 0xf34
 eda:	2e 36       	jge	$-930    	;abs 0xb38
 edc:	2e 33       	jn	$-418    	;abs 0xd3a
 ede:	7e 6d       	addc.b	@r13+,	r14	
 ee0:	73 70       	.word	0x7073;	????	Illegal as 2-op instr
 ee2:	67 63       	addc.b	#2,	r7	;r3 As==10
 ee4:	63 2d       	jc	$+712    	;abs 0x11ac
 ee6:	32 30       	jn	$+102    	;abs 0xf4c
 ee8:	31 32       	jn	$-924    	;abs 0xb4c
 eea:	30 34       	jge	$+98     	;abs 0xf4c
 eec:	30 36       	jge	$-926    	;abs 0xb4e
 eee:	2f 2e       	jc	$-928    	;abs 0xb4e
 ef0:	2f 67       	addc	@r7,	r15	
 ef2:	63 63       	.word	0x6363;	????	Illegal as 2-op instr
 ef4:	2d 34       	jge	$+92     	;abs 0xf50
 ef6:	2e 36       	jge	$-930    	;abs 0xb54
 ef8:	2e 33       	jn	$-418    	;abs 0xd56
 efa:	2f 67       	addc	@r7,	r15	
 efc:	63 63       	.word	0x6363;	????	Illegal as 2-op instr
 efe:	2f 63       	addc	#2,	r15	;r3 As==10
 f00:	6f 6e       	addc.b	@r14,	r15	
 f02:	66 69       	addc.b	@r9,	r6	
 f04:	67 2f       	jc	$-304    	;abs 0xdd4
 f06:	6d 73       	subc.b	#2,	r13	;r3 As==10
 f08:	70 34       	jge	$+226    	;abs 0xfea
 f0a:	33 30       	jn	$+104    	;abs 0xf72
 f0c:	2f 63       	addc	#2,	r15	;r3 As==10
 f0e:	72 74       	subc.b	@r4+,	r2	
 f10:	30 2e       	jc	$-926    	;abs 0xb72
 f12:	53 00       	.word	0x0053;	????	
 f14:	2f 62       	addc	#4,	r15	;r2 As==10
 f16:	75 69       	addc.b	@r9+,	r5	
 f18:	6c 64       	addc.b	@r4,	r12	
 f1a:	2f 62       	addc	#4,	r15	;r2 As==10
 f1c:	75 69       	addc.b	@r9+,	r5	
 f1e:	6c 64       	addc.b	@r4,	r12	
 f20:	64 2f       	jc	$-310    	;abs 0xdea
 f22:	67 63       	addc.b	#2,	r7	;r3 As==10
 f24:	63 2d       	jc	$+712    	;abs 0x11ec
 f26:	6d 73       	subc.b	#2,	r13	;r3 As==10
 f28:	70 34       	jge	$+226    	;abs 0x100a
 f2a:	33 30       	jn	$+104    	;abs 0xf92
 f2c:	2d 34       	jge	$+92     	;abs 0xf88
 f2e:	2e 36       	jge	$-930    	;abs 0xb8c
 f30:	2e 33       	jn	$-418    	;abs 0xd8e
 f32:	7e 6d       	addc.b	@r13+,	r14	
 f34:	73 70       	.word	0x7073;	????	Illegal as 2-op instr
 f36:	67 63       	addc.b	#2,	r7	;r3 As==10
 f38:	63 2d       	jc	$+712    	;abs 0x1200
 f3a:	32 30       	jn	$+102    	;abs 0xfa0
 f3c:	31 32       	jn	$-924    	;abs 0xba0
 f3e:	30 34       	jge	$+98     	;abs 0xfa0
 f40:	30 36       	jge	$-926    	;abs 0xba2
 f42:	2f 62       	addc	#4,	r15	;r2 As==10
 f44:	75 69       	addc.b	@r9+,	r5	
 f46:	6c 64       	addc.b	@r4,	r12	
 f48:	2d 72       	subc	#4,	r13	;r2 As==10
 f4a:	65 73       	subc.b	#2,	r5	;r3 As==10
 f4c:	75 6c       	addc.b	@r12+,	r5	
 f4e:	74 2f       	jc	$-278    	;abs 0xe38
 f50:	67 63       	addc.b	#2,	r7	;r3 As==10
 f52:	63 00       	.word	0x0063;	????	
 f54:	47 4e       	mov.b	r14,	r7	
 f56:	55 20       	jnz	$+172    	;abs 0x1002
 f58:	41 53       	add.b	#0,	r1	;r3 As==00
 f5a:	20 32       	jn	$-958    	;abs 0xb9c
 f5c:	2e 32       	jn	$-930    	;abs 0xbba
 f5e:	31 2e       	jc	$-924    	;abs 0xbc2
 f60:	31 00       	.word	0x0031;	????	
 f62:	01 80       	sub	r0,	r1	

Disassembly of section .debug_abbrev:

00000000 <.debug_abbrev>:
   0:	01 11       	rra	r1		
   2:	00 10       	rrc	r0		
   4:	06 11       	rra	r6		
   6:	01 12       	push	r1		
   8:	01 03       	.word	0x0301;	????	
   a:	08 1b       	.word	0x1b08;	????	
   c:	08 25       	jz	$+530    	;abs 0x21e
   e:	08 13       	reti			;return from interupt
  10:	05 00       	.word	0x0005;	????	
  12:	00 00       	.word	0x0000;	????	
  14:	01 11       	rra	r1		
  16:	00 10       	rrc	r0		
  18:	06 11       	rra	r6		
  1a:	01 12       	push	r1		
  1c:	01 03       	.word	0x0301;	????	
  1e:	08 1b       	.word	0x1b08;	????	
  20:	08 25       	jz	$+530    	;abs 0x232
  22:	08 13       	reti			;return from interupt
  24:	05 00       	.word	0x0005;	????	
  26:	00 00       	.word	0x0000;	????	
  28:	01 11       	rra	r1		
  2a:	01 25       	jz	$+516    	;abs 0x22e
  2c:	0e 13       	reti			;return from interupt
  2e:	0b 03       	.word	0x030b;	????	
  30:	0e 1b       	.word	0x1b0e;	????	
  32:	0e 11       	rra	r14		
  34:	01 12       	push	r1		
  36:	01 10       	rrc	r1		
  38:	06 00       	.word	0x0006;	????	
  3a:	00 02       	.word	0x0200;	????	
  3c:	24 00       	.word	0x0024;	????	
  3e:	0b 0b       	.word	0x0b0b;	????	
  40:	3e 0b       	.word	0x0b3e;	????	
  42:	03 0e       	.word	0x0e03;	????	
  44:	00 00       	.word	0x0000;	????	
  46:	03 16       	.word	0x1603;	????	
  48:	00 03       	.word	0x0300;	????	
  4a:	0e 3a       	jl	$-994    	;abs 0xfc68
  4c:	0b 3b       	jl	$-488    	;abs 0xfe64
  4e:	0b 49       	mov	r9,	r11	
  50:	13 00       	.word	0x0013;	????	
  52:	00 04       	.word	0x0400;	????	
  54:	24 00       	.word	0x0024;	????	
  56:	0b 0b       	.word	0x0b0b;	????	
  58:	3e 0b       	.word	0x0b3e;	????	
  5a:	03 08       	.word	0x0803;	????	
  5c:	00 00       	.word	0x0000;	????	
  5e:	05 0f       	.word	0x0f05;	????	
  60:	00 0b       	.word	0x0b00;	????	
  62:	0b 49       	mov	r9,	r11	
  64:	13 00       	.word	0x0013;	????	
  66:	00 06       	.word	0x0600;	????	
  68:	26 00       	.word	0x0026;	????	
  6a:	49 13       	.word	0x1349;	????	
  6c:	00 00       	.word	0x0000;	????	
  6e:	07 0f       	.word	0x0f07;	????	
  70:	00 0b       	.word	0x0b00;	????	
  72:	0b 03       	.word	0x030b;	????	
  74:	0e 00       	.word	0x000e;	????	
  76:	00 08       	.word	0x0800;	????	
  78:	2e 01       	.word	0x012e;	????	
  7a:	03 0e       	.word	0x0e03;	????	
  7c:	3a 0b       	.word	0x0b3a;	????	
  7e:	3b 0b       	.word	0x0b3b;	????	
  80:	27 0c       	.word	0x0c27;	????	
  82:	49 13       	.word	0x1349;	????	
  84:	11 01       	.word	0x0111;	????	
  86:	12 01       	.word	0x0112;	????	
  88:	40 0a       	.word	0x0a40;	????	
  8a:	01 13       	reti			;return from interupt
  8c:	00 00       	.word	0x0000;	????	
  8e:	09 05       	.word	0x0509;	????	
  90:	00 03       	.word	0x0300;	????	
  92:	08 3a       	jl	$-1006   	;abs 0xfca4
  94:	0b 3b       	jl	$-488    	;abs 0xfeac
  96:	0b 49       	mov	r9,	r11	
  98:	13 02       	.word	0x0213;	????	
  9a:	06 00       	.word	0x0006;	????	
  9c:	00 0a       	.word	0x0a00;	????	
  9e:	2e 01       	.word	0x012e;	????	
  a0:	03 0e       	.word	0x0e03;	????	
  a2:	3a 0b       	.word	0x0b3a;	????	
  a4:	3b 0b       	.word	0x0b3b;	????	
  a6:	27 0c       	.word	0x0c27;	????	
  a8:	49 13       	.word	0x1349;	????	
  aa:	11 01       	.word	0x0111;	????	
  ac:	12 01       	.word	0x0112;	????	
  ae:	40 06       	.word	0x0640;	????	
  b0:	01 13       	reti			;return from interupt
  b2:	00 00       	.word	0x0000;	????	
  b4:	0b 05       	.word	0x050b;	????	
  b6:	00 03       	.word	0x0300;	????	
  b8:	0e 3a       	jl	$-994    	;abs 0xfcd6
  ba:	0b 3b       	jl	$-488    	;abs 0xfed2
  bc:	0b 49       	mov	r9,	r11	
  be:	13 02       	.word	0x0213;	????	
  c0:	06 00       	.word	0x0006;	????	
  c2:	00 0c       	.word	0x0c00;	????	
  c4:	34 00       	.word	0x0034;	????	
  c6:	03 0e       	.word	0x0e03;	????	
  c8:	3a 0b       	.word	0x0b3a;	????	
  ca:	3b 0b       	.word	0x0b3b;	????	
  cc:	49 13       	.word	0x1349;	????	
  ce:	02 06       	.word	0x0602;	????	
  d0:	00 00       	.word	0x0000;	????	
  d2:	0d 34       	jge	$+28     	;abs 0xee
  d4:	00 03       	.word	0x0300;	????	
  d6:	08 3a       	jl	$-1006   	;abs 0xfce8
  d8:	0b 3b       	jl	$-488    	;abs 0xfef0
  da:	0b 49       	mov	r9,	r11	
  dc:	13 02       	.word	0x0213;	????	
  de:	0a 00       	.word	0x000a;	????	
  e0:	00 0e       	.word	0x0e00;	????	
  e2:	2e 01       	.word	0x012e;	????	
  e4:	3f 0c       	.word	0x0c3f;	????	
  e6:	03 0e       	.word	0x0e03;	????	
  e8:	3a 0b       	.word	0x0b3a;	????	
  ea:	3b 0b       	.word	0x0b3b;	????	
  ec:	27 0c       	.word	0x0c27;	????	
  ee:	49 13       	.word	0x1349;	????	
  f0:	11 01       	.word	0x0111;	????	
  f2:	12 01       	.word	0x0112;	????	
  f4:	40 0a       	.word	0x0a40;	????	
  f6:	01 13       	reti			;return from interupt
  f8:	00 00       	.word	0x0000;	????	
  fa:	0f 05       	.word	0x050f;	????	
  fc:	00 03       	.word	0x0300;	????	
  fe:	08 3a       	jl	$-1006   	;abs 0xfd10
 100:	0b 3b       	jl	$-488    	;abs 0xff18
 102:	0b 49       	mov	r9,	r11	
 104:	13 02       	.word	0x0213;	????	
 106:	0a 00       	.word	0x000a;	????	
 108:	00 10       	rrc	r0		
 10a:	18 00       	.word	0x0018;	????	
 10c:	00 00       	.word	0x0000;	????	
 10e:	11 34       	jge	$+36     	;abs 0x132
 110:	00 03       	.word	0x0300;	????	
 112:	0e 3a       	jl	$-994    	;abs 0xfd30
 114:	0b 3b       	jl	$-488    	;abs 0xff2c
 116:	0b 49       	mov	r9,	r11	
 118:	13 02       	.word	0x0213;	????	
 11a:	0a 00       	.word	0x000a;	????	
 11c:	00 12       	push	r0		
 11e:	05 00       	.word	0x0005;	????	
 120:	03 0e       	.word	0x0e03;	????	
 122:	3a 0b       	.word	0x0b3a;	????	
 124:	3b 0b       	.word	0x0b3b;	????	
 126:	49 13       	.word	0x1349;	????	
 128:	02 0a       	.word	0x0a02;	????	
 12a:	00 00       	.word	0x0000;	????	
 12c:	00 01       	.word	0x0100;	????	
 12e:	11 01       	.word	0x0111;	????	
 130:	25 0e       	.word	0x0e25;	????	
 132:	13 0b       	.word	0x0b13;	????	
 134:	03 0e       	.word	0x0e03;	????	
 136:	1b 0e       	.word	0x0e1b;	????	
 138:	11 01       	.word	0x0111;	????	
 13a:	12 01       	.word	0x0112;	????	
 13c:	10 06       	.word	0x0610;	????	
 13e:	00 00       	.word	0x0000;	????	
 140:	02 24       	jz	$+6      	;abs 0x146
 142:	00 0b       	.word	0x0b00;	????	
 144:	0b 3e       	jmp	$-1000   	;abs 0xfd5c
 146:	0b 03       	.word	0x030b;	????	
 148:	0e 00       	.word	0x000e;	????	
 14a:	00 03       	.word	0x0300;	????	
 14c:	24 00       	.word	0x0024;	????	
 14e:	0b 0b       	.word	0x0b0b;	????	
 150:	3e 0b       	.word	0x0b3e;	????	
 152:	03 08       	.word	0x0803;	????	
 154:	00 00       	.word	0x0000;	????	
 156:	04 16       	.word	0x1604;	????	
 158:	00 03       	.word	0x0300;	????	
 15a:	0e 3a       	jl	$-994    	;abs 0xfd78
 15c:	0b 3b       	jl	$-488    	;abs 0xff74
 15e:	0b 49       	mov	r9,	r11	
 160:	13 00       	.word	0x0013;	????	
 162:	00 05       	.word	0x0500;	????	
 164:	0f 00       	.word	0x000f;	????	
 166:	0b 0b       	.word	0x0b0b;	????	
 168:	49 13       	.word	0x1349;	????	
 16a:	00 00       	.word	0x0000;	????	
 16c:	06 26       	jz	$-1010   	;abs 0xfd7a
 16e:	00 49       	br	r9		
 170:	13 00       	.word	0x0013;	????	
 172:	00 07       	.word	0x0700;	????	
 174:	0f 00       	.word	0x000f;	????	
 176:	0b 0b       	.word	0x0b0b;	????	
 178:	03 0e       	.word	0x0e03;	????	
 17a:	00 00       	.word	0x0000;	????	
 17c:	08 13       	reti			;return from interupt
 17e:	01 0b       	.word	0x0b01;	????	
 180:	0b 3a       	jl	$-1000   	;abs 0xfd98
 182:	0b 3b       	jl	$-488    	;abs 0xff9a
 184:	0b 01       	.word	0x010b;	????	
 186:	13 00       	.word	0x0013;	????	
 188:	00 09       	.word	0x0900;	????	
 18a:	0d 00       	.word	0x000d;	????	
 18c:	03 0e       	.word	0x0e03;	????	
 18e:	3a 0b       	.word	0x0b3a;	????	
 190:	3b 0b       	.word	0x0b3b;	????	
 192:	49 13       	.word	0x1349;	????	
 194:	0b 0b       	.word	0x0b0b;	????	
 196:	0d 0b       	.word	0x0b0d;	????	
 198:	0c 0b       	.word	0x0b0c;	????	
 19a:	38 0a       	.word	0x0a38;	????	
 19c:	00 00       	.word	0x0000;	????	
 19e:	0a 0d       	.word	0x0d0a;	????	
 1a0:	00 03       	.word	0x0300;	????	
 1a2:	0e 3a       	jl	$-994    	;abs 0xfdc0
 1a4:	0b 3b       	jl	$-488    	;abs 0xffbc
 1a6:	0b 49       	mov	r9,	r11	
 1a8:	13 38       	jl	$+40     	;abs 0x1d0
 1aa:	0a 00       	.word	0x000a;	????	
 1ac:	00 0b       	.word	0x0b00;	????	
 1ae:	2e 01       	.word	0x012e;	????	
 1b0:	03 0e       	.word	0x0e03;	????	
 1b2:	3a 0b       	.word	0x0b3a;	????	
 1b4:	3b 0b       	.word	0x0b3b;	????	
 1b6:	27 0c       	.word	0x0c27;	????	
 1b8:	49 13       	.word	0x1349;	????	
 1ba:	20 0b       	.word	0x0b20;	????	
 1bc:	01 13       	reti			;return from interupt
 1be:	00 00       	.word	0x0000;	????	
 1c0:	0c 05       	.word	0x050c;	????	
 1c2:	00 03       	.word	0x0300;	????	
 1c4:	0e 3a       	jl	$-994    	;abs 0xfde2
 1c6:	0b 3b       	jl	$-488    	;abs 0xffde
 1c8:	0b 49       	mov	r9,	r11	
 1ca:	13 00       	.word	0x0013;	????	
 1cc:	00 0d       	.word	0x0d00;	????	
 1ce:	34 00       	.word	0x0034;	????	
 1d0:	03 08       	.word	0x0803;	????	
 1d2:	3a 0b       	.word	0x0b3a;	????	
 1d4:	3b 0b       	.word	0x0b3b;	????	
 1d6:	49 13       	.word	0x1349;	????	
 1d8:	00 00       	.word	0x0000;	????	
 1da:	0e 2e       	jc	$-994    	;abs 0xfdf8
 1dc:	01 03       	.word	0x0301;	????	
 1de:	0e 3a       	jl	$-994    	;abs 0xfdfc
 1e0:	0b 3b       	jl	$-488    	;abs 0xfff8
 1e2:	0b 27       	jz	$-488    	;abs 0xfffa
 1e4:	0c 49       	mov	r9,	r12	
 1e6:	13 11       	rra	#1		;r3 As==01
 1e8:	01 12       	push	r1		
 1ea:	01 40       	mov	r0,	r1	
 1ec:	06 01       	.word	0x0106;	????	
 1ee:	13 00       	.word	0x0013;	????	
 1f0:	00 0f       	.word	0x0f00;	????	
 1f2:	05 00       	.word	0x0005;	????	
 1f4:	03 0e       	.word	0x0e03;	????	
 1f6:	3a 0b       	.word	0x0b3a;	????	
 1f8:	3b 0b       	.word	0x0b3b;	????	
 1fa:	49 13       	.word	0x1349;	????	
 1fc:	02 06       	.word	0x0602;	????	
 1fe:	00 00       	.word	0x0000;	????	
 200:	10 34       	jge	$+34     	;abs 0x222
 202:	00 03       	.word	0x0300;	????	
 204:	0e 3a       	jl	$-994    	;abs 0xfe22
 206:	0b 3b       	jl	$-488    	;abs 0x1e
 208:	0b 49       	mov	r9,	r11	
 20a:	13 02       	.word	0x0213;	????	
 20c:	06 00       	.word	0x0006;	????	
 20e:	00 11       	rra	r0		
 210:	34 00       	.word	0x0034;	????	
 212:	03 0e       	.word	0x0e03;	????	
 214:	3a 0b       	.word	0x0b3a;	????	
 216:	3b 0b       	.word	0x0b3b;	????	
 218:	49 13       	.word	0x1349;	????	
 21a:	02 0a       	.word	0x0a02;	????	
 21c:	00 00       	.word	0x0000;	????	
 21e:	12 1d       	.word	0x1d12;	????	
 220:	01 31       	jn	$+516    	;abs 0x424
 222:	13 11       	rra	#1		;r3 As==01
 224:	01 12       	push	r1		
 226:	01 58       	add	r8,	r1	
 228:	0b 59       	add	r9,	r11	
 22a:	0b 01       	.word	0x010b;	????	
 22c:	13 00       	.word	0x0013;	????	
 22e:	00 13       	reti			
 230:	05 00       	.word	0x0005;	????	
 232:	31 13       	reti			;return from interupt
 234:	02 06       	.word	0x0602;	????	
 236:	00 00       	.word	0x0000;	????	
 238:	14 0b       	.word	0x0b14;	????	
 23a:	01 11       	rra	r1		
 23c:	01 12       	push	r1		
 23e:	01 00       	.word	0x0001;	????	
 240:	00 15       	.word	0x1500;	????	
 242:	34 00       	.word	0x0034;	????	
 244:	31 13       	reti			;return from interupt
 246:	02 06       	.word	0x0602;	????	
 248:	00 00       	.word	0x0000;	????	
 24a:	16 34       	jge	$+46     	;abs 0x278
 24c:	00 03       	.word	0x0300;	????	
 24e:	08 3a       	jl	$-1006   	;abs 0xfe60
 250:	0b 3b       	jl	$-488    	;abs 0x68
 252:	0b 49       	mov	r9,	r11	
 254:	13 02       	.word	0x0213;	????	
 256:	06 00       	.word	0x0006;	????	
 258:	00 17       	.word	0x1700;	????	
 25a:	15 01       	.word	0x0115;	????	
 25c:	27 0c       	.word	0x0c27;	????	
 25e:	49 13       	.word	0x1349;	????	
 260:	01 13       	reti			;return from interupt
 262:	00 00       	.word	0x0000;	????	
 264:	18 05       	.word	0x0518;	????	
 266:	00 49       	br	r9		
 268:	13 00       	.word	0x0013;	????	
 26a:	00 19       	.word	0x1900;	????	
 26c:	01 01       	.word	0x0101;	????	
 26e:	49 13       	.word	0x1349;	????	
 270:	01 13       	reti			;return from interupt
 272:	00 00       	.word	0x0000;	????	
 274:	1a 21       	jnz	$+566    	;abs 0x4aa
 276:	00 49       	br	r9		
 278:	13 2f       	jc	$-472    	;abs 0xa0
 27a:	0b 00       	.word	0x000b;	????	
 27c:	00 1b       	.word	0x1b00;	????	
 27e:	2e 01       	.word	0x012e;	????	
 280:	3f 0c       	.word	0x0c3f;	????	
 282:	03 0e       	.word	0x0e03;	????	
 284:	3a 0b       	.word	0x0b3a;	????	
 286:	3b 0b       	.word	0x0b3b;	????	
 288:	27 0c       	.word	0x0c27;	????	
 28a:	49 13       	.word	0x1349;	????	
 28c:	11 01       	.word	0x0111;	????	
 28e:	12 01       	.word	0x0112;	????	
 290:	40 06       	.word	0x0640;	????	
 292:	01 13       	reti			;return from interupt
 294:	00 00       	.word	0x0000;	????	
 296:	1c 04       	.word	0x041c;	????	
 298:	01 0b       	.word	0x0b01;	????	
 29a:	0b 3a       	jl	$-1000   	;abs 0xfeb2
 29c:	0b 3b       	jl	$-488    	;abs 0xb4
 29e:	0b 01       	.word	0x010b;	????	
 2a0:	13 00       	.word	0x0013;	????	
 2a2:	00 1d       	.word	0x1d00;	????	
 2a4:	28 00       	.word	0x0028;	????	
 2a6:	03 0e       	.word	0x0e03;	????	
 2a8:	1c 0d       	.word	0x0d1c;	????	
 2aa:	00 00       	.word	0x0000;	????	
 2ac:	1e 34       	jge	$+62     	;abs 0x2ea
 2ae:	00 03       	.word	0x0300;	????	
 2b0:	0e 3a       	jl	$-994    	;abs 0xfece
 2b2:	0b 3b       	jl	$-488    	;abs 0xca
 2b4:	05 49       	mov	r9,	r5	
 2b6:	13 02       	.word	0x0213;	????	
 2b8:	0a 00       	.word	0x000a;	????	
 2ba:	00 1f       	.word	0x1f00;	????	
 2bc:	34 00       	.word	0x0034;	????	
 2be:	03 0e       	.word	0x0e03;	????	
 2c0:	3a 0b       	.word	0x0b3a;	????	
 2c2:	3b 05       	.word	0x053b;	????	
 2c4:	49 13       	.word	0x1349;	????	
 2c6:	02 06       	.word	0x0602;	????	
 2c8:	00 00       	.word	0x0000;	????	
 2ca:	20 17       	.word	0x1720;	????	
 2cc:	01 0b       	.word	0x0b01;	????	
 2ce:	0b 3a       	jl	$-1000   	;abs 0xfee6
 2d0:	0b 3b       	jl	$-488    	;abs 0xe8
 2d2:	05 01       	.word	0x0105;	????	
 2d4:	13 00       	.word	0x0013;	????	
 2d6:	00 21       	jnz	$+514    	;abs 0x4d8
 2d8:	0d 00       	.word	0x000d;	????	
 2da:	03 08       	.word	0x0803;	????	
 2dc:	3a 0b       	.word	0x0b3a;	????	
 2de:	3b 05       	.word	0x053b;	????	
 2e0:	49 13       	.word	0x1349;	????	
 2e2:	00 00       	.word	0x0000;	????	
 2e4:	22 0a       	.word	0x0a22;	????	
 2e6:	00 03       	.word	0x0300;	????	
 2e8:	0e 3a       	jl	$-994    	;abs 0xff06
 2ea:	0b 3b       	jl	$-488    	;abs 0x102
 2ec:	05 11       	rra	r5		
 2ee:	01 00       	.word	0x0001;	????	
 2f0:	00 23       	jnz	$-510    	;abs 0xf2
 2f2:	0b 01       	.word	0x010b;	????	
 2f4:	55 06       	.word	0x0655;	????	
 2f6:	01 13       	reti			;return from interupt
 2f8:	00 00       	.word	0x0000;	????	
 2fa:	24 34       	jge	$+74     	;abs 0x344
 2fc:	00 03       	.word	0x0300;	????	
 2fe:	08 3a       	jl	$-1006   	;abs 0xff10
 300:	0b 3b       	jl	$-488    	;abs 0x118
 302:	05 49       	mov	r9,	r5	
 304:	13 02       	.word	0x0213;	????	
 306:	06 00       	.word	0x0006;	????	
 308:	00 25       	jz	$+514    	;abs 0x50a
 30a:	0b 01       	.word	0x010b;	????	
 30c:	11 01       	.word	0x0111;	????	
 30e:	12 01       	.word	0x0112;	????	
 310:	01 13       	reti			;return from interupt
 312:	00 00       	.word	0x0000;	????	
 314:	26 01       	.word	0x0126;	????	
 316:	01 49       	mov	r9,	r1	
 318:	13 00       	.word	0x0013;	????	
 31a:	00 00       	.word	0x0000;	????	
 31c:	01 11       	rra	r1		
 31e:	00 10       	rrc	r0		
 320:	06 11       	rra	r6		
 322:	01 12       	push	r1		
 324:	01 03       	.word	0x0301;	????	
 326:	08 1b       	.word	0x1b08;	????	
 328:	08 25       	jz	$+530    	;abs 0x53a
 32a:	08 13       	reti			;return from interupt
 32c:	05 00       	.word	0x0005;	????	
 32e:	00 00       	.word	0x0000;	????	
 330:	01 11       	rra	r1		
 332:	00 10       	rrc	r0		
 334:	06 11       	rra	r6		
 336:	01 12       	push	r1		
 338:	01 03       	.word	0x0301;	????	
 33a:	08 1b       	.word	0x1b08;	????	
 33c:	08 25       	jz	$+530    	;abs 0x54e
 33e:	08 13       	reti			;return from interupt
 340:	05 00       	.word	0x0005;	????	
 342:	00 00       	.word	0x0000;	????	
 344:	01 11       	rra	r1		
 346:	00 10       	rrc	r0		
 348:	06 11       	rra	r6		
 34a:	01 12       	push	r1		
 34c:	01 03       	.word	0x0301;	????	
 34e:	08 1b       	.word	0x1b08;	????	
 350:	08 25       	jz	$+530    	;abs 0x562
 352:	08 13       	reti			;return from interupt
 354:	05 00       	.word	0x0005;	????	
 356:	00 00       	.word	0x0000;	????	
 358:	01 11       	rra	r1		
 35a:	00 10       	rrc	r0		
 35c:	06 11       	rra	r6		
 35e:	01 12       	push	r1		
 360:	01 03       	.word	0x0301;	????	
 362:	08 1b       	.word	0x1b08;	????	
 364:	08 25       	jz	$+530    	;abs 0x576
 366:	08 13       	reti			;return from interupt
 368:	05 00       	.word	0x0005;	????	
 36a:	00 00       	.word	0x0000;	????	
 36c:	01 11       	rra	r1		
 36e:	00 10       	rrc	r0		
 370:	06 11       	rra	r6		
 372:	01 12       	push	r1		
 374:	01 03       	.word	0x0301;	????	
 376:	08 1b       	.word	0x1b08;	????	
 378:	08 25       	jz	$+530    	;abs 0x58a
 37a:	08 13       	reti			;return from interupt
 37c:	05 00       	.word	0x0005;	????	
 37e:	00 00       	.word	0x0000;	????	
 380:	01 11       	rra	r1		
 382:	00 10       	rrc	r0		
 384:	06 11       	rra	r6		
 386:	01 12       	push	r1		
 388:	01 03       	.word	0x0301;	????	
 38a:	08 1b       	.word	0x1b08;	????	
 38c:	08 25       	jz	$+530    	;abs 0x59e
 38e:	08 13       	reti			;return from interupt
 390:	05 00       	.word	0x0005;	????	
 392:	00 00       	.word	0x0000;	????	
 394:	01 11       	rra	r1		
 396:	00 10       	rrc	r0		
 398:	06 11       	rra	r6		
 39a:	01 12       	push	r1		
 39c:	01 03       	.word	0x0301;	????	
 39e:	08 1b       	.word	0x1b08;	????	
 3a0:	08 25       	jz	$+530    	;abs 0x5b2
 3a2:	08 13       	reti			;return from interupt
 3a4:	05 00       	.word	0x0005;	????	
 3a6:	00 00       	.word	0x0000;	????	
 3a8:	01 11       	rra	r1		
 3aa:	00 10       	rrc	r0		
 3ac:	06 11       	rra	r6		
 3ae:	01 12       	push	r1		
 3b0:	01 03       	.word	0x0301;	????	
 3b2:	08 1b       	.word	0x1b08;	????	
 3b4:	08 25       	jz	$+530    	;abs 0x5c6
 3b6:	08 13       	reti			;return from interupt
 3b8:	05 00       	.word	0x0005;	????	
	...

Disassembly of section .debug_line:

00000000 <.debug_line>:
   0:	98 00       	.word	0x0098;	????	
   2:	00 00       	.word	0x0000;	????	
   4:	02 00       	.word	0x0002;	????	
   6:	76 00       	.word	0x0076;	????	
   8:	00 00       	.word	0x0000;	????	
   a:	01 01       	.word	0x0101;	????	
   c:	fb 0e       	.word	0x0efb;	????	
   e:	0d 00       	.word	0x000d;	????	
  10:	01 01       	.word	0x0101;	????	
  12:	01 01       	.word	0x0101;	????	
  14:	00 00       	.word	0x0000;	????	
  16:	00 01       	.word	0x0100;	????	
  18:	00 00       	.word	0x0000;	????	
  1a:	01 2f       	jc	$-508    	;abs 0xfe1e
  1c:	62 75       	subc.b	@r5,	r2	
  1e:	69 6c       	addc.b	@r12,	r9	
  20:	64 2f       	jc	$-310    	;abs 0xfeea
  22:	62 75       	subc.b	@r5,	r2	
  24:	69 6c       	addc.b	@r12,	r9	
  26:	64 64       	addc.b	@r4,	r4	
  28:	2f 67       	addc	@r7,	r15	
  2a:	63 63       	.word	0x6363;	????	Illegal as 2-op instr
  2c:	2d 6d       	addc	@r13,	r13	
  2e:	73 70       	.word	0x7073;	????	Illegal as 2-op instr
  30:	34 33       	jn	$-406    	;abs 0xfe9a
  32:	30 2d       	jc	$+610    	;abs 0x294
  34:	34 2e       	jc	$-918    	;abs 0xfc9e
  36:	36 2e       	jc	$-914    	;abs 0xfca4
  38:	33 7e       	.word	0x7e33;	????	Illegal as 2-op instr
  3a:	6d 73       	subc.b	#2,	r13	;r3 As==10
  3c:	70 67       	addc.b	@r7+,	r0	
  3e:	63 63       	.word	0x6363;	????	Illegal as 2-op instr
  40:	2d 32       	jn	$-932    	;abs 0xfc9c
  42:	30 31       	jn	$+610    	;abs 0x2a4
  44:	32 30       	jn	$+102    	;abs 0xaa
  46:	34 30       	jn	$+106    	;abs 0xb0
  48:	36 2f       	jc	$-402    	;abs 0xfeb6
  4a:	2e 2f       	jc	$-418    	;abs 0xfea8
  4c:	67 63       	addc.b	#2,	r7	;r3 As==10
  4e:	63 2d       	jc	$+712    	;abs 0x316
  50:	34 2e       	jc	$-918    	;abs 0xfcba
  52:	36 2e       	jc	$-914    	;abs 0xfcc0
  54:	33 2f       	jc	$-408    	;abs 0xfebc
  56:	6c 69       	addc.b	@r9,	r12	
  58:	62 67       	addc.b	@r7,	r2	
  5a:	63 63       	.word	0x6363;	????	Illegal as 2-op instr
  5c:	2f 2e       	jc	$-928    	;abs 0xfcbc
  5e:	2e 2f       	jc	$-418    	;abs 0xfebc
  60:	67 63       	addc.b	#2,	r7	;r3 As==10
  62:	63 2f       	jc	$-312    	;abs 0xff2a
  64:	63 6f       	.word	0x6f63;	????	Illegal as 2-op instr
  66:	6e 66       	addc.b	@r6,	r14	
  68:	69 67       	addc.b	@r7,	r9	
  6a:	2f 6d       	addc	@r13,	r15	
  6c:	73 70       	.word	0x7073;	????	Illegal as 2-op instr
  6e:	34 33       	jn	$-406    	;abs 0xfed8
  70:	30 00       	.word	0x0030;	????	
  72:	00 6c       	addc	r12,	r0	
  74:	69 62       	addc.b	#4,	r9	;r2 As==10
  76:	67 63       	addc.b	#2,	r7	;r3 As==10
  78:	63 2e       	jc	$-824    	;abs 0xfd40
  7a:	53 00       	.word	0x0053;	????	
  7c:	01 00       	.word	0x0001;	????	
  7e:	00 00       	.word	0x0000;	????	
  80:	00 03       	.word	0x0300;	????	
  82:	02 ec       	xor	r12,	r2	
  84:	c9 03       	.word	0x03c9;	????	
  86:	a4 04       	.word	0x04a4;	????	
  88:	01 4b       	mov	r11,	r1	
  8a:	2f 2f       	jc	$-416    	;abs 0xfeea
  8c:	2f 2f       	jc	$-416    	;abs 0xfeec
  8e:	2f 2f       	jc	$-416    	;abs 0xfeee
  90:	2f 2f       	jc	$-416    	;abs 0xfef0
  92:	2f 2f       	jc	$-416    	;abs 0xfef2
  94:	34 4b       	mov	@r11+,	r4	
  96:	2f 02       	.word	0x022f;	????	
  98:	02 00       	.word	0x0002;	????	
  9a:	01 01       	.word	0x0101;	????	
  9c:	a3 00       	.word	0x00a3;	????	
  9e:	00 00       	.word	0x0000;	????	
  a0:	02 00       	.word	0x0002;	????	
  a2:	76 00       	.word	0x0076;	????	
  a4:	00 00       	.word	0x0000;	????	
  a6:	01 01       	.word	0x0101;	????	
  a8:	fb 0e       	.word	0x0efb;	????	
  aa:	0d 00       	.word	0x000d;	????	
  ac:	01 01       	.word	0x0101;	????	
  ae:	01 01       	.word	0x0101;	????	
  b0:	00 00       	.word	0x0000;	????	
  b2:	00 01       	.word	0x0100;	????	
  b4:	00 00       	.word	0x0000;	????	
  b6:	01 2f       	jc	$-508    	;abs 0xfeba
  b8:	62 75       	subc.b	@r5,	r2	
  ba:	69 6c       	addc.b	@r12,	r9	
  bc:	64 2f       	jc	$-310    	;abs 0xff86
  be:	62 75       	subc.b	@r5,	r2	
  c0:	69 6c       	addc.b	@r12,	r9	
  c2:	64 64       	addc.b	@r4,	r4	
  c4:	2f 67       	addc	@r7,	r15	
  c6:	63 63       	.word	0x6363;	????	Illegal as 2-op instr
  c8:	2d 6d       	addc	@r13,	r13	
  ca:	73 70       	.word	0x7073;	????	Illegal as 2-op instr
  cc:	34 33       	jn	$-406    	;abs 0xff36
  ce:	30 2d       	jc	$+610    	;abs 0x330
  d0:	34 2e       	jc	$-918    	;abs 0xfd3a
  d2:	36 2e       	jc	$-914    	;abs 0xfd40
  d4:	33 7e       	.word	0x7e33;	????	Illegal as 2-op instr
  d6:	6d 73       	subc.b	#2,	r13	;r3 As==10
  d8:	70 67       	addc.b	@r7+,	r0	
  da:	63 63       	.word	0x6363;	????	Illegal as 2-op instr
  dc:	2d 32       	jn	$-932    	;abs 0xfd38
  de:	30 31       	jn	$+610    	;abs 0x340
  e0:	32 30       	jn	$+102    	;abs 0x146
  e2:	34 30       	jn	$+106    	;abs 0x14c
  e4:	36 2f       	jc	$-402    	;abs 0xff52
  e6:	2e 2f       	jc	$-418    	;abs 0xff44
  e8:	67 63       	addc.b	#2,	r7	;r3 As==10
  ea:	63 2d       	jc	$+712    	;abs 0x3b2
  ec:	34 2e       	jc	$-918    	;abs 0xfd56
  ee:	36 2e       	jc	$-914    	;abs 0xfd5c
  f0:	33 2f       	jc	$-408    	;abs 0xff58
  f2:	6c 69       	addc.b	@r9,	r12	
  f4:	62 67       	addc.b	@r7,	r2	
  f6:	63 63       	.word	0x6363;	????	Illegal as 2-op instr
  f8:	2f 2e       	jc	$-928    	;abs 0xfd58
  fa:	2e 2f       	jc	$-418    	;abs 0xff58
  fc:	67 63       	addc.b	#2,	r7	;r3 As==10
  fe:	63 2f       	jc	$-312    	;abs 0xffc6
 100:	63 6f       	.word	0x6f63;	????	Illegal as 2-op instr
 102:	6e 66       	addc.b	@r6,	r14	
 104:	69 67       	addc.b	@r7,	r9	
 106:	2f 6d       	addc	@r13,	r15	
 108:	73 70       	.word	0x7073;	????	Illegal as 2-op instr
 10a:	34 33       	jn	$-406    	;abs 0xff74
 10c:	30 00       	.word	0x0030;	????	
 10e:	00 6c       	addc	r12,	r0	
 110:	69 62       	addc.b	#4,	r9	;r2 As==10
 112:	67 63       	addc.b	#2,	r7	;r3 As==10
 114:	63 2e       	jc	$-824    	;abs 0xfddc
 116:	53 00       	.word	0x0053;	????	
 118:	01 00       	.word	0x0001;	????	
 11a:	00 00       	.word	0x0000;	????	
 11c:	00 03       	.word	0x0300;	????	
 11e:	02 0e       	.word	0x0e02;	????	
 120:	ca 03       	.word	0x03ca;	????	
 122:	c6 04       	.word	0x04c6;	????	
 124:	01 2f       	jc	$-508    	;abs 0xff28
 126:	2f 2f       	jc	$-416    	;abs 0xff86
 128:	4b 2f       	jc	$-360    	;abs 0xffc0
 12a:	2f 2f       	jc	$-416    	;abs 0xff8a
 12c:	2f 2f       	jc	$-416    	;abs 0xff8c
 12e:	2f 2f       	jc	$-416    	;abs 0xff8e
 130:	2f 4b       	mov	@r11,	r15	
 132:	2f 2f       	jc	$-416    	;abs 0xff92
 134:	2f 2f       	jc	$-416    	;abs 0xff94
 136:	2f 2f       	jc	$-416    	;abs 0xff96
 138:	2f 2f       	jc	$-416    	;abs 0xff98
 13a:	2f 34       	jge	$+96     	;abs 0x19a
 13c:	4b 2f       	jc	$-360    	;abs 0xffd4
 13e:	02 02       	.word	0x0202;	????	
 140:	00 01       	.word	0x0100;	????	
 142:	01 98       	cmp	r8,	r1	
 144:	00 00       	.word	0x0000;	????	
 146:	00 02       	.word	0x0200;	????	
 148:	00 63       	adc	r0		
 14a:	00 00       	.word	0x0000;	????	
 14c:	00 01       	.word	0x0100;	????	
 14e:	01 fb       	and	r11,	r1	
 150:	0e 0d       	.word	0x0d0e;	????	
 152:	00 01       	.word	0x0100;	????	
 154:	01 01       	.word	0x0101;	????	
 156:	01 00       	.word	0x0001;	????	
 158:	00 00       	.word	0x0000;	????	
 15a:	01 00       	.word	0x0001;	????	
 15c:	00 01       	.word	0x0100;	????	
 15e:	2e 2f       	jc	$-418    	;abs 0xffbc
 160:	73 74       	.word	0x7473;	????	Illegal as 2-op instr
 162:	64 6c       	addc.b	@r12,	r4	
 164:	69 62       	addc.b	#4,	r9	;r2 As==10
 166:	00 2f       	jc	$-510    	;abs 0xff68
 168:	75 73       	subc.b	#-1,	r5	;r3 As==11
 16a:	72 2f       	jc	$-282    	;abs 0x50
 16c:	6c 69       	addc.b	@r9,	r12	
 16e:	62 2f       	jc	$-314    	;abs 0x34
 170:	67 63       	addc.b	#2,	r7	;r3 As==10
 172:	63 2f       	jc	$-312    	;abs 0x3a
 174:	6d 73       	subc.b	#2,	r13	;r3 As==10
 176:	70 34       	jge	$+226    	;abs 0x258
 178:	33 30       	jn	$+104    	;abs 0x1e0
 17a:	2f 34       	jge	$+96     	;abs 0x1da
 17c:	2e 36       	jge	$-930    	;abs 0xfdda
 17e:	2e 33       	jn	$-418    	;abs 0xffdc
 180:	2f 69       	addc	@r9,	r15	
 182:	6e 63       	addc.b	#2,	r14	;r3 As==10
 184:	6c 75       	subc.b	@r5,	r12	
 186:	64 65       	addc.b	@r5,	r4	
 188:	00 00       	.word	0x0000;	????	
 18a:	73 70       	.word	0x7073;	????	Illegal as 2-op instr
 18c:	72 69       	addc.b	@r9+,	r2	
 18e:	6e 74       	subc.b	@r4,	r14	
 190:	66 2e       	jc	$-818    	;abs 0xfe5e
 192:	63 00       	.word	0x0063;	????	
 194:	01 00       	.word	0x0001;	????	
 196:	00 73       	sbc	r0		
 198:	74 64       	addc.b	@r4+,	r4	
 19a:	64 65       	addc.b	@r5,	r4	
 19c:	66 2e       	jc	$-818    	;abs 0xfe6a
 19e:	68 00       	.word	0x0068;	????	
 1a0:	02 00       	.word	0x0002;	????	
 1a2:	00 73       	sbc	r0		
 1a4:	74 64       	addc.b	@r4+,	r4	
 1a6:	61 72       	subc.b	#4,	r1	;r2 As==10
 1a8:	67 2e       	jc	$-816    	;abs 0xfe78
 1aa:	68 00       	.word	0x0068;	????	
 1ac:	02 00       	.word	0x0002;	????	
 1ae:	00 00       	.word	0x0000;	????	
 1b0:	00 03       	.word	0x0300;	????	
 1b2:	02 48       	mov	r8,	r2	
 1b4:	ca 03       	.word	0x03ca;	????	
 1b6:	2e 01       	.word	0x012e;	????	
 1b8:	13 84       	.word	0x8413;	????	Illegal as 2-op instr
 1ba:	d7 67 2b 32 	addc.b	12843(r7),-24782(r7);0x322b(r7), 0x9f32(r7)
 1be:	32 9f 
 1c0:	4b 4d       	mov.b	r13,	r11	
 1c2:	bc 4b a0 84 	mov	@r11+,	-31584(r12);0x84a0(r12)
 1c6:	86 16       	.word	0x1686;	????	
 1c8:	67 67       	addc.b	@r7,	r7	
 1ca:	d7 32       	jn	$-592    	;abs 0xff7a
 1cc:	16 67 67 bb 	addc	-17561(r7),r6	;0xbb67(r7)
 1d0:	32 2f       	jc	$-410    	;abs 0x36
 1d2:	4b 67       	addc.b	r7,	r11	
 1d4:	83 32       	jn	$-760    	;abs 0xfedc
 1d6:	13 4b       	.word	0x4b13;	????	Illegal as 2-op instr
 1d8:	4b 83       	sub.b	#0,	r11	;r3 As==00
 1da:	02 02       	.word	0x0202;	????	
 1dc:	00 01       	.word	0x0100;	????	
 1de:	01 ce       	bic	r14,	r1	
 1e0:	02 00       	.word	0x0002;	????	
 1e2:	00 02       	.word	0x0200;	????	
 1e4:	00 71       	subc	r1,	r0	
 1e6:	00 00       	.word	0x0000;	????	
 1e8:	00 01       	.word	0x0100;	????	
 1ea:	01 fb       	and	r11,	r1	
 1ec:	0e 0d       	.word	0x0d0e;	????	
 1ee:	00 01       	.word	0x0100;	????	
 1f0:	01 01       	.word	0x0101;	????	
 1f2:	01 00       	.word	0x0001;	????	
 1f4:	00 00       	.word	0x0000;	????	
 1f6:	01 00       	.word	0x0001;	????	
 1f8:	00 01       	.word	0x0100;	????	
 1fa:	2e 2f       	jc	$-418    	;abs 0x58
 1fc:	73 74       	.word	0x7473;	????	Illegal as 2-op instr
 1fe:	64 6c       	addc.b	@r12,	r4	
 200:	69 62       	addc.b	#4,	r9	;r2 As==10
 202:	00 2e       	jc	$-1022   	;abs 0xfe04
 204:	2f 2e       	jc	$-928    	;abs 0xfe64
 206:	2e 2f       	jc	$-418    	;abs 0x64
 208:	69 6e       	addc.b	@r14,	r9	
 20a:	63 6c       	.word	0x6c63;	????	Illegal as 2-op instr
 20c:	75 64       	addc.b	@r4+,	r5	
 20e:	65 00       	.word	0x0065;	????	
 210:	2f 75       	subc	@r5,	r15	
 212:	73 72       	.word	0x7273;	????	Illegal as 2-op instr
 214:	2f 6c       	addc	@r12,	r15	
 216:	69 62       	addc.b	#4,	r9	;r2 As==10
 218:	2f 67       	addc	@r7,	r15	
 21a:	63 63       	.word	0x6363;	????	Illegal as 2-op instr
 21c:	2f 6d       	addc	@r13,	r15	
 21e:	73 70       	.word	0x7073;	????	Illegal as 2-op instr
 220:	34 33       	jn	$-406    	;abs 0x8a
 222:	30 2f       	jc	$-414    	;abs 0x84
 224:	34 2e       	jc	$-918    	;abs 0xfe8e
 226:	36 2e       	jc	$-914    	;abs 0xfe94
 228:	33 2f       	jc	$-408    	;abs 0x90
 22a:	69 6e       	addc.b	@r14,	r9	
 22c:	63 6c       	.word	0x6c63;	????	Illegal as 2-op instr
 22e:	75 64       	addc.b	@r4+,	r5	
 230:	65 00       	.word	0x0065;	????	
 232:	00 76       	subc	r6,	r0	
 234:	75 70 72 69 	subc.b	#26994,	r5	;#0x6972
 238:	6e 74       	subc.b	@r4,	r14	
 23a:	66 2e       	jc	$-818    	;abs 0xff08
 23c:	63 00       	.word	0x0063;	????	
 23e:	01 00       	.word	0x0001;	????	
 240:	00 73       	sbc	r0		
 242:	74 64       	addc.b	@r4+,	r4	
 244:	69 6e       	addc.b	@r14,	r9	
 246:	74 2e       	jc	$-790    	;abs 0xff30
 248:	68 00       	.word	0x0068;	????	
 24a:	02 00       	.word	0x0002;	????	
 24c:	00 73       	sbc	r0		
 24e:	74 64       	addc.b	@r4+,	r4	
 250:	61 72       	subc.b	#4,	r1	;r2 As==10
 252:	67 2e       	jc	$-816    	;abs 0xff22
 254:	68 00       	.word	0x0068;	????	
 256:	03 00       	.word	0x0003;	????	
 258:	00 00       	.word	0x0000;	????	
 25a:	00 03       	.word	0x0300;	????	
 25c:	02 04       	.word	0x0402;	????	
 25e:	cb 03       	.word	0x03cb;	????	
 260:	fb 00       	.word	0x00fb;	????	
 262:	01 03       	.word	0x0301;	????	
 264:	3c 02       	.word	0x023c;	????	
 266:	22 01       	.word	0x0122;	????	
 268:	03 48       	.word	0x4803;	????	Illegal as 2-op instr
 26a:	66 03       	.word	0x0366;	????	
 26c:	63 2e       	jc	$-824    	;abs 0xff34
 26e:	84 67 08 ae 	addc	r7,	-20984(r4);0xae08(r4)
 272:	67 83       	decd.b	r7		
 274:	4b 03       	.word	0x034b;	????	
 276:	77 9e       	cmp.b	@r14+,	r7	
 278:	03 0a       	.word	0x0a03;	????	
 27a:	2e 03       	.word	0x032e;	????	
 27c:	17 08       	.word	0x0817;	????	
 27e:	c8 b7 4e 31 	bit.b	r7,	12622(r8);0x314e(r8)
 282:	85 08       	.word	0x0885;	????	
 284:	23 4b       	.word	0x4b23;	????	Illegal as 2-op instr
 286:	4c 31       	jn	$+666    	;abs 0x520
 288:	68 4b       	mov.b	@r11,	r8	
 28a:	4c 2c       	jc	$+154    	;abs 0x324
 28c:	03 0a       	.word	0x0a03;	????	
 28e:	82 03       	.word	0x0382;	????	
 290:	69 4a       	mov.b	@r10,	r9	
 292:	03 76       	.word	0x7603;	????	Illegal as 2-op instr
 294:	66 2c       	jc	$+206    	;abs 0x362
 296:	47 03       	.word	0x0347;	????	
 298:	2b 4a       	mov	@r10,	r11	
 29a:	99 00       	.word	0x0099;	????	
 29c:	02 04       	.word	0x0402;	????	
 29e:	01 32       	jn	$-1020   	;abs 0xfea2
 2a0:	06 4a       	mov	r10,	r6	
 2a2:	06 2c       	jc	$+14     	;abs 0x2b0
 2a4:	00 02       	.word	0x0200;	????	
 2a6:	04 01       	.word	0x0104;	????	
 2a8:	03 58       	.word	0x5803;	????	Illegal as 2-op instr
 2aa:	66 03       	.word	0x0366;	????	
 2ac:	30 4a       	br	@r10+		
 2ae:	83 00       	.word	0x0083;	????	
 2b0:	02 04       	.word	0x0402;	????	
 2b2:	01 2b       	jnc	$-508    	;abs 0xb6
 2b4:	03 57       	.word	0x5703;	????	Illegal as 2-op instr
 2b6:	9e 2c       	jc	$+318    	;abs 0x3f4
 2b8:	03 36       	jge	$-1016   	;abs 0xfec0
 2ba:	4a 03       	.word	0x034a;	????	
 2bc:	47 2e       	jc	$-880    	;abs 0xff4c
 2be:	03 3a       	jl	$-1016   	;abs 0xfec6
 2c0:	4a 00       	.word	0x004a;	????	
 2c2:	02 04       	.word	0x0402;	????	
 2c4:	01 7f       	subc	r15,	r1	
 2c6:	51 00       	.word	0x0051;	????	
 2c8:	02 04       	.word	0x0402;	????	
 2ca:	01 06       	.word	0x0601;	????	
 2cc:	66 00       	.word	0x0066;	????	
 2ce:	02 04       	.word	0x0402;	????	
 2d0:	01 06       	.word	0x0601;	????	
 2d2:	03 42       	.word	0x4203;	????	Illegal as 2-op instr
 2d4:	4a 03       	.word	0x034a;	????	
 2d6:	c2 00       	.word	0x00c2;	????	
 2d8:	82 00       	.word	0x0082;	????	
 2da:	02 04       	.word	0x0402;	????	
 2dc:	01 80       	sub	r0,	r1	
 2de:	03 40       	.word	0x4003;	????	Illegal as 2-op instr
 2e0:	4a 03       	.word	0x034a;	????	
 2e2:	c0 00       	.word	0x00c0;	????	
 2e4:	2e 52       	add	#4,	r14	;r2 As==10
 2e6:	30 4c       	br	@r12+		
 2e8:	00 02       	.word	0x0200;	????	
 2ea:	04 01       	.word	0x0104;	????	
 2ec:	03 b4       	.word	0xb403;	????	Illegal as 2-op instr
 2ee:	7f 2e       	jc	$-768    	;abs 0xffee
 2f0:	00 02       	.word	0x0200;	????	
 2f2:	04 01       	.word	0x0104;	????	
 2f4:	03 c8       	.word	0xc803;	????	Illegal as 2-op instr
 2f6:	00 4a       	br	r10		
 2f8:	00 02       	.word	0x0200;	????	
 2fa:	04 02       	.word	0x0204;	????	
 2fc:	06 66       	rlc	r6		
 2fe:	06 03       	.word	0x0306;	????	
 300:	09 66       	addc	r6,	r9	
 302:	67 00       	.word	0x0067;	????	
 304:	02 04       	.word	0x0402;	????	
 306:	01 2b       	jnc	$-508    	;abs 0x10a
 308:	51 03       	.word	0x0351;	????	
 30a:	2a 08       	.word	0x082a;	????	
 30c:	58 08       	.word	0x0858;	????	
 30e:	b3 51       	add	@r1+,	#1	;r3 As==01
 310:	49 49       	mov.b	r9,	r9	
 312:	49 03       	.word	0x0349;	????	
 314:	7a 4a       	mov.b	@r10+,	r10	
 316:	49 49       	mov.b	r9,	r9	
 318:	2c 03       	.word	0x032c;	????	
 31a:	b8 02       	.word	0x02b8;	????	
 31c:	4a 03       	.word	0x034a;	????	
 31e:	e3 7d       	subc.b	@r13,	#1	;r3 As==01
 320:	9e bc 4e 69 	bit	26958(r12),-3909(r14);0x694e(r12), 0xf0bb(r14)
 324:	bb f0 
 326:	03 fd       	.word	0xfd03;	????	Illegal as 2-op instr
 328:	00 82       	sub	r2,	r0	
 32a:	03 8c       	.word	0x8c03;	????	Illegal as 2-op instr
 32c:	7f 2e       	jc	$-768    	;abs 0x2c
 32e:	83 89       	sub	r9,	#1	;r3 As==01
 330:	00 02       	.word	0x0200;	????	
 332:	04 01       	.word	0x0104;	????	
 334:	06 02       	.word	0x0206;	????	
 336:	9a 01       	.word	0x019a;	????	
 338:	12 00       	.word	0x0012;	????	
 33a:	02 04       	.word	0x0402;	????	
 33c:	01 06       	.word	0x0601;	????	
 33e:	03 4a       	.word	0x4a03;	????	Illegal as 2-op instr
 340:	4a 03       	.word	0x034a;	????	
 342:	d3 01       	.word	0x01d3;	????	
 344:	9e 03       	.word	0x039e;	????	
 346:	eb 7e 66 88 	subc.b	@r14,	-30618(r11);0x8866(r11)
 34a:	84 4b 51 03 	mov	r11,	849(r4)	;0x0351(r4)
 34e:	0b 9e       	cmp	r14,	r11	
 350:	a3 a4       	dadd	@r4,	#1	;r3 As==01
 352:	bb a3 a4 88 	dadd	#-1,	-30556(r11);r3 As==11, 0x88a4(r11)
 356:	68 4b       	mov.b	@r11,	r8	
 358:	67 a2       	dadd.b	#4,	r7	;r2 As==10
 35a:	67 03       	.word	0x0367;	????	
 35c:	77 9e       	cmp.b	@r14+,	r7	
 35e:	03 16       	.word	0x1603;	????	
 360:	4a 00       	.word	0x004a;	????	
 362:	02 04       	.word	0x0402;	????	
 364:	01 06       	.word	0x0601;	????	
 366:	66 06       	.word	0x0666;	????	
 368:	68 03       	.word	0x0368;	????	
 36a:	0d 02       	.word	0x020d;	????	
 36c:	24 01       	.word	0x0124;	????	
 36e:	08 21       	jnz	$+530    	;abs 0x580
 370:	bb 87 67 00 	sub	@r7+,	103(r11);0x0067(r11)
 374:	02 04       	.word	0x0402;	????	
 376:	01 06       	.word	0x0601;	????	
 378:	66 06       	.word	0x0666;	????	
 37a:	69 4b       	mov.b	@r11,	r9	
 37c:	48 4d       	mov.b	r13,	r8	
 37e:	33 6a       	.word	0x6a33;	????	Illegal as 2-op instr
 380:	68 4b       	mov.b	@r11,	r8	
 382:	a0 bc 00 02 	bit	@r12,	512(r0)	;PC rel. 0x0584
 386:	04 03       	.word	0x0304;	????	
 388:	06 82       	sub	r2,	r6	
 38a:	00 02       	.word	0x0200;	????	
 38c:	04 03       	.word	0x0304;	????	
 38e:	06 08       	.word	0x0806;	????	
 390:	95 6c a1 08 	addc	2209(r12),12429(r5);0x08a1(r12), 0x308d(r5)
 394:	8d 30 
 396:	68 32       	jn	$-814    	;abs 0x68
 398:	03 0e       	.word	0x0e03;	????	
 39a:	66 4e       	mov.b	@r14,	r6	
 39c:	03 71       	.word	0x7103;	????	Illegal as 2-op instr
 39e:	82 03       	.word	0x0382;	????	
 3a0:	13 66       	.word	0x6613;	????	Illegal as 2-op instr
 3a2:	68 02       	.word	0x0268;	????	
 3a4:	22 13       	reti			;return from interupt
 3a6:	08 75       	subc	r5,	r8	
 3a8:	9c 51 30 2c 	add	11312(r1),-3280(r12);0x2c30(r1), 0xf330(r12)
 3ac:	30 f3 
 3ae:	a4 83 bb 9c 	decd	-25413(r4)	;0x9cbb(r4)
 3b2:	36 00       	.word	0x0036;	????	
 3b4:	02 04       	.word	0x0402;	????	
 3b6:	01 06       	.word	0x0601;	????	
 3b8:	66 06       	.word	0x0666;	????	
 3ba:	84 83 67 67 	sub	#0,	26471(r4);r3 As==00, 0x6767(r4)
 3be:	84 00       	.word	0x0084;	????	
 3c0:	02 04       	.word	0x0402;	????	
 3c2:	01 06       	.word	0x0601;	????	
 3c4:	66 06       	.word	0x0666;	????	
 3c6:	69 68       	addc.b	@r8,	r9	
 3c8:	4b 02       	.word	0x024b;	????	
 3ca:	22 16       	.word	0x1622;	????	
 3cc:	4b 08       	.word	0x084b;	????	
 3ce:	cb bf 03 11 	bit.b	r15,	4355(r11);0x1103(r11)
 3d2:	4a 00       	.word	0x004a;	????	
 3d4:	02 04       	.word	0x0402;	????	
 3d6:	07 08       	.word	0x0807;	????	
 3d8:	c9 00       	.word	0x00c9;	????	
 3da:	02 04       	.word	0x0402;	????	
 3dc:	01 06       	.word	0x0601;	????	
 3de:	02 46       	mov	r6,	r2	
 3e0:	12 00       	.word	0x0012;	????	
 3e2:	02 04       	.word	0x0402;	????	
 3e4:	02 9e       	cmp	r14,	r2	
 3e6:	82 00       	.word	0x0082;	????	
 3e8:	02 04       	.word	0x0402;	????	
 3ea:	05 9e       	cmp	r14,	r5	
 3ec:	00 02       	.word	0x0200;	????	
 3ee:	04 05       	.word	0x0504;	????	
 3f0:	06 03       	.word	0x0306;	????	
 3f2:	d9 7d 66 00 	subc.b	102(r13),1026(r9);0x0066(r13), 0x0402(r9)
 3f6:	02 04 
 3f8:	05 03       	.word	0x0305;	????	
 3fa:	a7 02       	.word	0x02a7;	????	
 3fc:	4a 00       	.word	0x004a;	????	
 3fe:	02 04       	.word	0x0402;	????	
 400:	06 06       	.word	0x0606;	????	
 402:	02 30       	jn	$+6      	;abs 0x408
 404:	12 ba 06 08 	bit	2054(r10),r2	;0x0806(r10)
 408:	24 00       	.word	0x0024;	????	
 40a:	02 04       	.word	0x0402;	????	
 40c:	07 08       	.word	0x0807;	????	
 40e:	21 00       	.word	0x0021;	????	
 410:	02 04       	.word	0x0402;	????	
 412:	01 06       	.word	0x0601;	????	
 414:	02 22       	jnz	$-1018   	;abs 0x1a
 416:	12 00       	.word	0x0012;	????	
 418:	02 04       	.word	0x0402;	????	
 41a:	02 9e       	cmp	r14,	r2	
 41c:	82 00       	.word	0x0082;	????	
 41e:	02 04       	.word	0x0402;	????	
 420:	05 9e       	cmp	r14,	r5	
 422:	00 02       	.word	0x0200;	????	
 424:	04 05       	.word	0x0504;	????	
 426:	06 03       	.word	0x0306;	????	
 428:	d4 7d 66 00 	subc.b	102(r13),1026(r4);0x0066(r13), 0x0402(r4)
 42c:	02 04 
 42e:	05 03       	.word	0x0305;	????	
 430:	ac 02       	.word	0x02ac;	????	
 432:	4a 00       	.word	0x004a;	????	
 434:	02 04       	.word	0x0402;	????	
 436:	06 06       	.word	0x0606;	????	
 438:	08 74       	subc	r4,	r8	
 43a:	4a 00       	.word	0x004a;	????	
 43c:	02 04       	.word	0x0402;	????	
 43e:	07 06       	.word	0x0607;	????	
 440:	08 3f       	jmp	$-494    	;abs 0x252
 442:	00 02       	.word	0x0200;	????	
 444:	04 01       	.word	0x0104;	????	
 446:	06 08       	.word	0x0806;	????	
 448:	20 00       	.word	0x0020;	????	
 44a:	02 04       	.word	0x0402;	????	
 44c:	02 9e       	cmp	r14,	r2	
 44e:	82 00       	.word	0x0082;	????	
 450:	02 04       	.word	0x0402;	????	
 452:	05 9e       	cmp	r14,	r5	
 454:	00 02       	.word	0x0200;	????	
 456:	04 05       	.word	0x0504;	????	
 458:	06 03       	.word	0x0306;	????	
 45a:	d1 7d 66 00 	subc.b	102(r13),1026(r1);0x0066(r13), 0x0402(r1)
 45e:	02 04 
 460:	05 03       	.word	0x0305;	????	
 462:	af 02       	.word	0x02af;	????	
 464:	4a 06       	.word	0x064a;	????	
 466:	08 20       	jnz	$+18     	;abs 0x478
 468:	06 4f       	mov	r15,	r6	
 46a:	83 4d       	mov	r13,	#1	;r3 As==01
 46c:	68 02       	.word	0x0268;	????	
 46e:	3e 13       	reti			;return from interupt
 470:	68 4b       	mov.b	@r11,	r8	
 472:	bd bc 03 09 	bit	@r12+,	2307(r13);0x0903(r13)
 476:	08 e4       	xor	r4,	r8	
 478:	00 02       	.word	0x0200;	????	
 47a:	04 01       	.word	0x0104;	????	
 47c:	03 b4       	.word	0xb403;	????	Illegal as 2-op instr
 47e:	7d 82       	sub.b	#8,	r13	;r2 As==11
 480:	00 02       	.word	0x0200;	????	
 482:	04 01       	.word	0x0104;	????	
 484:	03 ca       	.word	0xca03;	????	Illegal as 2-op instr
 486:	02 4a       	mov	r10,	r2	
 488:	06 66       	rlc	r6		
 48a:	06 87       	sub	r7,	r6	
 48c:	03 9b       	.word	0x9b03;	????	Illegal as 2-op instr
 48e:	7e 4a       	mov.b	@r10+,	r14	
 490:	6c 48       	mov.b	@r8,	r12	
 492:	6e 03       	.word	0x036e;	????	
 494:	0b 2e       	jc	$-1000   	;abs 0xac
 496:	03 7a       	.word	0x7a03;	????	Illegal as 2-op instr
 498:	4a 49       	mov.b	r9,	r10	
 49a:	00 02       	.word	0x0200;	????	
 49c:	04 01       	.word	0x0104;	????	
 49e:	03 54       	.word	0x5403;	????	Illegal as 2-op instr
 4a0:	2e 00       	.word	0x002e;	????	
 4a2:	02 04       	.word	0x0402;	????	
 4a4:	01 03       	.word	0x0301;	????	
 4a6:	4f 4a       	mov.b	r10,	r15	
 4a8:	03 b8       	.word	0xb803;	????	Illegal as 2-op instr
 4aa:	02 9e       	cmp	r14,	r2	
 4ac:	02 1a       	.word	0x1a02;	????	
 4ae:	00 01       	.word	0x0100;	????	
 4b0:	01 a7       	dadd	r7,	r1	
 4b2:	00 00       	.word	0x0000;	????	
 4b4:	00 02       	.word	0x0200;	????	
 4b6:	00 76       	subc	r6,	r0	
 4b8:	00 00       	.word	0x0000;	????	
 4ba:	00 01       	.word	0x0100;	????	
 4bc:	01 fb       	and	r11,	r1	
 4be:	0e 0d       	.word	0x0d0e;	????	
 4c0:	00 01       	.word	0x0100;	????	
 4c2:	01 01       	.word	0x0101;	????	
 4c4:	01 00       	.word	0x0001;	????	
 4c6:	00 00       	.word	0x0000;	????	
 4c8:	01 00       	.word	0x0001;	????	
 4ca:	00 01       	.word	0x0100;	????	
 4cc:	2f 62       	addc	#4,	r15	;r2 As==10
 4ce:	75 69       	addc.b	@r9+,	r5	
 4d0:	6c 64       	addc.b	@r4,	r12	
 4d2:	2f 62       	addc	#4,	r15	;r2 As==10
 4d4:	75 69       	addc.b	@r9+,	r5	
 4d6:	6c 64       	addc.b	@r4,	r12	
 4d8:	64 2f       	jc	$-310    	;abs 0x3a2
 4da:	67 63       	addc.b	#2,	r7	;r3 As==10
 4dc:	63 2d       	jc	$+712    	;abs 0x7a4
 4de:	6d 73       	subc.b	#2,	r13	;r3 As==10
 4e0:	70 34       	jge	$+226    	;abs 0x5c2
 4e2:	33 30       	jn	$+104    	;abs 0x54a
 4e4:	2d 34       	jge	$+92     	;abs 0x540
 4e6:	2e 36       	jge	$-930    	;abs 0x144
 4e8:	2e 33       	jn	$-418    	;abs 0x346
 4ea:	7e 6d       	addc.b	@r13+,	r14	
 4ec:	73 70       	.word	0x7073;	????	Illegal as 2-op instr
 4ee:	67 63       	addc.b	#2,	r7	;r3 As==10
 4f0:	63 2d       	jc	$+712    	;abs 0x7b8
 4f2:	32 30       	jn	$+102    	;abs 0x558
 4f4:	31 32       	jn	$-924    	;abs 0x158
 4f6:	30 34       	jge	$+98     	;abs 0x558
 4f8:	30 36       	jge	$-926    	;abs 0x15a
 4fa:	2f 2e       	jc	$-928    	;abs 0x15a
 4fc:	2f 67       	addc	@r7,	r15	
 4fe:	63 63       	.word	0x6363;	????	Illegal as 2-op instr
 500:	2d 34       	jge	$+92     	;abs 0x55c
 502:	2e 36       	jge	$-930    	;abs 0x160
 504:	2e 33       	jn	$-418    	;abs 0x362
 506:	2f 6c       	addc	@r12,	r15	
 508:	69 62       	addc.b	#4,	r9	;r2 As==10
 50a:	67 63       	addc.b	#2,	r7	;r3 As==10
 50c:	63 2f       	jc	$-312    	;abs 0x3d4
 50e:	2e 2e       	jc	$-930    	;abs 0x16c
 510:	2f 67       	addc	@r7,	r15	
 512:	63 63       	.word	0x6363;	????	Illegal as 2-op instr
 514:	2f 63       	addc	#2,	r15	;r3 As==10
 516:	6f 6e       	addc.b	@r14,	r15	
 518:	66 69       	addc.b	@r9,	r6	
 51a:	67 2f       	jc	$-304    	;abs 0x3ea
 51c:	6d 73       	subc.b	#2,	r13	;r3 As==10
 51e:	70 34       	jge	$+226    	;abs 0x600
 520:	33 30       	jn	$+104    	;abs 0x588
 522:	00 00       	.word	0x0000;	????	
 524:	6c 69       	addc.b	@r9,	r12	
 526:	62 67       	addc.b	@r7,	r2	
 528:	63 63       	.word	0x6363;	????	Illegal as 2-op instr
 52a:	2e 53       	incd	r14		
 52c:	00 01       	.word	0x0100;	????	
 52e:	00 00       	.word	0x0000;	????	
 530:	00 00       	.word	0x0000;	????	
 532:	03 02       	.word	0x0203;	????	
 534:	3a d3       	bis	#-1,	r10	;r3 As==11
 536:	03 f8       	.word	0xf803;	????	Illegal as 2-op instr
 538:	04 01       	.word	0x0104;	????	
 53a:	2f 2f       	jc	$-416    	;abs 0x39a
 53c:	30 4b       	br	@r11+		
 53e:	2f 2f       	jc	$-416    	;abs 0x39e
 540:	2f 2f       	jc	$-416    	;abs 0x3a0
 542:	2f 2f       	jc	$-416    	;abs 0x3a2
 544:	2f 2f       	jc	$-416    	;abs 0x3a4
 546:	2f 2f       	jc	$-416    	;abs 0x3a6
 548:	2f 2f       	jc	$-416    	;abs 0x3a8
 54a:	2f 2f       	jc	$-416    	;abs 0x3aa
 54c:	2f 2f       	jc	$-416    	;abs 0x3ac
 54e:	2f 32       	jn	$-928    	;abs 0x1ae
 550:	2f 2f       	jc	$-416    	;abs 0x3b0
 552:	30 34       	jge	$+98     	;abs 0x5b4
 554:	4b 2f       	jc	$-360    	;abs 0x3ec
 556:	2f 02       	.word	0x022f;	????	
 558:	02 00       	.word	0x0002;	????	
 55a:	01 01       	.word	0x0101;	????	
 55c:	ed 00       	.word	0x00ed;	????	
 55e:	00 00       	.word	0x0000;	????	
 560:	02 00       	.word	0x0002;	????	
 562:	76 00       	.word	0x0076;	????	
 564:	00 00       	.word	0x0000;	????	
 566:	01 01       	.word	0x0101;	????	
 568:	fb 0e       	.word	0x0efb;	????	
 56a:	0d 00       	.word	0x000d;	????	
 56c:	01 01       	.word	0x0101;	????	
 56e:	01 01       	.word	0x0101;	????	
 570:	00 00       	.word	0x0000;	????	
 572:	00 01       	.word	0x0100;	????	
 574:	00 00       	.word	0x0000;	????	
 576:	01 2f       	jc	$-508    	;abs 0x37a
 578:	62 75       	subc.b	@r5,	r2	
 57a:	69 6c       	addc.b	@r12,	r9	
 57c:	64 2f       	jc	$-310    	;abs 0x446
 57e:	62 75       	subc.b	@r5,	r2	
 580:	69 6c       	addc.b	@r12,	r9	
 582:	64 64       	addc.b	@r4,	r4	
 584:	2f 67       	addc	@r7,	r15	
 586:	63 63       	.word	0x6363;	????	Illegal as 2-op instr
 588:	2d 6d       	addc	@r13,	r13	
 58a:	73 70       	.word	0x7073;	????	Illegal as 2-op instr
 58c:	34 33       	jn	$-406    	;abs 0x3f6
 58e:	30 2d       	jc	$+610    	;abs 0x7f0
 590:	34 2e       	jc	$-918    	;abs 0x1fa
 592:	36 2e       	jc	$-914    	;abs 0x200
 594:	33 7e       	.word	0x7e33;	????	Illegal as 2-op instr
 596:	6d 73       	subc.b	#2,	r13	;r3 As==10
 598:	70 67       	addc.b	@r7+,	r0	
 59a:	63 63       	.word	0x6363;	????	Illegal as 2-op instr
 59c:	2d 32       	jn	$-932    	;abs 0x1f8
 59e:	30 31       	jn	$+610    	;abs 0x800
 5a0:	32 30       	jn	$+102    	;abs 0x606
 5a2:	34 30       	jn	$+106    	;abs 0x60c
 5a4:	36 2f       	jc	$-402    	;abs 0x412
 5a6:	2e 2f       	jc	$-418    	;abs 0x404
 5a8:	67 63       	addc.b	#2,	r7	;r3 As==10
 5aa:	63 2d       	jc	$+712    	;abs 0x872
 5ac:	34 2e       	jc	$-918    	;abs 0x216
 5ae:	36 2e       	jc	$-914    	;abs 0x21c
 5b0:	33 2f       	jc	$-408    	;abs 0x418
 5b2:	6c 69       	addc.b	@r9,	r12	
 5b4:	62 67       	addc.b	@r7,	r2	
 5b6:	63 63       	.word	0x6363;	????	Illegal as 2-op instr
 5b8:	2f 2e       	jc	$-928    	;abs 0x218
 5ba:	2e 2f       	jc	$-418    	;abs 0x418
 5bc:	67 63       	addc.b	#2,	r7	;r3 As==10
 5be:	63 2f       	jc	$-312    	;abs 0x486
 5c0:	63 6f       	.word	0x6f63;	????	Illegal as 2-op instr
 5c2:	6e 66       	addc.b	@r6,	r14	
 5c4:	69 67       	addc.b	@r7,	r9	
 5c6:	2f 6d       	addc	@r13,	r15	
 5c8:	73 70       	.word	0x7073;	????	Illegal as 2-op instr
 5ca:	34 33       	jn	$-406    	;abs 0x434
 5cc:	30 00       	.word	0x0030;	????	
 5ce:	00 6c       	addc	r12,	r0	
 5d0:	69 62       	addc.b	#4,	r9	;r2 As==10
 5d2:	67 63       	addc.b	#2,	r7	;r3 As==10
 5d4:	63 2e       	jc	$-824    	;abs 0x29c
 5d6:	53 00       	.word	0x0053;	????	
 5d8:	01 00       	.word	0x0001;	????	
 5da:	00 00       	.word	0x0000;	????	
 5dc:	00 03       	.word	0x0300;	????	
 5de:	02 7a       	subc	r10,	r2	
 5e0:	d3 03       	.word	0x03d3;	????	
 5e2:	e6 05       	.word	0x05e6;	????	
 5e4:	01 2f       	jc	$-508    	;abs 0x3e8
 5e6:	2f 2f       	jc	$-416    	;abs 0x446
 5e8:	30 4b       	br	@r11+		
 5ea:	2f 2f       	jc	$-416    	;abs 0x44a
 5ec:	2f 2f       	jc	$-416    	;abs 0x44c
 5ee:	2f 2f       	jc	$-416    	;abs 0x44e
 5f0:	2f 2f       	jc	$-416    	;abs 0x450
 5f2:	2f 2f       	jc	$-416    	;abs 0x452
 5f4:	2f 2f       	jc	$-416    	;abs 0x454
 5f6:	2f 2f       	jc	$-416    	;abs 0x456
 5f8:	2f 2f       	jc	$-416    	;abs 0x458
 5fa:	2f 2f       	jc	$-416    	;abs 0x45a
 5fc:	2f 2f       	jc	$-416    	;abs 0x45c
 5fe:	2f 2f       	jc	$-416    	;abs 0x45e
 600:	2f 2f       	jc	$-416    	;abs 0x460
 602:	2f 2f       	jc	$-416    	;abs 0x462
 604:	2f 2f       	jc	$-416    	;abs 0x464
 606:	2f 2f       	jc	$-416    	;abs 0x466
 608:	2f 2f       	jc	$-416    	;abs 0x468
 60a:	4b 2f       	jc	$-360    	;abs 0x4a2
 60c:	32 2f       	jc	$-410    	;abs 0x472
 60e:	2f 2f       	jc	$-416    	;abs 0x46e
 610:	30 03       	.word	0x0330;	????	
 612:	09 2e       	jc	$-1004   	;abs 0x226
 614:	2f 2f       	jc	$-416    	;abs 0x474
 616:	2f 30       	jn	$+96     	;abs 0x676
 618:	4b 4b       	mov.b	r11,	r11	
 61a:	4b 4c       	mov.b	r12,	r11	
 61c:	4e 2f       	jc	$-354    	;abs 0x4ba
 61e:	2f 2f       	jc	$-416    	;abs 0x47e
 620:	30 36       	jge	$-926    	;abs 0x282
 622:	2f 2f       	jc	$-416    	;abs 0x482
 624:	2f 30       	jn	$+96     	;abs 0x684
 626:	4b 4b       	mov.b	r11,	r11	
 628:	4b 4c       	mov.b	r12,	r11	
 62a:	4b 2f       	jc	$-360    	;abs 0x4c2
 62c:	2f 2f       	jc	$-416    	;abs 0x48c
 62e:	32 2f       	jc	$-410    	;abs 0x494
 630:	2f 2f       	jc	$-416    	;abs 0x490
 632:	30 36       	jge	$-926    	;abs 0x294
 634:	2f 2f       	jc	$-416    	;abs 0x494
 636:	2f 2f       	jc	$-416    	;abs 0x496
 638:	30 4b       	br	@r11+		
 63a:	4b 4b       	mov.b	r11,	r11	
 63c:	4c 4c       	mov.b	r12,	r12	
 63e:	4b 4b       	mov.b	r11,	r11	
 640:	4b 4b       	mov.b	r11,	r11	
 642:	4f 2f       	jc	$-352    	;abs 0x4e2
 644:	2f 2f       	jc	$-416    	;abs 0x4a4
 646:	2f 30       	jn	$+96     	;abs 0x6a6
 648:	02 02       	.word	0x0202;	????	
 64a:	00 01       	.word	0x0100;	????	
 64c:	01 80       	sub	r0,	r1	
 64e:	00 00       	.word	0x0000;	????	
 650:	00 02       	.word	0x0200;	????	
 652:	00 6a       	addc	r10,	r0	
 654:	00 00       	.word	0x0000;	????	
 656:	00 01       	.word	0x0100;	????	
 658:	01 fb       	and	r11,	r1	
 65a:	0e 0d       	.word	0x0d0e;	????	
 65c:	00 01       	.word	0x0100;	????	
 65e:	01 01       	.word	0x0101;	????	
 660:	01 00       	.word	0x0001;	????	
 662:	00 00       	.word	0x0000;	????	
 664:	01 00       	.word	0x0001;	????	
 666:	00 01       	.word	0x0100;	????	
 668:	2f 62       	addc	#4,	r15	;r2 As==10
 66a:	75 69       	addc.b	@r9+,	r5	
 66c:	6c 64       	addc.b	@r4,	r12	
 66e:	2f 62       	addc	#4,	r15	;r2 As==10
 670:	75 69       	addc.b	@r9+,	r5	
 672:	6c 64       	addc.b	@r4,	r12	
 674:	64 2f       	jc	$-310    	;abs 0x53e
 676:	67 63       	addc.b	#2,	r7	;r3 As==10
 678:	63 2d       	jc	$+712    	;abs 0x940
 67a:	6d 73       	subc.b	#2,	r13	;r3 As==10
 67c:	70 34       	jge	$+226    	;abs 0x75e
 67e:	33 30       	jn	$+104    	;abs 0x6e6
 680:	2d 34       	jge	$+92     	;abs 0x6dc
 682:	2e 36       	jge	$-930    	;abs 0x2e0
 684:	2e 33       	jn	$-418    	;abs 0x4e2
 686:	7e 6d       	addc.b	@r13+,	r14	
 688:	73 70       	.word	0x7073;	????	Illegal as 2-op instr
 68a:	67 63       	addc.b	#2,	r7	;r3 As==10
 68c:	63 2d       	jc	$+712    	;abs 0x954
 68e:	32 30       	jn	$+102    	;abs 0x6f4
 690:	31 32       	jn	$-924    	;abs 0x2f4
 692:	30 34       	jge	$+98     	;abs 0x6f4
 694:	30 36       	jge	$-926    	;abs 0x2f6
 696:	2f 2e       	jc	$-928    	;abs 0x2f6
 698:	2f 67       	addc	@r7,	r15	
 69a:	63 63       	.word	0x6363;	????	Illegal as 2-op instr
 69c:	2d 34       	jge	$+92     	;abs 0x6f8
 69e:	2e 36       	jge	$-930    	;abs 0x2fc
 6a0:	2e 33       	jn	$-418    	;abs 0x4fe
 6a2:	2f 67       	addc	@r7,	r15	
 6a4:	63 63       	.word	0x6363;	????	Illegal as 2-op instr
 6a6:	2f 63       	addc	#2,	r15	;r3 As==10
 6a8:	6f 6e       	addc.b	@r14,	r15	
 6aa:	66 69       	addc.b	@r9,	r6	
 6ac:	67 2f       	jc	$-304    	;abs 0x57c
 6ae:	6d 73       	subc.b	#2,	r13	;r3 As==10
 6b0:	70 34       	jge	$+226    	;abs 0x792
 6b2:	33 30       	jn	$+104    	;abs 0x71a
 6b4:	00 00       	.word	0x0000;	????	
 6b6:	63 72       	.word	0x7263;	????	Illegal as 2-op instr
 6b8:	74 30       	jn	$+234    	;abs 0x7a2
 6ba:	2e 53       	incd	r14		
 6bc:	00 01       	.word	0x0100;	????	
 6be:	00 00       	.word	0x0000;	????	
 6c0:	00 00       	.word	0x0000;	????	
 6c2:	03 02       	.word	0x0203;	????	
 6c4:	00 c0       	bic	r0,	r0	
 6c6:	03 e8       	.word	0xe803;	????	Illegal as 2-op instr
 6c8:	00 01       	.word	0x0100;	????	
 6ca:	4b 4b       	mov.b	r11,	r11	
 6cc:	02 04       	.word	0x0402;	????	
 6ce:	00 01       	.word	0x0100;	????	
 6d0:	01 7e       	subc	r14,	r1	
 6d2:	00 00       	.word	0x0000;	????	
 6d4:	00 02       	.word	0x0200;	????	
 6d6:	00 6a       	addc	r10,	r0	
 6d8:	00 00       	.word	0x0000;	????	
 6da:	00 01       	.word	0x0100;	????	
 6dc:	01 fb       	and	r11,	r1	
 6de:	0e 0d       	.word	0x0d0e;	????	
 6e0:	00 01       	.word	0x0100;	????	
 6e2:	01 01       	.word	0x0101;	????	
 6e4:	01 00       	.word	0x0001;	????	
 6e6:	00 00       	.word	0x0000;	????	
 6e8:	01 00       	.word	0x0001;	????	
 6ea:	00 01       	.word	0x0100;	????	
 6ec:	2f 62       	addc	#4,	r15	;r2 As==10
 6ee:	75 69       	addc.b	@r9+,	r5	
 6f0:	6c 64       	addc.b	@r4,	r12	
 6f2:	2f 62       	addc	#4,	r15	;r2 As==10
 6f4:	75 69       	addc.b	@r9+,	r5	
 6f6:	6c 64       	addc.b	@r4,	r12	
 6f8:	64 2f       	jc	$-310    	;abs 0x5c2
 6fa:	67 63       	addc.b	#2,	r7	;r3 As==10
 6fc:	63 2d       	jc	$+712    	;abs 0x9c4
 6fe:	6d 73       	subc.b	#2,	r13	;r3 As==10
 700:	70 34       	jge	$+226    	;abs 0x7e2
 702:	33 30       	jn	$+104    	;abs 0x76a
 704:	2d 34       	jge	$+92     	;abs 0x760
 706:	2e 36       	jge	$-930    	;abs 0x364
 708:	2e 33       	jn	$-418    	;abs 0x566
 70a:	7e 6d       	addc.b	@r13+,	r14	
 70c:	73 70       	.word	0x7073;	????	Illegal as 2-op instr
 70e:	67 63       	addc.b	#2,	r7	;r3 As==10
 710:	63 2d       	jc	$+712    	;abs 0x9d8
 712:	32 30       	jn	$+102    	;abs 0x778
 714:	31 32       	jn	$-924    	;abs 0x378
 716:	30 34       	jge	$+98     	;abs 0x778
 718:	30 36       	jge	$-926    	;abs 0x37a
 71a:	2f 2e       	jc	$-928    	;abs 0x37a
 71c:	2f 67       	addc	@r7,	r15	
 71e:	63 63       	.word	0x6363;	????	Illegal as 2-op instr
 720:	2d 34       	jge	$+92     	;abs 0x77c
 722:	2e 36       	jge	$-930    	;abs 0x380
 724:	2e 33       	jn	$-418    	;abs 0x582
 726:	2f 67       	addc	@r7,	r15	
 728:	63 63       	.word	0x6363;	????	Illegal as 2-op instr
 72a:	2f 63       	addc	#2,	r15	;r3 As==10
 72c:	6f 6e       	addc.b	@r14,	r15	
 72e:	66 69       	addc.b	@r9,	r6	
 730:	67 2f       	jc	$-304    	;abs 0x600
 732:	6d 73       	subc.b	#2,	r13	;r3 As==10
 734:	70 34       	jge	$+226    	;abs 0x816
 736:	33 30       	jn	$+104    	;abs 0x79e
 738:	00 00       	.word	0x0000;	????	
 73a:	63 72       	.word	0x7263;	????	Illegal as 2-op instr
 73c:	74 30       	jn	$+234    	;abs 0x826
 73e:	2e 53       	incd	r14		
 740:	00 01       	.word	0x0100;	????	
 742:	00 00       	.word	0x0000;	????	
 744:	00 00       	.word	0x0000;	????	
 746:	03 02       	.word	0x0203;	????	
 748:	0c c0       	bic	r0,	r12	
 74a:	03 99       	.word	0x9903;	????	Illegal as 2-op instr
 74c:	01 01       	.word	0x0101;	????	
 74e:	02 04       	.word	0x0402;	????	
 750:	00 01       	.word	0x0100;	????	
 752:	01 84       	sub	r4,	r1	
 754:	00 00       	.word	0x0000;	????	
 756:	00 02       	.word	0x0200;	????	
 758:	00 6a       	addc	r10,	r0	
 75a:	00 00       	.word	0x0000;	????	
 75c:	00 01       	.word	0x0100;	????	
 75e:	01 fb       	and	r11,	r1	
 760:	0e 0d       	.word	0x0d0e;	????	
 762:	00 01       	.word	0x0100;	????	
 764:	01 01       	.word	0x0101;	????	
 766:	01 00       	.word	0x0001;	????	
 768:	00 00       	.word	0x0000;	????	
 76a:	01 00       	.word	0x0001;	????	
 76c:	00 01       	.word	0x0100;	????	
 76e:	2f 62       	addc	#4,	r15	;r2 As==10
 770:	75 69       	addc.b	@r9+,	r5	
 772:	6c 64       	addc.b	@r4,	r12	
 774:	2f 62       	addc	#4,	r15	;r2 As==10
 776:	75 69       	addc.b	@r9+,	r5	
 778:	6c 64       	addc.b	@r4,	r12	
 77a:	64 2f       	jc	$-310    	;abs 0x644
 77c:	67 63       	addc.b	#2,	r7	;r3 As==10
 77e:	63 2d       	jc	$+712    	;abs 0xa46
 780:	6d 73       	subc.b	#2,	r13	;r3 As==10
 782:	70 34       	jge	$+226    	;abs 0x864
 784:	33 30       	jn	$+104    	;abs 0x7ec
 786:	2d 34       	jge	$+92     	;abs 0x7e2
 788:	2e 36       	jge	$-930    	;abs 0x3e6
 78a:	2e 33       	jn	$-418    	;abs 0x5e8
 78c:	7e 6d       	addc.b	@r13+,	r14	
 78e:	73 70       	.word	0x7073;	????	Illegal as 2-op instr
 790:	67 63       	addc.b	#2,	r7	;r3 As==10
 792:	63 2d       	jc	$+712    	;abs 0xa5a
 794:	32 30       	jn	$+102    	;abs 0x7fa
 796:	31 32       	jn	$-924    	;abs 0x3fa
 798:	30 34       	jge	$+98     	;abs 0x7fa
 79a:	30 36       	jge	$-926    	;abs 0x3fc
 79c:	2f 2e       	jc	$-928    	;abs 0x3fc
 79e:	2f 67       	addc	@r7,	r15	
 7a0:	63 63       	.word	0x6363;	????	Illegal as 2-op instr
 7a2:	2d 34       	jge	$+92     	;abs 0x7fe
 7a4:	2e 36       	jge	$-930    	;abs 0x402
 7a6:	2e 33       	jn	$-418    	;abs 0x604
 7a8:	2f 67       	addc	@r7,	r15	
 7aa:	63 63       	.word	0x6363;	????	Illegal as 2-op instr
 7ac:	2f 63       	addc	#2,	r15	;r3 As==10
 7ae:	6f 6e       	addc.b	@r14,	r15	
 7b0:	66 69       	addc.b	@r9,	r6	
 7b2:	67 2f       	jc	$-304    	;abs 0x682
 7b4:	6d 73       	subc.b	#2,	r13	;r3 As==10
 7b6:	70 34       	jge	$+226    	;abs 0x898
 7b8:	33 30       	jn	$+104    	;abs 0x820
 7ba:	00 00       	.word	0x0000;	????	
 7bc:	63 72       	.word	0x7263;	????	Illegal as 2-op instr
 7be:	74 30       	jn	$+234    	;abs 0x8a8
 7c0:	2e 53       	incd	r14		
 7c2:	00 01       	.word	0x0100;	????	
 7c4:	00 00       	.word	0x0000;	????	
 7c6:	00 00       	.word	0x0000;	????	
 7c8:	03 02       	.word	0x0203;	????	
 7ca:	10 c0 03 bc 	bic	-17405(r0),r0	;PC rel. 0xc3cf
 7ce:	01 01       	.word	0x0101;	????	
 7d0:	4b 2f       	jc	$-360    	;abs 0x668
 7d2:	30 67       	addc	@r7+,	r0	
 7d4:	2f 67       	addc	@r7,	r15	
 7d6:	02 02       	.word	0x0202;	????	
 7d8:	00 01       	.word	0x0100;	????	
 7da:	01 84       	sub	r4,	r1	
 7dc:	00 00       	.word	0x0000;	????	
 7de:	00 02       	.word	0x0200;	????	
 7e0:	00 6a       	addc	r10,	r0	
 7e2:	00 00       	.word	0x0000;	????	
 7e4:	00 01       	.word	0x0100;	????	
 7e6:	01 fb       	and	r11,	r1	
 7e8:	0e 0d       	.word	0x0d0e;	????	
 7ea:	00 01       	.word	0x0100;	????	
 7ec:	01 01       	.word	0x0101;	????	
 7ee:	01 00       	.word	0x0001;	????	
 7f0:	00 00       	.word	0x0000;	????	
 7f2:	01 00       	.word	0x0001;	????	
 7f4:	00 01       	.word	0x0100;	????	
 7f6:	2f 62       	addc	#4,	r15	;r2 As==10
 7f8:	75 69       	addc.b	@r9+,	r5	
 7fa:	6c 64       	addc.b	@r4,	r12	
 7fc:	2f 62       	addc	#4,	r15	;r2 As==10
 7fe:	75 69       	addc.b	@r9+,	r5	
 800:	6c 64       	addc.b	@r4,	r12	
 802:	64 2f       	jc	$-310    	;abs 0x6cc
 804:	67 63       	addc.b	#2,	r7	;r3 As==10
 806:	63 2d       	jc	$+712    	;abs 0xace
 808:	6d 73       	subc.b	#2,	r13	;r3 As==10
 80a:	70 34       	jge	$+226    	;abs 0x8ec
 80c:	33 30       	jn	$+104    	;abs 0x874
 80e:	2d 34       	jge	$+92     	;abs 0x86a
 810:	2e 36       	jge	$-930    	;abs 0x46e
 812:	2e 33       	jn	$-418    	;abs 0x670
 814:	7e 6d       	addc.b	@r13+,	r14	
 816:	73 70       	.word	0x7073;	????	Illegal as 2-op instr
 818:	67 63       	addc.b	#2,	r7	;r3 As==10
 81a:	63 2d       	jc	$+712    	;abs 0xae2
 81c:	32 30       	jn	$+102    	;abs 0x882
 81e:	31 32       	jn	$-924    	;abs 0x482
 820:	30 34       	jge	$+98     	;abs 0x882
 822:	30 36       	jge	$-926    	;abs 0x484
 824:	2f 2e       	jc	$-928    	;abs 0x484
 826:	2f 67       	addc	@r7,	r15	
 828:	63 63       	.word	0x6363;	????	Illegal as 2-op instr
 82a:	2d 34       	jge	$+92     	;abs 0x886
 82c:	2e 36       	jge	$-930    	;abs 0x48a
 82e:	2e 33       	jn	$-418    	;abs 0x68c
 830:	2f 67       	addc	@r7,	r15	
 832:	63 63       	.word	0x6363;	????	Illegal as 2-op instr
 834:	2f 63       	addc	#2,	r15	;r3 As==10
 836:	6f 6e       	addc.b	@r14,	r15	
 838:	66 69       	addc.b	@r9,	r6	
 83a:	67 2f       	jc	$-304    	;abs 0x70a
 83c:	6d 73       	subc.b	#2,	r13	;r3 As==10
 83e:	70 34       	jge	$+226    	;abs 0x920
 840:	33 30       	jn	$+104    	;abs 0x8a8
 842:	00 00       	.word	0x0000;	????	
 844:	63 72       	.word	0x7263;	????	Illegal as 2-op instr
 846:	74 30       	jn	$+234    	;abs 0x930
 848:	2e 53       	incd	r14		
 84a:	00 01       	.word	0x0100;	????	
 84c:	00 00       	.word	0x0000;	????	
 84e:	00 00       	.word	0x0000;	????	
 850:	03 02       	.word	0x0203;	????	
 852:	28 c0       	bic	@r0,	r8	
 854:	03 d6       	.word	0xd603;	????	Illegal as 2-op instr
 856:	01 01       	.word	0x0101;	????	
 858:	4b 2f       	jc	$-360    	;abs 0x6f0
 85a:	30 67       	addc	@r7+,	r0	
 85c:	2f 4b       	mov	@r11,	r15	
 85e:	02 02       	.word	0x0202;	????	
 860:	00 01       	.word	0x0100;	????	
 862:	01 7f       	subc	r15,	r1	
 864:	00 00       	.word	0x0000;	????	
 866:	00 02       	.word	0x0200;	????	
 868:	00 6a       	addc	r10,	r0	
 86a:	00 00       	.word	0x0000;	????	
 86c:	00 01       	.word	0x0100;	????	
 86e:	01 fb       	and	r11,	r1	
 870:	0e 0d       	.word	0x0d0e;	????	
 872:	00 01       	.word	0x0100;	????	
 874:	01 01       	.word	0x0101;	????	
 876:	01 00       	.word	0x0001;	????	
 878:	00 00       	.word	0x0000;	????	
 87a:	01 00       	.word	0x0001;	????	
 87c:	00 01       	.word	0x0100;	????	
 87e:	2f 62       	addc	#4,	r15	;r2 As==10
 880:	75 69       	addc.b	@r9+,	r5	
 882:	6c 64       	addc.b	@r4,	r12	
 884:	2f 62       	addc	#4,	r15	;r2 As==10
 886:	75 69       	addc.b	@r9+,	r5	
 888:	6c 64       	addc.b	@r4,	r12	
 88a:	64 2f       	jc	$-310    	;abs 0x754
 88c:	67 63       	addc.b	#2,	r7	;r3 As==10
 88e:	63 2d       	jc	$+712    	;abs 0xb56
 890:	6d 73       	subc.b	#2,	r13	;r3 As==10
 892:	70 34       	jge	$+226    	;abs 0x974
 894:	33 30       	jn	$+104    	;abs 0x8fc
 896:	2d 34       	jge	$+92     	;abs 0x8f2
 898:	2e 36       	jge	$-930    	;abs 0x4f6
 89a:	2e 33       	jn	$-418    	;abs 0x6f8
 89c:	7e 6d       	addc.b	@r13+,	r14	
 89e:	73 70       	.word	0x7073;	????	Illegal as 2-op instr
 8a0:	67 63       	addc.b	#2,	r7	;r3 As==10
 8a2:	63 2d       	jc	$+712    	;abs 0xb6a
 8a4:	32 30       	jn	$+102    	;abs 0x90a
 8a6:	31 32       	jn	$-924    	;abs 0x50a
 8a8:	30 34       	jge	$+98     	;abs 0x90a
 8aa:	30 36       	jge	$-926    	;abs 0x50c
 8ac:	2f 2e       	jc	$-928    	;abs 0x50c
 8ae:	2f 67       	addc	@r7,	r15	
 8b0:	63 63       	.word	0x6363;	????	Illegal as 2-op instr
 8b2:	2d 34       	jge	$+92     	;abs 0x90e
 8b4:	2e 36       	jge	$-930    	;abs 0x512
 8b6:	2e 33       	jn	$-418    	;abs 0x714
 8b8:	2f 67       	addc	@r7,	r15	
 8ba:	63 63       	.word	0x6363;	????	Illegal as 2-op instr
 8bc:	2f 63       	addc	#2,	r15	;r3 As==10
 8be:	6f 6e       	addc.b	@r14,	r15	
 8c0:	66 69       	addc.b	@r9,	r6	
 8c2:	67 2f       	jc	$-304    	;abs 0x792
 8c4:	6d 73       	subc.b	#2,	r13	;r3 As==10
 8c6:	70 34       	jge	$+226    	;abs 0x9a8
 8c8:	33 30       	jn	$+104    	;abs 0x930
 8ca:	00 00       	.word	0x0000;	????	
 8cc:	63 72       	.word	0x7263;	????	Illegal as 2-op instr
 8ce:	74 30       	jn	$+234    	;abs 0x9b8
 8d0:	2e 53       	incd	r14		
 8d2:	00 01       	.word	0x0100;	????	
 8d4:	00 00       	.word	0x0000;	????	
 8d6:	00 00       	.word	0x0000;	????	
 8d8:	03 02       	.word	0x0203;	????	
 8da:	fa c0 03 fe 	bic.b	#-509,	257(r10);#0xfe03, 0x0101(r10)
 8de:	01 01 
 8e0:	4b 02       	.word	0x024b;	????	
 8e2:	02 00       	.word	0x0002;	????	
 8e4:	01 01       	.word	0x0101;	????	
 8e6:	7e 00       	.word	0x007e;	????	
 8e8:	00 00       	.word	0x0000;	????	
 8ea:	02 00       	.word	0x0002;	????	
 8ec:	6a 00       	.word	0x006a;	????	
 8ee:	00 00       	.word	0x0000;	????	
 8f0:	01 01       	.word	0x0101;	????	
 8f2:	fb 0e       	.word	0x0efb;	????	
 8f4:	0d 00       	.word	0x000d;	????	
 8f6:	01 01       	.word	0x0101;	????	
 8f8:	01 01       	.word	0x0101;	????	
 8fa:	00 00       	.word	0x0000;	????	
 8fc:	00 01       	.word	0x0100;	????	
 8fe:	00 00       	.word	0x0000;	????	
 900:	01 2f       	jc	$-508    	;abs 0x704
 902:	62 75       	subc.b	@r5,	r2	
 904:	69 6c       	addc.b	@r12,	r9	
 906:	64 2f       	jc	$-310    	;abs 0x7d0
 908:	62 75       	subc.b	@r5,	r2	
 90a:	69 6c       	addc.b	@r12,	r9	
 90c:	64 64       	addc.b	@r4,	r4	
 90e:	2f 67       	addc	@r7,	r15	
 910:	63 63       	.word	0x6363;	????	Illegal as 2-op instr
 912:	2d 6d       	addc	@r13,	r13	
 914:	73 70       	.word	0x7073;	????	Illegal as 2-op instr
 916:	34 33       	jn	$-406    	;abs 0x780
 918:	30 2d       	jc	$+610    	;abs 0xb7a
 91a:	34 2e       	jc	$-918    	;abs 0x584
 91c:	36 2e       	jc	$-914    	;abs 0x58a
 91e:	33 7e       	.word	0x7e33;	????	Illegal as 2-op instr
 920:	6d 73       	subc.b	#2,	r13	;r3 As==10
 922:	70 67       	addc.b	@r7+,	r0	
 924:	63 63       	.word	0x6363;	????	Illegal as 2-op instr
 926:	2d 32       	jn	$-932    	;abs 0x582
 928:	30 31       	jn	$+610    	;abs 0xb8a
 92a:	32 30       	jn	$+102    	;abs 0x990
 92c:	34 30       	jn	$+106    	;abs 0x996
 92e:	36 2f       	jc	$-402    	;abs 0x79c
 930:	2e 2f       	jc	$-418    	;abs 0x78e
 932:	67 63       	addc.b	#2,	r7	;r3 As==10
 934:	63 2d       	jc	$+712    	;abs 0xbfc
 936:	34 2e       	jc	$-918    	;abs 0x5a0
 938:	36 2e       	jc	$-914    	;abs 0x5a6
 93a:	33 2f       	jc	$-408    	;abs 0x7a2
 93c:	67 63       	addc.b	#2,	r7	;r3 As==10
 93e:	63 2f       	jc	$-312    	;abs 0x806
 940:	63 6f       	.word	0x6f63;	????	Illegal as 2-op instr
 942:	6e 66       	addc.b	@r6,	r14	
 944:	69 67       	addc.b	@r7,	r9	
 946:	2f 6d       	addc	@r13,	r15	
 948:	73 70       	.word	0x7073;	????	Illegal as 2-op instr
 94a:	34 33       	jn	$-406    	;abs 0x7b4
 94c:	30 00       	.word	0x0030;	????	
 94e:	00 63       	adc	r0		
 950:	72 74       	subc.b	@r4+,	r2	
 952:	30 2e       	jc	$-926    	;abs 0x5b4
 954:	53 00       	.word	0x0053;	????	
 956:	01 00       	.word	0x0001;	????	
 958:	00 00       	.word	0x0000;	????	
 95a:	00 03       	.word	0x0300;	????	
 95c:	02 6a       	addc	r10,	r2	
 95e:	d4 03       	.word	0x03d4;	????	
 960:	cd 02       	.word	0x02cd;	????	
 962:	01 02       	.word	0x0201;	????	
 964:	02 00       	.word	0x0002;	????	
 966:	01 01       	.word	0x0101;	????	

Disassembly of section .debug_frame:

00000000 <.debug_frame>:
   0:	0e 00       	.word	0x000e;	????	
   2:	00 00       	.word	0x0000;	????	
   4:	ff ff ff ff 	and.b	@r15+,	-1(r15)	;0xffff(r15)
   8:	01 00       	.word	0x0001;	????	
   a:	01 7e       	subc	r14,	r1	
   c:	00 0c       	.word	0x0c00;	????	
   e:	01 02       	.word	0x0201;	????	
  10:	80 01       	.word	0x0180;	????	
  12:	08 00       	.word	0x0008;	????	
  14:	00 00       	.word	0x0000;	????	
  16:	00 00       	.word	0x0000;	????	
  18:	00 00       	.word	0x0000;	????	
  1a:	48 ca       	bic.b	r10,	r8	
  1c:	22 00       	.word	0x0022;	????	
  1e:	16 00       	.word	0x0016;	????	
  20:	00 00       	.word	0x0000;	????	
  22:	00 00       	.word	0x0000;	????	
  24:	00 00       	.word	0x0000;	????	
  26:	6a ca       	bic.b	@r10,	r10	
  28:	3c 00       	.word	0x003c;	????	
  2a:	42 0e       	.word	0x0e42;	????	
  2c:	04 8b       	sub	r11,	r4	
  2e:	02 42       	mov	r2,	r2	
  30:	0e 06       	.word	0x060e;	????	
  32:	8a 03       	.word	0x038a;	????	
  34:	42 0e       	.word	0x0e42;	????	
  36:	08 00       	.word	0x0008;	????	
  38:	08 00       	.word	0x0008;	????	
  3a:	00 00       	.word	0x0000;	????	
  3c:	00 00       	.word	0x0000;	????	
  3e:	00 00       	.word	0x0000;	????	
  40:	a6 ca 1c 00 	bic	@r10,	28(r6)	;0x001c(r6)
  44:	08 00       	.word	0x0008;	????	
  46:	00 00       	.word	0x0000;	????	
  48:	00 00       	.word	0x0000;	????	
  4a:	00 00       	.word	0x0000;	????	
  4c:	c2 ca 1a 00 	bic.b	r10,	&0x001a	
  50:	08 00       	.word	0x0008;	????	
  52:	00 00       	.word	0x0000;	????	
  54:	00 00       	.word	0x0000;	????	
  56:	00 00       	.word	0x0000;	????	
  58:	dc ca 16 00 	bic.b	22(r10),8(r12)	;0x0016(r10), 0x0008(r12)
  5c:	08 00 
  5e:	00 00       	.word	0x0000;	????	
  60:	00 00       	.word	0x0000;	????	
  62:	00 00       	.word	0x0000;	????	
  64:	f2 ca 12 00 	bic.b	@r10+,	&0x0012	
  68:	0e 00       	.word	0x000e;	????	
  6a:	00 00       	.word	0x0000;	????	
  6c:	ff ff ff ff 	and.b	@r15+,	-1(r15)	;0xffff(r15)
  70:	01 00       	.word	0x0001;	????	
  72:	01 7e       	subc	r14,	r1	
  74:	00 0c       	.word	0x0c00;	????	
  76:	01 02       	.word	0x0201;	????	
  78:	80 01       	.word	0x0180;	????	
  7a:	34 00       	.word	0x0034;	????	
  7c:	00 00       	.word	0x0000;	????	
  7e:	68 00       	.word	0x0068;	????	
  80:	00 00       	.word	0x0000;	????	
  82:	04 cb       	bic	r11,	r4	
  84:	98 01       	.word	0x0198;	????	
  86:	42 0e       	.word	0x0e42;	????	
  88:	04 8b       	sub	r11,	r4	
  8a:	02 42       	mov	r2,	r2	
  8c:	0e 06       	.word	0x060e;	????	
  8e:	8a 03       	.word	0x038a;	????	
  90:	42 0e       	.word	0x0e42;	????	
  92:	08 89       	sub	r9,	r8	
  94:	04 42       	mov	r2,	r4	
  96:	0e 0a       	.word	0x0a0e;	????	
  98:	88 05       	.word	0x0588;	????	
  9a:	42 0e       	.word	0x0e42;	????	
  9c:	0c 87       	sub	r7,	r12	
  9e:	06 42       	mov	r2,	r6	
  a0:	0e 0e       	.word	0x0e0e;	????	
  a2:	86 07       	.word	0x0786;	????	
  a4:	42 0e       	.word	0x0e42;	????	
  a6:	10 85 08 42 	sub	16904(r5),r0	;0x4208(r5)
  aa:	0e 12       	push	r14		
  ac:	84 09       	.word	0x0984;	????	
  ae:	42 0e       	.word	0x0e42;	????	
  b0:	1a 00       	.word	0x001a;	????	
  b2:	62 00       	.word	0x0062;	????	
  b4:	00 00       	.word	0x0000;	????	
  b6:	68 00       	.word	0x0068;	????	
  b8:	00 00       	.word	0x0000;	????	
  ba:	9c cc 9e 06 	bic	1694(r12),3650(r12);0x069e(r12), 0x0e42(r12)
  be:	42 0e 
  c0:	04 8b       	sub	r11,	r4	
  c2:	02 42       	mov	r2,	r2	
  c4:	0e 06       	.word	0x060e;	????	
  c6:	8a 03       	.word	0x038a;	????	
  c8:	42 0e       	.word	0x0e42;	????	
  ca:	08 89       	sub	r9,	r8	
  cc:	04 42       	mov	r2,	r4	
  ce:	0e 0a       	.word	0x0a0e;	????	
  d0:	88 05       	.word	0x0588;	????	
  d2:	42 0e       	.word	0x0e42;	????	
  d4:	0c 87       	sub	r7,	r12	
  d6:	06 42       	mov	r2,	r6	
  d8:	0e 0e       	.word	0x0e0e;	????	
  da:	86 07       	.word	0x0786;	????	
  dc:	42 0e       	.word	0x0e42;	????	
  de:	10 85 08 42 	sub	16904(r5),r0	;0x4208(r5)
  e2:	0e 12       	push	r14		
  e4:	84 09       	.word	0x0984;	????	
  e6:	44 0e       	.word	0x0e44;	????	
  e8:	5c 03       	.word	0x035c;	????	
  ea:	66 02       	.word	0x0266;	????	
  ec:	0e 60       	addc	r0,	r14	
  ee:	48 2e       	jc	$-878    	;abs 0xfd80
  f0:	04 46       	mov	r6,	r4	
  f2:	0e 5c       	add	r12,	r14	
  f4:	03 be       	.word	0xbe03;	????	Illegal as 2-op instr
  f6:	01 0e       	.word	0x0e01;	????	
  f8:	64 4a       	mov.b	@r10,	r4	
  fa:	2e 08       	.word	0x082e;	????	
  fc:	46 0e       	.word	0x0e46;	????	
  fe:	5c 7e 0e 64 	subc.b	25614(r14),r12	;0x640e(r14)
 102:	50 0e       	.word	0x0e50;	????	
 104:	5c 02       	.word	0x025c;	????	
 106:	56 2e       	jc	$-850    	;abs 0xfdb4
 108:	00 03       	.word	0x0300;	????	
 10a:	2a 01       	.word	0x012a;	????	
 10c:	0e 60       	addc	r0,	r14	
 10e:	4c 2e       	jc	$-870    	;abs 0xfda8
 110:	04 46       	mov	r6,	r4	
 112:	0e 5c       	add	r12,	r14	
 114:	4a 2e       	jc	$-874    	;abs 0xfdaa
	...

Disassembly of section .debug_str:

00000000 <.debug_str>:
   0:	73 69       	.word	0x6973;	????	Illegal as 2-op instr
   2:	7a 65       	addc.b	@r5+,	r10	
   4:	5f 74 00 5f 	subc.b	24320(r4),r15	;0x5f00(r4)
   8:	5f 62 75 69 	addc.b	&0x6975,r15	
   c:	6c 74       	subc.b	@r4,	r12	
   e:	69 6e       	addc.b	@r14,	r9	
  10:	5f 76 61 5f 	subc.b	24417(r6),r15	;0x5f61(r6)
  14:	6c 69       	addc.b	@r9,	r12	
  16:	73 74       	.word	0x7473;	????	Illegal as 2-op instr
  18:	00 76       	subc	r6,	r0	
  1a:	73 6e       	.word	0x6e73;	????	Illegal as 2-op instr
  1c:	70 72       	subc.b	#8,	r0	;r2 As==11
  1e:	69 6e       	addc.b	@r14,	r9	
  20:	74 66       	addc.b	@r6+,	r4	
  22:	00 64       	addc	r4,	r0	
  24:	65 73       	subc.b	#2,	r5	;r3 As==10
  26:	74 69       	addc.b	@r9+,	r4	
  28:	6e 61       	addc.b	@r1,	r14	
  2a:	74 69       	addc.b	@r9+,	r4	
  2c:	6f 6e       	addc.b	@r14,	r15	
  2e:	00 5f       	add	r15,	r0	
  30:	5f 67 6e 75 	addc.b	30062(r7),r15	;0x756e(r7)
  34:	63 5f       	.word	0x5f63;	????	Illegal as 2-op instr
  36:	76 61       	addc.b	@r1+,	r6	
  38:	5f 6c 69 73 	addc.b	29545(r12),r15	;0x7369(r12)
  3c:	74 00       	.word	0x0074;	????	
  3e:	2f 62       	addc	#4,	r15	;r2 As==10
  40:	75 69       	addc.b	@r9+,	r5	
  42:	6c 64       	addc.b	@r4,	r12	
  44:	2f 62       	addc	#4,	r15	;r2 As==10
  46:	75 69       	addc.b	@r9+,	r5	
  48:	6c 64       	addc.b	@r4,	r12	
  4a:	64 2f       	jc	$-310    	;abs 0xff14
  4c:	6d 73       	subc.b	#2,	r13	;r3 As==10
  4e:	70 34       	jge	$+226    	;abs 0x130
  50:	33 30       	jn	$+104    	;abs 0xb8
  52:	2d 6c       	addc	@r12,	r13	
  54:	69 62       	addc.b	#4,	r9	;r2 As==10
  56:	63 2d       	jc	$+712    	;abs 0x31e
  58:	32 30       	jn	$+102    	;abs 0xbe
  5a:	31 32       	jn	$-924    	;abs 0xfcbe
  5c:	30 32       	jn	$-926    	;abs 0xfcbe
  5e:	32 34       	jge	$+102    	;abs 0xc4
  60:	2f 73       	subc	#2,	r15	;r3 As==10
  62:	72 63       	addc.b	#-1,	r2	;r3 As==11
  64:	00 75       	subc	r5,	r0	
  66:	6e 73       	subc.b	#2,	r14	;r3 As==10
  68:	69 67       	addc.b	@r7,	r9	
  6a:	6e 65       	addc.b	@r5,	r14	
  6c:	64 20       	jnz	$+202    	;abs 0x136
  6e:	63 68       	.word	0x6863;	????	Illegal as 2-op instr
  70:	61 72       	subc.b	#4,	r1	;r2 As==10
  72:	00 73       	sbc	r0		
  74:	68 6f       	addc.b	@r15,	r8	
  76:	72 74       	subc.b	@r4+,	r2	
  78:	20 75       	subc	@r5,	r0	
  7a:	6e 73       	subc.b	#2,	r14	;r3 As==10
  7c:	69 67       	addc.b	@r7,	r9	
  7e:	6e 65       	addc.b	@r5,	r14	
  80:	64 20       	jnz	$+202    	;abs 0x14a
  82:	69 6e       	addc.b	@r14,	r9	
  84:	74 00       	.word	0x0074;	????	
  86:	61 76       	subc.b	@r6,	r1	
  88:	61 69       	addc.b	@r9,	r1	
  8a:	6c 61       	addc.b	@r1,	r12	
  8c:	62 6c       	addc.b	@r12,	r2	
  8e:	65 00       	.word	0x0065;	????	
  90:	61 72       	subc.b	#4,	r1	;r2 As==10
  92:	67 70       	subc.b	@r0,	r7	
  94:	00 6c       	addc	r12,	r0	
  96:	6f 6e       	addc.b	@r14,	r15	
  98:	67 20       	jnz	$+208    	;abs 0x168
  9a:	6c 6f       	addc.b	@r15,	r12	
  9c:	6e 67       	addc.b	@r7,	r14	
  9e:	20 75       	subc	@r5,	r0	
  a0:	6e 73       	subc.b	#2,	r14	;r3 As==10
  a2:	69 67       	addc.b	@r7,	r9	
  a4:	6e 65       	addc.b	@r5,	r14	
  a6:	64 20       	jnz	$+202    	;abs 0x170
  a8:	69 6e       	addc.b	@r14,	r9	
  aa:	74 00       	.word	0x0074;	????	
  ac:	61 76       	subc.b	@r6,	r1	
  ae:	61 69       	addc.b	@r9,	r1	
  b0:	6c 61       	addc.b	@r1,	r12	
  b2:	62 6c       	addc.b	@r12,	r2	
  b4:	65 5f       	add.b	@r15,	r5	
  b6:	00 64       	addc	r4,	r0	
  b8:	65 73       	subc.b	#2,	r5	;r3 As==10
  ba:	74 69       	addc.b	@r9+,	r4	
  bc:	6e 61       	addc.b	@r1,	r14	
  be:	74 69       	addc.b	@r9+,	r4	
  c0:	6f 6e       	addc.b	@r14,	r15	
  c2:	5f 00       	.word	0x005f;	????	
  c4:	6c 6f       	addc.b	@r15,	r12	
  c6:	6e 67       	addc.b	@r7,	r14	
  c8:	20 6c       	addc	@r12,	r0	
  ca:	6f 6e       	addc.b	@r14,	r15	
  cc:	67 20       	jnz	$+208    	;abs 0x19c
  ce:	69 6e       	addc.b	@r14,	r9	
  d0:	74 00       	.word	0x0074;	????	
  d2:	2e 2f       	jc	$-418    	;abs 0xff30
  d4:	73 74       	.word	0x7473;	????	Illegal as 2-op instr
  d6:	64 6c       	addc.b	@r12,	r4	
  d8:	69 62       	addc.b	#4,	r9	;r2 As==10
  da:	2f 73       	subc	#2,	r15	;r3 As==10
  dc:	70 72       	subc.b	#8,	r0	;r2 As==11
  de:	69 6e       	addc.b	@r14,	r9	
  e0:	74 66       	addc.b	@r6+,	r4	
  e2:	2e 63       	addc	#2,	r14	;r3 As==10
  e4:	00 47       	br	r7		
  e6:	4e 55       	add.b	r5,	r14	
  e8:	20 43       	br	#2		;r3 As==10
  ea:	20 34       	jge	$+66     	;abs 0x12c
  ec:	2e 36       	jge	$-930    	;abs 0xfd4a
  ee:	2e 33       	jn	$-418    	;abs 0xff4c
  f0:	20 32       	jn	$-958    	;abs 0xfd32
  f2:	30 31       	jn	$+610    	;abs 0x354
  f4:	32 30       	jn	$+102    	;abs 0x15a
  f6:	33 30       	jn	$+104    	;abs 0x15e
  f8:	31 20       	jnz	$+100    	;abs 0x15c
  fa:	28 6d       	addc	@r13,	r8	
  fc:	73 70       	.word	0x7073;	????	Illegal as 2-op instr
  fe:	67 63       	addc.b	#2,	r7	;r3 As==10
 100:	63 20       	jnz	$+200    	;abs 0x1c8
 102:	4c 54       	add.b	r4,	r12	
 104:	53 20       	jnz	$+168    	;abs 0x1ac
 106:	32 30       	jn	$+102    	;abs 0x16c
 108:	31 32       	jn	$-924    	;abs 0xfd6c
 10a:	30 34       	jge	$+98     	;abs 0x16c
 10c:	30 36       	jge	$-926    	;abs 0xfd6e
 10e:	20 75       	subc	@r5,	r0	
 110:	6e 70       	subc.b	@r0,	r14	
 112:	61 74       	subc.b	@r4,	r1	
 114:	63 68       	.word	0x6863;	????	Illegal as 2-op instr
 116:	65 64       	addc.b	@r4,	r5	
 118:	29 00       	.word	0x0029;	????	
 11a:	61 70       	subc.b	@r0,	r1	
 11c:	70 65       	addc.b	@r5+,	r0	
 11e:	6e 64       	addc.b	@r4,	r14	
 120:	00 63       	adc	r0		
 122:	61 6c       	addc.b	@r12,	r1	
 124:	6c 5f       	add.b	@r15,	r12	
 126:	76 75       	subc.b	@r5+,	r6	
 128:	70 72       	subc.b	#8,	r0	;r2 As==11
 12a:	69 6e       	addc.b	@r14,	r9	
 12c:	74 66       	addc.b	@r6+,	r4	
 12e:	00 73       	sbc	r0		
 130:	69 7a       	subc.b	@r10,	r9	
 132:	65 00       	.word	0x0065;	????	
 134:	76 73       	subc.b	#-1,	r6	;r3 As==11
 136:	70 72       	subc.b	#8,	r0	;r2 As==11
 138:	69 6e       	addc.b	@r14,	r9	
 13a:	74 66       	addc.b	@r6+,	r4	
 13c:	00 62       	addc	r2,	r0	
 13e:	61 64       	addc.b	@r4,	r1	
 140:	5f 66 6f 72 	addc.b	29295(r6),r15	;0x726f(r6)
 144:	6d 61       	addc.b	@r1,	r13	
 146:	74 00       	.word	0x0074;	????	
 148:	75 69       	addc.b	@r9+,	r5	
 14a:	6e 74       	subc.b	@r4,	r14	
 14c:	36 34       	jge	$+110    	;abs 0x1ba
 14e:	5f 74 00 69 	subc.b	26880(r4),r15	;0x6900(r4)
 152:	6e 74       	subc.b	@r4,	r14	
 154:	70 74       	subc.b	@r4+,	r0	
 156:	72 5f       	add.b	@r15+,	r2	
 158:	74 00       	.word	0x0074;	????	
 15a:	6d 6f       	addc.b	@r15,	r13	
 15c:	64 65       	addc.b	@r5,	r4	
 15e:	00 65       	addc	r5,	r0	
 160:	6d 69       	addc.b	@r9,	r13	
 162:	74 5f       	add.b	@r15+,	r4	
 164:	6f 63       	addc.b	#2,	r15	;r3 As==10
 166:	74 61       	addc.b	@r1+,	r4	
 168:	6c 5f       	add.b	@r15,	r12	
 16a:	70 72       	subc.b	#8,	r0	;r2 As==11
 16c:	65 66       	addc.b	@r6,	r5	
 16e:	69 78       	subc.b	@r8,	r9	
 170:	00 6c       	addc	r12,	r0	
 172:	65 61       	addc.b	@r1,	r5	
 174:	64 69       	addc.b	@r9,	r4	
 176:	6e 67       	addc.b	@r7,	r14	
 178:	5f 66 69 6c 	addc.b	27753(r6),r15	;0x6c69(r6)
 17c:	6c 00       	.word	0x006c;	????	
 17e:	77 72       	subc.b	#8,	r7	;r2 As==11
 180:	69 74       	subc.b	@r4,	r9	
 182:	65 5f       	add.b	@r15,	r5	
 184:	63 68       	.word	0x6863;	????	Illegal as 2-op instr
 186:	61 72       	subc.b	#4,	r1	;r2 As==10
 188:	00 75       	subc	r5,	r0	
 18a:	69 6e       	addc.b	@r14,	r9	
 18c:	74 38       	jl	$+234    	;abs 0x276
 18e:	5f 74 00 65 	subc.b	25856(r4),r15	;0x6500(r4)
 192:	6d 69       	addc.b	@r9,	r13	
 194:	74 5f       	add.b	@r15+,	r4	
 196:	68 65       	addc.b	@r5,	r8	
 198:	78 5f       	add.b	@r15+,	r8	
 19a:	70 72       	subc.b	#8,	r0	;r2 As==11
 19c:	65 66       	addc.b	@r6,	r5	
 19e:	69 78       	subc.b	@r8,	r9	
 1a0:	00 70       	subc	r0,	r0	
 1a2:	72 65       	addc.b	@r5+,	r2	
 1a4:	66 69       	addc.b	@r9,	r6	
 1a6:	78 5f       	add.b	@r15+,	r8	
 1a8:	6c 65       	addc.b	@r5,	r12	
 1aa:	6e 00       	.word	0x006e;	????	
 1ac:	63 68       	.word	0x6863;	????	Illegal as 2-op instr
 1ae:	61 72       	subc.b	#4,	r1	;r2 As==10
 1b0:	5f 70 00 44 	subc.b	17408(r0),r15	;PC rel. 0x45b2
 1b4:	49 52       	add.b	r2,	r9	
 1b6:	45 43       	clr.b	r5		
 1b8:	54 00       	.word	0x0054;	????	
 1ba:	69 73       	subc.b	#2,	r9	;r3 As==10
 1bc:	5f 7a 65 72 	subc.b	29285(r10),r15	;0x7265(r10)
 1c0:	6f 00       	.word	0x006f;	????	
 1c2:	69 73       	subc.b	#2,	r9	;r3 As==10
 1c4:	5f 61 6c 74 	addc.b	29804(r1),r15	;0x746c(r1)
 1c8:	65 72       	subc.b	#4,	r5	;r2 As==10
 1ca:	6e 61       	addc.b	@r1,	r14	
 1cc:	74 65       	addc.b	@r5+,	r4	
 1ce:	5f 66 6f 72 	addc.b	29295(r6),r15	;0x726f(r6)
 1d2:	6d 00       	.word	0x006d;	????	
 1d4:	69 73       	subc.b	#2,	r9	;r3 As==10
 1d6:	5f 6e 65 67 	addc.b	26469(r14),r15	;0x6765(r14)
 1da:	61 74       	subc.b	@r4,	r1	
 1dc:	69 76       	subc.b	@r6,	r9	
 1de:	65 00       	.word	0x0065;	????	
 1e0:	69 73       	subc.b	#2,	r9	;r3 As==10
 1e2:	5f 6c 6f 6e 	addc.b	28271(r12),r15	;0x6e6f(r12)
 1e6:	67 36       	jge	$-816    	;abs 0xfeb6
 1e8:	34 00       	.word	0x0034;	????	
 1ea:	73 70       	.word	0x7073;	????	Illegal as 2-op instr
 1ec:	65 63       	addc.b	#2,	r5	;r3 As==10
 1ee:	69 66       	addc.b	@r6,	r9	
 1f0:	69 65       	addc.b	@r5,	r9	
 1f2:	72 00       	.word	0x0072;	????	
 1f4:	75 70 70 65 	subc.b	#25968,	r5	;#0x6570
 1f8:	72 63       	addc.b	#-1,	r2	;r3 As==11
 1fa:	61 73       	subc.b	#2,	r1	;r3 As==10
 1fc:	65 00       	.word	0x0065;	????	
 1fe:	7a 65       	addc.b	@r5+,	r10	
 200:	72 6f       	addc.b	@r15+,	r2	
 202:	5f 70 61 64 	subc.b	25697(r0),r15	;PC rel. 0x6665
 206:	5f 70 72 65 	subc.b	25970(r0),r15	;PC rel. 0x677a
 20a:	63 69       	.word	0x6963;	????	Illegal as 2-op instr
 20c:	73 69       	.word	0x6973;	????	Illegal as 2-op instr
 20e:	6f 6e       	addc.b	@r14,	r15	
 210:	00 68       	addc	r8,	r0	
 212:	61 76       	subc.b	@r6,	r1	
 214:	65 5f       	add.b	@r15,	r5	
 216:	77 70 5f 76 	subc.b	#30303,	r7	;#0x765f
 21a:	61 6c       	addc.b	@r12,	r1	
 21c:	75 65       	addc.b	@r5+,	r5	
 21e:	00 46       	br	r6		
 220:	4f 52       	add.b	r2,	r15	
 222:	4d 41       	mov.b	r1,	r13	
 224:	54 49 4e 47 	mov.b	18254(r9),r4	;0x474e(r9)
 228:	00 70       	subc	r0,	r0	
 22a:	72 69       	addc.b	@r9+,	r2	
 22c:	6e 74       	subc.b	@r4,	r14	
 22e:	5f 66 69 65 	addc.b	25961(r6),r15	;0x6569(r6)
 232:	6c 64       	addc.b	@r4,	r12	
 234:	00 66       	addc	r6,	r0	
 236:	65 74       	subc.b	@r4,	r5	
 238:	63 68       	.word	0x6863;	????	Illegal as 2-op instr
 23a:	5f 6e 75 6d 	addc.b	28021(r14),r15	;0x6d75(r14)
 23e:	62 65       	addc.b	@r5,	r2	
 240:	72 00       	.word	0x0072;	????	
 242:	70 72       	subc.b	#8,	r0	;r2 As==11
 244:	65 66       	addc.b	@r6,	r5	
 246:	69 78       	subc.b	@r8,	r9	
 248:	5f 69 64 78 	addc.b	30820(r9),r15	;0x7864(r9)
 24c:	00 66       	addc	r6,	r0	
 24e:	6c 61       	addc.b	@r1,	r12	
 250:	67 73       	subc.b	#2,	r7	;r3 As==10
 252:	00 75       	subc	r5,	r0	
 254:	69 6e       	addc.b	@r14,	r9	
 256:	74 33       	jn	$-278    	;abs 0x140
 258:	32 5f       	add	@r15+,	r2	
 25a:	74 00       	.word	0x0074;	????	
 25c:	69 73       	subc.b	#2,	r9	;r3 As==10
 25e:	5f 6c 6f 6e 	addc.b	28271(r12),r15	;0x6e6f(r12)
 262:	67 33       	jn	$-304    	;abs 0x132
 264:	32 00       	.word	0x0032;	????	
 266:	75 69       	addc.b	@r9+,	r5	
 268:	6e 74       	subc.b	@r4,	r14	
 26a:	31 36       	jge	$-924    	;abs 0xfece
 26c:	5f 74 00 61 	subc.b	24832(r4),r15	;0x6100(r4)
 270:	72 67       	addc.b	@r7+,	r2	
 272:	73 00       	.word	0x0073;	????	
 274:	70 72       	subc.b	#8,	r0	;r2 As==11
 276:	65 66       	addc.b	@r6,	r5	
 278:	69 78       	subc.b	@r8,	r9	
 27a:	5f 62 75 66 	addc.b	&0x6675,r15	
 27e:	66 65       	addc.b	@r5,	r6	
 280:	72 00       	.word	0x0072;	????	
 282:	72 61       	addc.b	@r1+,	r2	
 284:	64 69       	addc.b	@r9,	r4	
 286:	78 00       	.word	0x0078;	????	
 288:	68 61       	addc.b	@r1,	r8	
 28a:	76 65       	addc.b	@r5+,	r6	
 28c:	5f 70 72 65 	subc.b	25970(r0),r15	;PC rel. 0x6800
 290:	63 69       	.word	0x6963;	????	Illegal as 2-op instr
 292:	73 69       	.word	0x6973;	????	Illegal as 2-op instr
 294:	6f 6e       	addc.b	@r14,	r15	
 296:	00 5f       	add	r15,	r0	
 298:	42 6f       	addc.b	r15,	r2	
 29a:	6f 6c       	addc.b	@r12,	r15	
 29c:	00 6e       	addc	r14,	r0	
 29e:	75 6d       	addc.b	@r13+,	r5	
 2a0:	62 65       	addc.b	@r5,	r2	
 2a2:	72 5f       	add.b	@r15+,	r2	
 2a4:	77 69       	addc.b	@r9+,	r7	
 2a6:	64 74       	subc.b	@r4,	r4	
 2a8:	68 00       	.word	0x0068;	????	
 2aa:	77 72       	subc.b	#8,	r7	;r2 As==11
 2ac:	69 74       	subc.b	@r4,	r9	
 2ae:	65 5f       	add.b	@r15,	r5	
 2b0:	63 68       	.word	0x6863;	????	Illegal as 2-op instr
 2b2:	61 72       	subc.b	#4,	r1	;r2 As==10
 2b4:	61 63       	addc.b	#2,	r1	;r3 As==10
 2b6:	74 65       	addc.b	@r5+,	r4	
 2b8:	72 00       	.word	0x0072;	????	
 2ba:	73 69       	.word	0x6973;	????	Illegal as 2-op instr
 2bc:	67 6e       	addc.b	@r14,	r7	
 2be:	5f 63       	addc.b	#1,	r15	;r3 As==01
 2c0:	68 61       	addc.b	@r1,	r8	
 2c2:	72 00       	.word	0x0072;	????	
 2c4:	74 72       	subc.b	#8,	r4	;r2 As==11
 2c6:	75 6e       	addc.b	@r14+,	r5	
 2c8:	63 61       	.word	0x6163;	????	Illegal as 2-op instr
 2ca:	74 65       	addc.b	@r5+,	r4	
 2cc:	5f 70 72 65 	subc.b	25970(r0),r15	;PC rel. 0x6840
 2d0:	63 69       	.word	0x6963;	????	Illegal as 2-op instr
 2d2:	73 69       	.word	0x6973;	????	Illegal as 2-op instr
 2d4:	6f 6e       	addc.b	@r14,	r15	
 2d6:	00 69       	addc	r9,	r0	
 2d8:	73 5f       	.word	0x5f73;	????	Illegal as 2-op instr
 2da:	73 69       	.word	0x6973;	????	Illegal as 2-op instr
 2dc:	67 6e       	addc.b	@r14,	r7	
 2de:	65 64       	addc.b	@r4,	r5	
 2e0:	00 66       	addc	r6,	r0	
 2e2:	6c 61       	addc.b	@r1,	r12	
 2e4:	67 73       	subc.b	#2,	r7	;r3 As==10
 2e6:	5f 74 00 66 	subc.b	26112(r4),r15	;0x6600(r4)
 2ea:	69 6c       	addc.b	@r12,	r9	
 2ec:	6c 5f       	add.b	@r15,	r12	
 2ee:	7a 65       	addc.b	@r5+,	r10	
 2f0:	72 6f       	addc.b	@r15+,	r2	
 2f2:	00 2e       	jc	$-1022   	;abs 0xfef4
 2f4:	2f 73       	subc	#2,	r15	;r3 As==10
 2f6:	74 64       	addc.b	@r4+,	r4	
 2f8:	6c 69       	addc.b	@r9,	r12	
 2fa:	62 2f       	jc	$-314    	;abs 0x1c0
 2fc:	76 75       	subc.b	@r5+,	r6	
 2fe:	70 72       	subc.b	#8,	r0	;r2 As==11
 300:	69 6e       	addc.b	@r14,	r9	
 302:	74 66       	addc.b	@r6+,	r4	
 304:	2e 63       	addc	#2,	r14	;r3 As==10
 306:	00 64       	addc	r4,	r0	
 308:	69 67       	addc.b	@r7,	r9	
 30a:	69 74       	subc.b	@r4,	r9	
 30c:	00 63       	adc	r0		
 30e:	68 61       	addc.b	@r1,	r8	
 310:	72 61       	addc.b	@r1+,	r2	
 312:	63 74       	.word	0x7463;	????	Illegal as 2-op instr
 314:	65 72       	subc.b	#4,	r5	;r2 As==10
 316:	5f 63       	addc.b	#1,	r15	;r3 As==01
 318:	6f 75       	subc.b	@r5,	r15	
 31a:	6e 74       	subc.b	@r4,	r14	
 31c:	00 65       	addc	r5,	r0	
 31e:	6d 69       	addc.b	@r9,	r13	
 320:	74 5f       	add.b	@r15+,	r4	
 322:	73 74       	.word	0x7473;	????	Illegal as 2-op instr
 324:	72 69       	addc.b	@r9+,	r2	
 326:	6e 67       	addc.b	@r7,	r14	
 328:	00 6c       	addc	r12,	r0	
 32a:	65 66       	addc.b	@r6,	r5	
 32c:	74 5f       	add.b	@r15+,	r4	
 32e:	61 6c       	addc.b	@r12,	r1	
 330:	69 67       	addc.b	@r7,	r9	
 332:	6e 00       	.word	0x006e;	????	
 334:	65 6d       	addc.b	@r13,	r5	
 336:	69 74       	subc.b	@r4,	r9	
 338:	5f 6e 75 6d 	addc.b	28021(r14),r15	;0x6d75(r14)
 33c:	62 65       	addc.b	@r5,	r2	
 33e:	72 00       	.word	0x0072;	????	
 340:	62 75       	subc.b	@r5,	r2	
 342:	69 6c       	addc.b	@r12,	r9	
 344:	64 5f       	add.b	@r15,	r4	
 346:	6e 75       	subc.b	@r5,	r14	
 348:	6d 65       	addc.b	@r5,	r13	
 34a:	72 69       	addc.b	@r9+,	r2	
 34c:	63 5f       	.word	0x5f63;	????	Illegal as 2-op instr
 34e:	70 72       	subc.b	#8,	r0	;r2 As==11
 350:	65 66       	addc.b	@r6,	r5	
 352:	69 78       	subc.b	@r8,	r9	
	...

Disassembly of section .debug_loc:

00000000 <.debug_loc>:
   0:	00 00       	.word	0x0000;	????	
   2:	20 00       	.word	0x0020;	????	
   4:	01 00       	.word	0x0001;	????	
   6:	5f 00       	.word	0x005f;	????	
   8:	00 00       	.word	0x0000;	????	
   a:	00 22       	jnz	$-1022   	;abs 0xfc0c
   c:	00 24       	jz	$+2      	;abs 0xe
   e:	00 02       	.word	0x0200;	????	
  10:	00 71       	subc	r1,	r0	
  12:	02 24       	jz	$+6      	;abs 0x18
  14:	00 26       	jz	$-1022   	;abs 0xfc16
  16:	00 02       	.word	0x0200;	????	
  18:	00 71       	subc	r1,	r0	
  1a:	04 26       	jz	$-1014   	;abs 0xfc24
  1c:	00 28       	jnc	$+2      	;abs 0x1e
  1e:	00 02       	.word	0x0200;	????	
  20:	00 71       	subc	r1,	r0	
  22:	06 28       	jnc	$+14     	;abs 0x30
  24:	00 5e       	add	r14,	r0	
  26:	00 02       	.word	0x0200;	????	
  28:	00 71       	subc	r1,	r0	
  2a:	08 00       	.word	0x0008;	????	
  2c:	00 00       	.word	0x0000;	????	
  2e:	00 22       	jnz	$-1022   	;abs 0xfc30
  30:	00 3c       	jmp	$+2      	;abs 0x32
  32:	00 01       	.word	0x0100;	????	
  34:	00 5f       	add	r15,	r0	
  36:	3c 00       	.word	0x003c;	????	
  38:	3f 00       	.word	0x003f;	????	
  3a:	01 00       	.word	0x0001;	????	
  3c:	5e 00       	.word	0x005e;	????	
  3e:	00 00       	.word	0x0000;	????	
  40:	00 22       	jnz	$-1022   	;abs 0xfc42
  42:	00 38       	jl	$+2      	;abs 0x44
  44:	00 01       	.word	0x0100;	????	
  46:	00 5e       	add	r14,	r0	
  48:	38 00       	.word	0x0038;	????	
  4a:	5e 00       	.word	0x005e;	????	
  4c:	02 00       	.word	0x0002;	????	
  4e:	91 78 00 00 	subc	0(r8),	0(r1)	;0x0000(r8), 0x0000(r1)
  52:	00 00 
  54:	30 00       	.word	0x0030;	????	
  56:	3f 00       	.word	0x003f;	????	
  58:	03 00       	.word	0x0003;	????	
  5a:	03 02       	.word	0x0203;	????	
  5c:	02 3f       	jmp	$-506    	;abs 0xfe62
  5e:	00 5a       	add	r10,	r0	
  60:	00 01       	.word	0x0100;	????	
  62:	00 5a       	add	r10,	r0	
  64:	00 00       	.word	0x0000;	????	
  66:	00 00       	.word	0x0000;	????	
  68:	34 00       	.word	0x0034;	????	
  6a:	3f 00       	.word	0x003f;	????	
  6c:	03 00       	.word	0x0003;	????	
  6e:	03 04       	.word	0x0403;	????	
  70:	02 3f       	jmp	$-506    	;abs 0xfe76
  72:	00 5c       	add	r12,	r0	
  74:	00 01       	.word	0x0100;	????	
  76:	00 5b       	add	r11,	r0	
  78:	00 00       	.word	0x0000;	????	
  7a:	00 00       	.word	0x0000;	????	
  7c:	94 00       	.word	0x0094;	????	
  7e:	a4 00       	.word	0x00a4;	????	
  80:	01 00       	.word	0x0001;	????	
  82:	5f a4 00 a7 	dadd.b	-22784(r4),r15	;0xa700(r4)
  86:	00 03       	.word	0x0300;	????	
  88:	00 03       	.word	0x0300;	????	
  8a:	02 02       	.word	0x0202;	????	
  8c:	00 00       	.word	0x0000;	????	
  8e:	00 00       	.word	0x0000;	????	
  90:	94 00       	.word	0x0094;	????	
  92:	a2 00       	.word	0x00a2;	????	
  94:	01 00       	.word	0x0001;	????	
  96:	5e a2 00 a7 	dadd.b	&0xa700,r14	
  9a:	00 01       	.word	0x0100;	????	
  9c:	00 5c       	add	r12,	r0	
  9e:	00 00       	.word	0x0000;	????	
  a0:	00 00       	.word	0x0000;	????	
  a2:	94 00       	.word	0x0094;	????	
  a4:	a7 00       	.word	0x00a7;	????	
  a6:	01 00       	.word	0x0001;	????	
  a8:	5d 00       	.word	0x005d;	????	
  aa:	00 00       	.word	0x0000;	????	
  ac:	00 aa       	dadd	r10,	r0	
  ae:	00 b6       	bit	r6,	r0	
  b0:	00 01       	.word	0x0100;	????	
  b2:	00 5f       	add	r15,	r0	
  b4:	b6 00       	.word	0x00b6;	????	
  b6:	b9 00       	.word	0x00b9;	????	
  b8:	03 00       	.word	0x0003;	????	
  ba:	03 02       	.word	0x0203;	????	
  bc:	02 00       	.word	0x0002;	????	
  be:	00 00       	.word	0x0000;	????	
  c0:	00 aa       	dadd	r10,	r0	
  c2:	00 b4       	bit	r4,	r0	
  c4:	00 01       	.word	0x0100;	????	
  c6:	00 5e       	add	r14,	r0	
  c8:	b4 00       	.word	0x00b4;	????	
  ca:	b9 00       	.word	0x00b9;	????	
  cc:	03 00       	.word	0x0003;	????	
  ce:	03 04       	.word	0x0403;	????	
  d0:	02 00       	.word	0x0002;	????	
  d2:	00 00       	.word	0x0000;	????	
  d4:	00 aa       	dadd	r10,	r0	
  d6:	00 b9       	bit	r9,	r0	
  d8:	00 01       	.word	0x0100;	????	
  da:	00 5d       	add	r13,	r0	
  dc:	00 00       	.word	0x0000;	????	
  de:	00 00       	.word	0x0000;	????	
  e0:	aa 00       	.word	0x00aa;	????	
  e2:	b9 00       	.word	0x00b9;	????	
  e4:	01 00       	.word	0x0001;	????	
  e6:	5c 00       	.word	0x005c;	????	
  e8:	00 00       	.word	0x0000;	????	
  ea:	00 00       	.word	0x0000;	????	
  ec:	00 02       	.word	0x0200;	????	
  ee:	00 02       	.word	0x0200;	????	
  f0:	00 71       	subc	r1,	r0	
  f2:	02 02       	.word	0x0202;	????	
  f4:	00 04       	.word	0x0400;	????	
  f6:	00 02       	.word	0x0200;	????	
  f8:	00 71       	subc	r1,	r0	
  fa:	04 04       	.word	0x0404;	????	
  fc:	00 06       	.word	0x0600;	????	
  fe:	00 02       	.word	0x0200;	????	
 100:	00 71       	subc	r1,	r0	
 102:	06 06       	.word	0x0606;	????	
 104:	00 08       	.word	0x0800;	????	
 106:	00 02       	.word	0x0200;	????	
 108:	00 71       	subc	r1,	r0	
 10a:	08 08       	.word	0x0808;	????	
 10c:	00 0a       	.word	0x0a00;	????	
 10e:	00 02       	.word	0x0200;	????	
 110:	00 71       	subc	r1,	r0	
 112:	0a 0a       	.word	0x0a0a;	????	
 114:	00 0c       	.word	0x0c00;	????	
 116:	00 02       	.word	0x0200;	????	
 118:	00 71       	subc	r1,	r0	
 11a:	0c 0c       	.word	0x0c0c;	????	
 11c:	00 0e       	.word	0x0e00;	????	
 11e:	00 02       	.word	0x0200;	????	
 120:	00 71       	subc	r1,	r0	
 122:	0e 0e       	.word	0x0e0e;	????	
 124:	00 10       	rrc	r0		
 126:	00 02       	.word	0x0200;	????	
 128:	00 71       	subc	r1,	r0	
 12a:	10 10 00 12 	rrc	4608(r0)	;PC rel. 0x132c
 12e:	00 02       	.word	0x0200;	????	
 130:	00 71       	subc	r1,	r0	
 132:	12 12 00 98 	push	&0x9800	
 136:	01 02       	.word	0x0201;	????	
 138:	00 71       	subc	r1,	r0	
 13a:	1a 00       	.word	0x001a;	????	
 13c:	00 00       	.word	0x0000;	????	
 13e:	00 00       	.word	0x0000;	????	
 140:	00 1e       	.word	0x1e00;	????	
 142:	00 01       	.word	0x0100;	????	
 144:	00 5f       	add	r15,	r0	
 146:	1e 00       	.word	0x001e;	????	
 148:	90 01       	.word	0x0190;	????	
 14a:	01 00       	.word	0x0001;	????	
 14c:	58 00       	.word	0x0058;	????	
 14e:	00 00       	.word	0x0000;	????	
 150:	00 00       	.word	0x0000;	????	
 152:	00 2c       	jc	$+2      	;abs 0x154
 154:	00 01       	.word	0x0100;	????	
 156:	00 5e       	add	r14,	r0	
 158:	2c 00       	.word	0x002c;	????	
 15a:	5e 01       	.word	0x015e;	????	
 15c:	02 00       	.word	0x0002;	????	
 15e:	91 6a 00 00 	addc	0(r10),	0(r1)	;0x0000(r10), 0x0000(r1)
 162:	00 00 
 164:	00 00       	.word	0x0000;	????	
 166:	22 00       	.word	0x0022;	????	
 168:	01 00       	.word	0x0001;	????	
 16a:	5d 22       	jnz	$-836    	;abs 0xfe26
 16c:	00 92       	cmp	r2,	r0	
 16e:	01 01       	.word	0x0101;	????	
 170:	00 59       	add	r9,	r0	
 172:	00 00       	.word	0x0000;	????	
 174:	00 00       	.word	0x0000;	????	
 176:	00 00       	.word	0x0000;	????	
 178:	24 00       	.word	0x0024;	????	
 17a:	02 00       	.word	0x0002;	????	
 17c:	91 00       	.word	0x0091;	????	
 17e:	24 00       	.word	0x0024;	????	
 180:	28 00       	.word	0x0028;	????	
 182:	07 00       	.word	0x0007;	????	
 184:	93 02       	.word	0x0293;	????	
 186:	5c 93       	cmp.b	#1,	r12	;r3 As==01
 188:	01 93       	tst	r1		
 18a:	01 28       	jnc	$+4      	;abs 0x18e
 18c:	00 50       	rla	r0		
 18e:	00 08       	.word	0x0800;	????	
 190:	00 93       	tst	r0		
 192:	02 5c       	add	r12,	r2	
 194:	93 01       	.word	0x0193;	????	
 196:	54 93       	cmp.b	#1,	r4	;r3 As==01
 198:	01 50       	add	r0,	r1	
 19a:	00 54       	add	r4,	r0	
 19c:	00 05       	.word	0x0500;	????	
 19e:	00 93       	tst	r0		
 1a0:	03 54       	.word	0x5403;	????	Illegal as 2-op instr
 1a2:	93 01       	.word	0x0193;	????	
 1a4:	54 00       	.word	0x0054;	????	
 1a6:	6c 00       	.word	0x006c;	????	
 1a8:	08 00       	.word	0x0008;	????	
 1aa:	93 02       	.word	0x0293;	????	
 1ac:	5c 93       	cmp.b	#1,	r12	;r3 As==01
 1ae:	01 54       	add	r4,	r1	
 1b0:	93 01       	.word	0x0193;	????	
 1b2:	6c 00       	.word	0x006c;	????	
 1b4:	70 00       	.word	0x0070;	????	
 1b6:	05 00       	.word	0x0005;	????	
 1b8:	93 03       	.word	0x0393;	????	
 1ba:	54 93       	cmp.b	#1,	r4	;r3 As==01
 1bc:	01 70       	subc	r0,	r1	
 1be:	00 72       	subc	r2,	r0	
 1c0:	00 08       	.word	0x0800;	????	
 1c2:	00 93       	tst	r0		
 1c4:	02 5c       	add	r12,	r2	
 1c6:	93 01       	.word	0x0193;	????	
 1c8:	54 93       	cmp.b	#1,	r4	;r3 As==01
 1ca:	01 72       	subc	r2,	r1	
 1cc:	00 44       	br	r4		
 1ce:	01 05       	.word	0x0501;	????	
 1d0:	00 93       	tst	r0		
 1d2:	03 54       	.word	0x5403;	????	Illegal as 2-op instr
 1d4:	93 01       	.word	0x0193;	????	
 1d6:	4c 01       	.word	0x014c;	????	
 1d8:	5e 01       	.word	0x015e;	????	
 1da:	05 00       	.word	0x0005;	????	
 1dc:	93 03       	.word	0x0393;	????	
 1de:	54 93       	cmp.b	#1,	r4	;r3 As==01
 1e0:	01 00       	.word	0x0001;	????	
 1e2:	00 00       	.word	0x0000;	????	
 1e4:	00 28       	jnc	$+2      	;abs 0x1e6
 1e6:	00 0e       	.word	0x0e00;	????	
 1e8:	01 02       	.word	0x0201;	????	
 1ea:	00 30       	jn	$+2      	;abs 0x1ec
 1ec:	9f 0e       	.word	0x0e9f;	????	
 1ee:	01 22       	jnz	$-1020   	;abs 0xfdf2
 1f0:	01 01       	.word	0x0101;	????	
 1f2:	00 5b       	add	r11,	r0	
 1f4:	22 01       	.word	0x0122;	????	
 1f6:	28 01       	.word	0x0128;	????	
 1f8:	02 00       	.word	0x0002;	????	
 1fa:	30 9f       	cmp	@r15+,	r0	
 1fc:	28 01       	.word	0x0128;	????	
 1fe:	44 01       	.word	0x0144;	????	
 200:	01 00       	.word	0x0001;	????	
 202:	5b 5e 01 96 	add.b	-27135(r14),r11	;0x9601(r14)
 206:	01 01       	.word	0x0101;	????	
 208:	00 5b       	add	r11,	r0	
 20a:	96 01       	.word	0x0196;	????	
 20c:	98 01       	.word	0x0198;	????	
 20e:	01 00       	.word	0x0001;	????	
 210:	5f 00       	.word	0x005f;	????	
 212:	00 00       	.word	0x0000;	????	
 214:	00 28       	jnc	$+2      	;abs 0x216
 216:	00 ee       	xor	r14,	r0	
 218:	00 02       	.word	0x0200;	????	
 21a:	00 30       	jn	$+2      	;abs 0x21c
 21c:	9f ee 00 fc 	xor	-1024(r14),256(r15);0xfc00(r14), 0x0100(r15)
 220:	00 01 
 222:	00 56       	add	r6,	r0	
 224:	fc 00       	.word	0x00fc;	????	
 226:	fe 00       	.word	0x00fe;	????	
 228:	02 00       	.word	0x0002;	????	
 22a:	30 9f       	cmp	@r15+,	r0	
 22c:	fe 00       	.word	0x00fe;	????	
 22e:	0a 01       	.word	0x010a;	????	
 230:	01 00       	.word	0x0001;	????	
 232:	56 0e       	.word	0x0e56;	????	
 234:	01 22       	jnz	$-1020   	;abs 0xfe38
 236:	01 01       	.word	0x0101;	????	
 238:	00 56       	add	r6,	r0	
 23a:	22 01       	.word	0x0122;	????	
 23c:	28 01       	.word	0x0128;	????	
 23e:	02 00       	.word	0x0002;	????	
 240:	30 9f       	cmp	@r15+,	r0	
 242:	28 01       	.word	0x0128;	????	
 244:	8c 01       	.word	0x018c;	????	
 246:	01 00       	.word	0x0001;	????	
 248:	56 00       	.word	0x0056;	????	
 24a:	00 00       	.word	0x0000;	????	
 24c:	00 2a       	jnc	$-1022   	;abs 0xfe4e
 24e:	00 a2       	dadd	r2,	r0	
 250:	00 01       	.word	0x0100;	????	
 252:	00 55       	add	r5,	r0	
 254:	a2 00       	.word	0x00a2;	????	
 256:	5e 01       	.word	0x015e;	????	
 258:	01 00       	.word	0x0001;	????	
 25a:	57 5e 01 60 	add.b	24577(r14),r7	;0x6001(r14)
 25e:	01 03       	.word	0x0301;	????	
 260:	00 77       	subc	r7,	r0	
 262:	7f 9f       	cmp.b	@r15+,	r15	
 264:	60 01       	.word	0x0160;	????	
 266:	70 01       	.word	0x0170;	????	
 268:	01 00       	.word	0x0001;	????	
 26a:	57 70 01 76 	subc.b	30209(r0),r7	;PC rel. 0x786d
 26e:	01 03       	.word	0x0301;	????	
 270:	00 77       	subc	r7,	r0	
 272:	7f 9f       	cmp.b	@r15+,	r15	
 274:	00 00       	.word	0x0000;	????	
 276:	00 00       	.word	0x0000;	????	
 278:	2a 00       	.word	0x002a;	????	
 27a:	3a 00       	.word	0x003a;	????	
 27c:	08 00       	.word	0x0008;	????	
 27e:	93 02       	.word	0x0293;	????	
 280:	5c 93       	cmp.b	#1,	r12	;r3 As==01
 282:	01 54       	add	r4,	r1	
 284:	93 01       	.word	0x0193;	????	
 286:	54 00       	.word	0x0054;	????	
 288:	6c 00       	.word	0x006c;	????	
 28a:	07 00       	.word	0x0007;	????	
 28c:	93 02       	.word	0x0293;	????	
 28e:	5c 93       	cmp.b	#1,	r12	;r3 As==01
 290:	01 93       	tst	r1		
 292:	01 70       	subc	r0,	r1	
 294:	00 72       	subc	r2,	r0	
 296:	00 07       	.word	0x0700;	????	
 298:	00 93       	tst	r0		
 29a:	02 5c       	add	r12,	r2	
 29c:	93 01       	.word	0x0193;	????	
 29e:	93 01       	.word	0x0193;	????	
 2a0:	4c 01       	.word	0x014c;	????	
 2a2:	5e 01       	.word	0x015e;	????	
 2a4:	05 00       	.word	0x0005;	????	
 2a6:	93 03       	.word	0x0393;	????	
 2a8:	54 93       	cmp.b	#1,	r4	;r3 As==01
 2aa:	01 00       	.word	0x0001;	????	
 2ac:	00 00       	.word	0x0000;	????	
 2ae:	00 2a       	jnc	$-1022   	;abs 0xfeb0
 2b0:	00 86       	sub	r6,	r0	
 2b2:	01 01       	.word	0x0101;	????	
 2b4:	00 51       	add	r1,	r0	
 2b6:	86 01       	.word	0x0186;	????	
 2b8:	98 01       	.word	0x0198;	????	
 2ba:	03 00       	.word	0x0003;	????	
 2bc:	91 66 9f 00 	addc	159(r6),0(r1)	;0x009f(r6), 0x0000(r1)
 2c0:	00 00 
 2c2:	00 2a       	jnc	$-1022   	;abs 0xfec4
 2c4:	00 38       	jl	$+2      	;abs 0x2c6
 2c6:	00 01       	.word	0x0100;	????	
 2c8:	00 51       	add	r1,	r0	
 2ca:	38 00       	.word	0x0038;	????	
 2cc:	4e 00       	.word	0x004e;	????	
 2ce:	03 00       	.word	0x0003;	????	
 2d0:	91 67 9f 4e 	addc	20127(r7),21504(r1);0x4e9f(r7), 0x5400(r1)
 2d4:	00 54 
 2d6:	00 03       	.word	0x0300;	????	
 2d8:	00 91       	cmp	r1,	r0	
 2da:	68 9f       	cmp.b	@r15,	r8	
 2dc:	54 00       	.word	0x0054;	????	
 2de:	60 00       	.word	0x0060;	????	
 2e0:	01 00       	.word	0x0001;	????	
 2e2:	51 60 00 62 	addc.b	25088(r0),r1	;PC rel. 0x64e4
 2e6:	00 03       	.word	0x0300;	????	
 2e8:	00 91       	cmp	r1,	r0	
 2ea:	67 9f       	cmp.b	@r15,	r7	
 2ec:	62 00       	.word	0x0062;	????	
 2ee:	6a 00       	.word	0x006a;	????	
 2f0:	01 00       	.word	0x0001;	????	
 2f2:	51 6a 00 70 	addc.b	28672(r10),r1	;0x7000(r10)
 2f6:	00 03       	.word	0x0300;	????	
 2f8:	00 91       	cmp	r1,	r0	
 2fa:	67 9f       	cmp.b	@r15,	r7	
 2fc:	70 00       	.word	0x0070;	????	
 2fe:	72 00       	.word	0x0072;	????	
 300:	01 00       	.word	0x0001;	????	
 302:	51 72 00 76 	subc.b	&0x7600,r1	
 306:	00 01       	.word	0x0100;	????	
 308:	00 5c       	add	r12,	r0	
 30a:	76 00       	.word	0x0076;	????	
 30c:	90 00       	.word	0x0090;	????	
 30e:	01 00       	.word	0x0001;	????	
 310:	5a 00       	.word	0x005a;	????	
 312:	00 00       	.word	0x0000;	????	
 314:	00 aa       	dadd	r10,	r0	
 316:	00 0e       	.word	0x0e00;	????	
 318:	01 03       	.word	0x0301;	????	
 31a:	00 08       	.word	0x0800;	????	
 31c:	20 9f       	cmp	@r15,	r0	
 31e:	0e 01       	.word	0x010e;	????	
 320:	22 01       	.word	0x0122;	????	
 322:	02 00       	.word	0x0002;	????	
 324:	91 6c 00 00 	addc	0(r12),	0(r1)	;0x0000(r12), 0x0000(r1)
 328:	00 00 
 32a:	bc 00       	.word	0x00bc;	????	
 32c:	de 00       	.word	0x00de;	????	
 32e:	01 00       	.word	0x0001;	????	
 330:	5d de 00 0c 	bis.b	3072(r14),r13	;0x0c00(r14)
 334:	01 01       	.word	0x0101;	????	
 336:	00 55       	add	r5,	r0	
 338:	00 00       	.word	0x0000;	????	
 33a:	00 00       	.word	0x0000;	????	
 33c:	98 01       	.word	0x0198;	????	
 33e:	9a 01       	.word	0x019a;	????	
 340:	02 00       	.word	0x0002;	????	
 342:	71 02       	.word	0x0271;	????	
 344:	9a 01       	.word	0x019a;	????	
 346:	9c 01       	.word	0x019c;	????	
 348:	02 00       	.word	0x0002;	????	
 34a:	71 04       	.word	0x0471;	????	
 34c:	9c 01       	.word	0x019c;	????	
 34e:	9e 01       	.word	0x019e;	????	
 350:	02 00       	.word	0x0002;	????	
 352:	71 06       	.word	0x0671;	????	
 354:	9e 01       	.word	0x019e;	????	
 356:	a0 01       	.word	0x01a0;	????	
 358:	02 00       	.word	0x0002;	????	
 35a:	71 08       	.word	0x0871;	????	
 35c:	a0 01       	.word	0x01a0;	????	
 35e:	a2 01       	.word	0x01a2;	????	
 360:	02 00       	.word	0x0002;	????	
 362:	71 0a       	.word	0x0a71;	????	
 364:	a2 01       	.word	0x01a2;	????	
 366:	a4 01       	.word	0x01a4;	????	
 368:	02 00       	.word	0x0002;	????	
 36a:	71 0c       	.word	0x0c71;	????	
 36c:	a4 01       	.word	0x01a4;	????	
 36e:	a6 01       	.word	0x01a6;	????	
 370:	02 00       	.word	0x0002;	????	
 372:	71 0e       	.word	0x0e71;	????	
 374:	a6 01       	.word	0x01a6;	????	
 376:	a8 01       	.word	0x01a8;	????	
 378:	02 00       	.word	0x0002;	????	
 37a:	71 10       	rrc.b	@r1+		
 37c:	a8 01       	.word	0x01a8;	????	
 37e:	ac 01       	.word	0x01ac;	????	
 380:	02 00       	.word	0x0002;	????	
 382:	71 12       	push.b	@r1+		
 384:	ac 01       	.word	0x01ac;	????	
 386:	12 04       	.word	0x0412;	????	
 388:	03 00       	.word	0x0003;	????	
 38a:	71 dc       	bis.b	@r12+,	r1	
 38c:	00 12       	push	r0		
 38e:	04 20       	jnz	$+10     	;abs 0x398
 390:	04 03       	.word	0x0304;	????	
 392:	00 71       	subc	r1,	r0	
 394:	e0 00       	.word	0x00e0;	????	
 396:	20 04       	.word	0x0420;	????	
 398:	de 05       	.word	0x05de;	????	
 39a:	03 00       	.word	0x0003;	????	
 39c:	71 dc       	bis.b	@r12+,	r1	
 39e:	00 de       	bis	r14,	r0	
 3a0:	05 ee       	xor	r14,	r5	
 3a2:	05 03       	.word	0x0305;	????	
 3a4:	00 71       	subc	r1,	r0	
 3a6:	e4 00       	.word	0x00e4;	????	
 3a8:	ee 05       	.word	0x05ee;	????	
 3aa:	2c 06       	.word	0x062c;	????	
 3ac:	03 00       	.word	0x0003;	????	
 3ae:	71 dc       	bis.b	@r12+,	r1	
 3b0:	00 2c       	jc	$+2      	;abs 0x3b2
 3b2:	06 3c       	jmp	$+14     	;abs 0x3c0
 3b4:	06 03       	.word	0x0306;	????	
 3b6:	00 71       	subc	r1,	r0	
 3b8:	e4 00       	.word	0x00e4;	????	
 3ba:	3c 06       	.word	0x063c;	????	
 3bc:	bc 07       	.word	0x07bc;	????	
 3be:	03 00       	.word	0x0003;	????	
 3c0:	71 dc       	bis.b	@r12+,	r1	
 3c2:	00 bc       	bit	r12,	r0	
 3c4:	07 ce       	bic	r14,	r7	
 3c6:	07 03       	.word	0x0307;	????	
 3c8:	00 71       	subc	r1,	r0	
 3ca:	e0 00       	.word	0x00e0;	????	
 3cc:	ce 07       	.word	0x07ce;	????	
 3ce:	36 08       	.word	0x0836;	????	
 3d0:	03 00       	.word	0x0003;	????	
 3d2:	71 dc       	bis.b	@r12+,	r1	
 3d4:	00 00       	.word	0x0000;	????	
 3d6:	00 00       	.word	0x0000;	????	
 3d8:	00 98       	cmp	r8,	r0	
 3da:	01 e4       	xor	r4,	r1	
 3dc:	01 01       	.word	0x0101;	????	
 3de:	00 5f       	add	r15,	r0	
 3e0:	e4 01       	.word	0x01e4;	????	
 3e2:	36 08       	.word	0x0836;	????	
 3e4:	02 00       	.word	0x0002;	????	
 3e6:	91 5e 00 00 	add	0(r14),	0(r1)	;0x0000(r14), 0x0000(r1)
 3ea:	00 00 
 3ec:	98 01       	.word	0x0198;	????	
 3ee:	d8 01       	.word	0x01d8;	????	
 3f0:	01 00       	.word	0x0001;	????	
 3f2:	5e e4 01 84 	xor.b	-31743(r4),r14	;0x8401(r4)
 3f6:	04 03       	.word	0x0304;	????	
 3f8:	00 76       	subc	r6,	r0	
 3fa:	01 9f       	cmp	r15,	r1	
 3fc:	84 04       	.word	0x0484;	????	
 3fe:	12 08       	.word	0x0812;	????	
 400:	02 00       	.word	0x0002;	????	
 402:	91 64 12 08 	addc	2066(r4),2068(r1);0x0812(r4), 0x0814(r1)
 406:	14 08 
 408:	01 00       	.word	0x0001;	????	
 40a:	56 14       	.word	0x1456;	????	
 40c:	08 2a       	jnc	$-1006   	;abs 0x1e
 40e:	08 03       	.word	0x0308;	????	
 410:	00 76       	subc	r6,	r0	
 412:	01 9f       	cmp	r15,	r1	
 414:	00 00       	.word	0x0000;	????	
 416:	00 00       	.word	0x0000;	????	
 418:	98 01       	.word	0x0198;	????	
 41a:	e4 01       	.word	0x01e4;	????	
 41c:	01 00       	.word	0x0001;	????	
 41e:	5d e4 01 1a 	xor.b	6657(r4),r13	;0x1a01(r4)
 422:	02 01       	.word	0x0102;	????	
 424:	00 55       	add	r5,	r0	
 426:	1a 02       	.word	0x021a;	????	
 428:	1c 02       	.word	0x021c;	????	
 42a:	01 00       	.word	0x0001;	????	
 42c:	57 1c       	.word	0x1c57;	????	
 42e:	02 3c       	jmp	$+6      	;abs 0x434
 430:	03 01       	.word	0x0103;	????	
 432:	00 55       	add	r5,	r0	
 434:	3c 03       	.word	0x033c;	????	
 436:	66 03       	.word	0x0366;	????	
 438:	01 00       	.word	0x0001;	????	
 43a:	5e 66 03 c0 	addc.b	-16381(r6),r14	;0xc003(r6)
 43e:	03 01       	.word	0x0103;	????	
 440:	00 55       	add	r5,	r0	
 442:	c0 03       	.word	0x03c0;	????	
 444:	dc 03       	.word	0x03dc;	????	
 446:	01 00       	.word	0x0001;	????	
 448:	57 dc 03 e0 	bis.b	-8189(r12),r7	;0xe003(r12)
 44c:	03 01       	.word	0x0103;	????	
 44e:	00 55       	add	r5,	r0	
 450:	e0 03       	.word	0x03e0;	????	
 452:	2a 04       	.word	0x042a;	????	
 454:	01 00       	.word	0x0001;	????	
 456:	57 2a       	jnc	$-848    	;abs 0x106
 458:	04 2e       	jc	$-1014   	;abs 0x62
 45a:	04 01       	.word	0x0104;	????	
 45c:	00 55       	add	r5,	r0	
 45e:	2e 04       	.word	0x042e;	????	
 460:	58 04       	.word	0x0458;	????	
 462:	01 00       	.word	0x0001;	????	
 464:	57 58 04 7a 	add.b	31236(r8),r7	;0x7a04(r8)
 468:	04 01       	.word	0x0104;	????	
 46a:	00 55       	add	r5,	r0	
 46c:	7a 04       	.word	0x047a;	????	
 46e:	be 04       	.word	0x04be;	????	
 470:	01 00       	.word	0x0001;	????	
 472:	5c be 04 c6 	bit.b	-14844(r14),r12	;0xc604(r14)
 476:	04 01       	.word	0x0104;	????	
 478:	00 55       	add	r5,	r0	
 47a:	c6 04       	.word	0x04c6;	????	
 47c:	de 04       	.word	0x04de;	????	
 47e:	01 00       	.word	0x0001;	????	
 480:	57 de 04 e0 	bis.b	-8188(r14),r7	;0xe004(r14)
 484:	04 01       	.word	0x0104;	????	
 486:	00 55       	add	r5,	r0	
 488:	e0 04       	.word	0x04e0;	????	
 48a:	fe 04       	.word	0x04fe;	????	
 48c:	01 00       	.word	0x0001;	????	
 48e:	57 fe 04 02 	and.b	516(r14),r7	;0x0204(r14)
 492:	08 01       	.word	0x0108;	????	
 494:	00 55       	add	r5,	r0	
 496:	02 08       	.word	0x0802;	????	
 498:	08 08       	.word	0x0808;	????	
 49a:	01 00       	.word	0x0001;	????	
 49c:	5e 08       	.word	0x085e;	????	
 49e:	08 28       	jnc	$+18     	;abs 0x4b0
 4a0:	08 01       	.word	0x0108;	????	
 4a2:	00 55       	add	r5,	r0	
 4a4:	00 00       	.word	0x0000;	????	
 4a6:	00 00       	.word	0x0000;	????	
 4a8:	b4 01       	.word	0x01b4;	????	
 4aa:	e4 01       	.word	0x01e4;	????	
 4ac:	02 00       	.word	0x0002;	????	
 4ae:	30 9f       	cmp	@r15+,	r0	
 4b0:	e4 01       	.word	0x01e4;	????	
 4b2:	d4 07       	.word	0x07d4;	????	
 4b4:	02 00       	.word	0x0002;	????	
 4b6:	91 50 d4 07 	add	2004(r0),2011(r1);PC rel. 0x0c8c, 0x07db(r1)
 4ba:	db 07 
 4bc:	01 00       	.word	0x0001;	????	
 4be:	5e e0 07 ee 	xor.b	-4601(r0),r14	;PC rel. 0xf2c7
 4c2:	07 01       	.word	0x0107;	????	
 4c4:	00 5e       	add	r14,	r0	
 4c6:	ee 07       	.word	0x07ee;	????	
 4c8:	36 08       	.word	0x0836;	????	
 4ca:	02 00       	.word	0x0002;	????	
 4cc:	91 50 00 00 	add	0(r0),	0(r1)	;PC rel. 0x04ce, 0x0000(r1)
 4d0:	00 00 
 4d2:	b4 01       	.word	0x01b4;	????	
 4d4:	e4 01       	.word	0x01e4;	????	
 4d6:	02 00       	.word	0x0002;	????	
 4d8:	30 9f       	cmp	@r15+,	r0	
 4da:	e4 01       	.word	0x01e4;	????	
 4dc:	fe 01       	.word	0x01fe;	????	
 4de:	01 00       	.word	0x0001;	????	
 4e0:	57 fe 01 1a 	and.b	6657(r14),r7	;0x1a01(r14)
 4e4:	02 02       	.word	0x0202;	????	
 4e6:	00 31       	jn	$+514    	;abs 0x6e8
 4e8:	9f 28       	jnc	$+320    	;abs 0x628
 4ea:	02 2c       	jc	$+6      	;abs 0x4f0
 4ec:	02 02       	.word	0x0202;	????	
 4ee:	00 30       	jn	$+2      	;abs 0x4f0
 4f0:	9f 2c       	jc	$+320    	;abs 0x630
 4f2:	02 be       	bit	r14,	r2	
 4f4:	03 01       	.word	0x0103;	????	
 4f6:	00 57       	add	r7,	r0	
 4f8:	dc 03       	.word	0x03dc;	????	
 4fa:	de 03       	.word	0x03de;	????	
 4fc:	01 00       	.word	0x0001;	????	
 4fe:	57 24       	jz	$+176    	;abs 0x5ae
 500:	04 2a       	jnc	$-1014   	;abs 0x10a
 502:	04 02       	.word	0x0204;	????	
 504:	00 30       	jn	$+2      	;abs 0x506
 506:	9f 2a       	jnc	$-704    	;abs 0x246
 508:	04 2c       	jc	$+10     	;abs 0x512
 50a:	04 01       	.word	0x0104;	????	
 50c:	00 57       	add	r7,	r0	
 50e:	58 04       	.word	0x0458;	????	
 510:	80 04       	.word	0x0480;	????	
 512:	01 00       	.word	0x0001;	????	
 514:	57 be 04 c2 	bit.b	-15868(r14),r7	;0xc204(r14)
 518:	04 01       	.word	0x0104;	????	
 51a:	00 57       	add	r7,	r0	
 51c:	d2 07       	.word	0x07d2;	????	
 51e:	d4 07       	.word	0x07d4;	????	
 520:	02 00       	.word	0x0002;	????	
 522:	30 9f       	cmp	@r15+,	r0	
 524:	d4 07       	.word	0x07d4;	????	
 526:	ee 07       	.word	0x07ee;	????	
 528:	01 00       	.word	0x0001;	????	
 52a:	57 f2 07 08 	and.b	&0x0807,r7	
 52e:	08 01       	.word	0x0108;	????	
 530:	00 57       	add	r7,	r0	
 532:	12 08       	.word	0x0812;	????	
 534:	2c 08       	.word	0x082c;	????	
 536:	01 00       	.word	0x0001;	????	
 538:	57 00       	.word	0x0057;	????	
 53a:	00 00       	.word	0x0000;	????	
 53c:	00 b4       	bit	r4,	r0	
 53e:	01 e4       	xor	r4,	r1	
 540:	01 02       	.word	0x0201;	????	
 542:	00 30       	jn	$+2      	;abs 0x544
 544:	9f e4 01 f6 	xor	-2559(r4),513(r15);0xf601(r4), 0x0201(r15)
 548:	01 02 
 54a:	00 91       	cmp	r1,	r0	
 54c:	4a f6       	and.b	r6,	r10	
 54e:	01 1a       	.word	0x1a01;	????	
 550:	02 02       	.word	0x0202;	????	
 552:	00 30       	jn	$+2      	;abs 0x554
 554:	9f 1a       	.word	0x1a9f;	????	
 556:	02 46       	mov	r6,	r2	
 558:	03 02       	.word	0x0203;	????	
 55a:	00 91       	cmp	r1,	r0	
 55c:	4a 46       	mov.b	r6,	r10	
 55e:	03 48       	.word	0x4803;	????	Illegal as 2-op instr
 560:	03 02       	.word	0x0203;	????	
 562:	00 75       	subc	r5,	r0	
 564:	00 48       	br	r8		
 566:	03 96       	.word	0x9603;	????	Illegal as 2-op instr
 568:	03 02       	.word	0x0203;	????	
 56a:	00 91       	cmp	r1,	r0	
 56c:	4a 96       	cmp.b	r6,	r10	
 56e:	03 b4       	.word	0xb403;	????	Illegal as 2-op instr
 570:	03 06       	.word	0x0603;	????	
 572:	00 91       	cmp	r1,	r0	
 574:	4a 06       	.word	0x064a;	????	
 576:	3a 1e       	.word	0x1e3a;	????	
 578:	9f b4 03 08 	bit	2051(r4),520(r15);0x0803(r4), 0x0208(r15)
 57c:	08 02 
 57e:	00 91       	cmp	r1,	r0	
 580:	4a 12       	push.b	r10		
 582:	08 36       	jge	$-1006   	;abs 0x194
 584:	08 02       	.word	0x0208;	????	
 586:	00 91       	cmp	r1,	r0	
 588:	4a 00       	.word	0x004a;	????	
 58a:	00 00       	.word	0x0000;	????	
 58c:	00 b4       	bit	r4,	r0	
 58e:	01 e4       	xor	r4,	r1	
 590:	01 02       	.word	0x0201;	????	
 592:	00 30       	jn	$+2      	;abs 0x594
 594:	9f e4 01 f6 	xor	-2559(r4),513(r15);0xf601(r4), 0x0201(r15)
 598:	01 02 
 59a:	00 91       	cmp	r1,	r0	
 59c:	54 f6 01 1a 	and.b	6657(r6),r4	;0x1a01(r6)
 5a0:	02 02       	.word	0x0202;	????	
 5a2:	00 30       	jn	$+2      	;abs 0x5a4
 5a4:	9f 1a       	.word	0x1a9f;	????	
 5a6:	02 08       	.word	0x0802;	????	
 5a8:	08 02       	.word	0x0208;	????	
 5aa:	00 91       	cmp	r1,	r0	
 5ac:	54 12 08 36 	push.b	13832(r4)	;0x3608(r4)
 5b0:	08 02       	.word	0x0208;	????	
 5b2:	00 91       	cmp	r1,	r0	
 5b4:	54 00       	.word	0x0054;	????	
 5b6:	00 00       	.word	0x0000;	????	
 5b8:	00 b4       	bit	r4,	r0	
 5ba:	01 d8       	bis	r8,	r1	
 5bc:	01 01       	.word	0x0101;	????	
 5be:	00 5e       	add	r14,	r0	
 5c0:	d8 01       	.word	0x01d8;	????	
 5c2:	e4 01       	.word	0x01e4;	????	
 5c4:	01 00       	.word	0x0001;	????	
 5c6:	56 e4 01 fe 	xor.b	-511(r4),r6	;0xfe01(r4)
 5ca:	01 02       	.word	0x0201;	????	
 5cc:	00 91       	cmp	r1,	r0	
 5ce:	62 fe       	and.b	@r14,	r2	
 5d0:	01 1a       	.word	0x1a01;	????	
 5d2:	02 01       	.word	0x0102;	????	
 5d4:	00 56       	add	r6,	r0	
 5d6:	1a 02       	.word	0x021a;	????	
 5d8:	d4 07       	.word	0x07d4;	????	
 5da:	02 00       	.word	0x0002;	????	
 5dc:	91 62 d4 07 	addc	&0x07d4,2006(r1);0x07d6(r1)
 5e0:	d6 07 
 5e2:	01 00       	.word	0x0001;	????	
 5e4:	59 d6 07 d8 	bis.b	-10233(r6),r9	;0xd807(r6)
 5e8:	07 03       	.word	0x0307;	????	
 5ea:	00 79       	subc	r9,	r0	
 5ec:	7f 9f       	cmp.b	@r15+,	r15	
 5ee:	d8 07       	.word	0x07d8;	????	
 5f0:	dc 07       	.word	0x07dc;	????	
 5f2:	01 00       	.word	0x0001;	????	
 5f4:	59 e0 07 ee 	xor.b	-4601(r0),r9	;PC rel. 0xf3fd
 5f8:	07 01       	.word	0x0107;	????	
 5fa:	00 59       	add	r9,	r0	
 5fc:	ee 07       	.word	0x07ee;	????	
 5fe:	36 08       	.word	0x0836;	????	
 600:	02 00       	.word	0x0002;	????	
 602:	91 62 00 00 	addc	&0x0000,0(r1)	;0x0000(r1)
 606:	00 00 
 608:	ce 03       	.word	0x03ce;	????	
 60a:	dc 03       	.word	0x03dc;	????	
 60c:	04 00       	.word	0x0004;	????	
 60e:	91 a8 7f 9f 	dadd	-24705(r8),994(r1)	;0x9f7f(r8), 0x03e2(r1)
 612:	e2 03 
 614:	0a 04       	.word	0x040a;	????	
 616:	01 00       	.word	0x0001;	????	
 618:	5e 8e 05 92 	sub.b	-28155(r14),r14	;0x9205(r14)
 61c:	05 04       	.word	0x0405;	????	
 61e:	00 91       	cmp	r1,	r0	
 620:	bf 7f 9f 92 	subc	@r15+,	-28001(r15);0x929f(r15)
 624:	05 b0       	bit	r0,	r5	
 626:	05 04       	.word	0x0405;	????	
 628:	00 91       	cmp	r1,	r0	
 62a:	be 7f 9f 1c 	subc	@r15+,	7327(r14);0x1c9f(r14)
 62e:	06 6a       	addc	r10,	r6	
 630:	06 01       	.word	0x0106;	????	
 632:	00 56       	add	r6,	r0	
 634:	6a 06       	.word	0x066a;	????	
 636:	7c 06       	.word	0x067c;	????	
 638:	04 00       	.word	0x0004;	????	
 63a:	91 be 7f 9f 	bit	-24705(r14),1732(r1);0x9f7f(r14), 0x06c4(r1)
 63e:	c4 06 
 640:	ea 06       	.word	0x06ea;	????	
 642:	01 00       	.word	0x0001;	????	
 644:	56 ea 06 f4 	xor.b	-3066(r10),r6	;0xf406(r10)
 648:	06 04       	.word	0x0406;	????	
 64a:	00 91       	cmp	r1,	r0	
 64c:	be 7f 9f 2c 	subc	@r15+,	11423(r14);0x2c9f(r14)
 650:	07 d4       	bis	r4,	r7	
 652:	07 01       	.word	0x0107;	????	
 654:	00 56       	add	r6,	r0	
 656:	00 00       	.word	0x0000;	????	
 658:	00 00       	.word	0x0000;	????	
 65a:	e4 01       	.word	0x01e4;	????	
 65c:	1e 02       	.word	0x021e;	????	
 65e:	01 00       	.word	0x0001;	????	
 660:	5e 2c       	jc	$+190    	;abs 0x71e
 662:	02 e8       	xor	r8,	r2	
 664:	02 01       	.word	0x0102;	????	
 666:	00 5e       	add	r14,	r0	
 668:	e8 02       	.word	0x02e8;	????	
 66a:	c2 03       	.word	0x03c2;	????	
 66c:	02 00       	.word	0x0002;	????	
 66e:	76 00       	.word	0x0076;	????	
 670:	c2 03       	.word	0x03c2;	????	
 672:	dc 03       	.word	0x03dc;	????	
 674:	02 00       	.word	0x0002;	????	
 676:	75 00       	.word	0x0075;	????	
 678:	dc 03       	.word	0x03dc;	????	
 67a:	e2 03       	.word	0x03e2;	????	
 67c:	02 00       	.word	0x0002;	????	
 67e:	76 00       	.word	0x0076;	????	
 680:	2a 04       	.word	0x042a;	????	
 682:	36 04       	.word	0x0436;	????	
 684:	01 00       	.word	0x0001;	????	
 686:	5e 36       	jge	$-834    	;abs 0x344
 688:	04 84       	sub	r4,	r4	
 68a:	04 02       	.word	0x0204;	????	
 68c:	00 76       	subc	r6,	r0	
 68e:	00 84       	sub	r4,	r0	
 690:	04 b0       	bit	r0,	r4	
 692:	05 05       	.word	0x0505;	????	
 694:	00 91       	cmp	r1,	r0	
 696:	64 06       	.word	0x0664;	????	
 698:	31 1c       	.word	0x1c31;	????	
 69a:	6a 06       	.word	0x066a;	????	
 69c:	7c 06       	.word	0x067c;	????	
 69e:	05 00       	.word	0x0005;	????	
 6a0:	91 64 06 31 	addc	12550(r4),-5604(r1);0x3106(r4), 0xea1c(r1)
 6a4:	1c ea 
 6a6:	06 f4       	and	r4,	r6	
 6a8:	06 05       	.word	0x0506;	????	
 6aa:	00 91       	cmp	r1,	r0	
 6ac:	64 06       	.word	0x0664;	????	
 6ae:	31 1c       	.word	0x1c31;	????	
 6b0:	f2 07       	.word	0x07f2;	????	
 6b2:	02 08       	.word	0x0802;	????	
 6b4:	01 00       	.word	0x0001;	????	
 6b6:	5e 02       	.word	0x025e;	????	
 6b8:	08 0e       	.word	0x0e08;	????	
 6ba:	08 05       	.word	0x0508;	????	
 6bc:	00 91       	cmp	r1,	r0	
 6be:	64 06       	.word	0x0664;	????	
 6c0:	31 1c       	.word	0x1c31;	????	
 6c2:	14 08       	.word	0x0814;	????	
 6c4:	2a 08       	.word	0x082a;	????	
 6c6:	02 00       	.word	0x0002;	????	
 6c8:	76 00       	.word	0x0076;	????	
 6ca:	2a 08       	.word	0x082a;	????	
 6cc:	36 08       	.word	0x0836;	????	
 6ce:	01 00       	.word	0x0001;	????	
 6d0:	5e 00       	.word	0x005e;	????	
 6d2:	00 00       	.word	0x0000;	????	
 6d4:	00 34       	jge	$+2      	;abs 0x6d6
 6d6:	04 58       	add	r8,	r4	
 6d8:	04 02       	.word	0x0204;	????	
 6da:	00 40       	br	r0		
 6dc:	9f 70 04 d4 	subc	-11260(r0),519(r15);PC rel. 0xdae2, 0x0207(r15)
 6e0:	07 02 
 6e2:	00 91       	cmp	r1,	r0	
 6e4:	4c 00       	.word	0x004c;	????	
 6e6:	00 00       	.word	0x0000;	????	
 6e8:	00 b4       	bit	r4,	r0	
 6ea:	01 e4       	xor	r4,	r1	
 6ec:	01 02       	.word	0x0201;	????	
 6ee:	00 30       	jn	$+2      	;abs 0x6f0
 6f0:	9f e4 01 fe 	xor	-511(r4),513(r15);0xfe01(r4), 0x0201(r15)
 6f4:	01 02 
 6f6:	00 91       	cmp	r1,	r0	
 6f8:	4e fe       	and.b	r14,	r14	
 6fa:	01 1a       	.word	0x1a01;	????	
 6fc:	02 02       	.word	0x0202;	????	
 6fe:	00 30       	jn	$+2      	;abs 0x700
 700:	9f 1a       	.word	0x1a9f;	????	
 702:	02 b4       	bit	r4,	r2	
 704:	03 02       	.word	0x0203;	????	
 706:	00 91       	cmp	r1,	r0	
 708:	4e b4       	bit.b	r4,	r14	
 70a:	03 bc       	.word	0xbc03;	????	Illegal as 2-op instr
 70c:	03 02       	.word	0x0203;	????	
 70e:	00 31       	jn	$+514    	;abs 0x910
 710:	9f bc 03 08 	bit	2051(r12),520(r15);0x0803(r12), 0x0208(r15)
 714:	08 02 
 716:	00 91       	cmp	r1,	r0	
 718:	4e 12       	push.b	r14		
 71a:	08 36       	jge	$-1006   	;abs 0x32c
 71c:	08 02       	.word	0x0208;	????	
 71e:	00 91       	cmp	r1,	r0	
 720:	4e 00       	.word	0x004e;	????	
 722:	00 00       	.word	0x0000;	????	
 724:	00 b4       	bit	r4,	r0	
 726:	01 e4       	xor	r4,	r1	
 728:	01 02       	.word	0x0201;	????	
 72a:	00 30       	jn	$+2      	;abs 0x72c
 72c:	9f e4 01 fe 	xor	-511(r4),513(r15);0xfe01(r4), 0x0201(r15)
 730:	01 02 
 732:	00 91       	cmp	r1,	r0	
 734:	52 fe 01 1a 	and.b	6657(r14),r2	;0x1a01(r14)
 738:	02 02       	.word	0x0202;	????	
 73a:	00 30       	jn	$+2      	;abs 0x73c
 73c:	9f 1a       	.word	0x1a9f;	????	
 73e:	02 08       	.word	0x0802;	????	
 740:	08 02       	.word	0x0208;	????	
 742:	00 91       	cmp	r1,	r0	
 744:	52 12 08 36 	push.b	&0x3608	
 748:	08 02       	.word	0x0208;	????	
 74a:	00 91       	cmp	r1,	r0	
 74c:	52 00       	.word	0x0052;	????	
 74e:	00 00       	.word	0x0000;	????	
 750:	00 b4       	bit	r4,	r0	
 752:	01 e4       	xor	r4,	r1	
 754:	01 02       	.word	0x0201;	????	
 756:	00 30       	jn	$+2      	;abs 0x758
 758:	9f e4 01 fe 	xor	-511(r4),513(r15);0xfe01(r4), 0x0201(r15)
 75c:	01 02 
 75e:	00 91       	cmp	r1,	r0	
 760:	4f fe       	and.b	r14,	r15	
 762:	01 1a       	.word	0x1a01;	????	
 764:	02 02       	.word	0x0202;	????	
 766:	00 30       	jn	$+2      	;abs 0x768
 768:	9f 1a       	.word	0x1a9f;	????	
 76a:	02 08       	.word	0x0802;	????	
 76c:	08 02       	.word	0x0208;	????	
 76e:	00 91       	cmp	r1,	r0	
 770:	4f 12       	push.b	r15		
 772:	08 36       	jge	$-1006   	;abs 0x384
 774:	08 02       	.word	0x0208;	????	
 776:	00 91       	cmp	r1,	r0	
 778:	4f 00       	.word	0x004f;	????	
 77a:	00 00       	.word	0x0000;	????	
 77c:	00 b4       	bit	r4,	r0	
 77e:	01 e4       	xor	r4,	r1	
 780:	01 02       	.word	0x0201;	????	
 782:	00 30       	jn	$+2      	;abs 0x784
 784:	9f e4 01 fe 	xor	-511(r4),513(r15);0xfe01(r4), 0x0201(r15)
 788:	01 02 
 78a:	00 91       	cmp	r1,	r0	
 78c:	53 fe       	.word	0xfe53;	????	Illegal as 2-op instr
 78e:	01 1a       	.word	0x1a01;	????	
 790:	02 02       	.word	0x0202;	????	
 792:	00 30       	jn	$+2      	;abs 0x794
 794:	9f 1a       	.word	0x1a9f;	????	
 796:	02 08       	.word	0x0802;	????	
 798:	08 02       	.word	0x0208;	????	
 79a:	00 91       	cmp	r1,	r0	
 79c:	53 12       	push.b	#1		;r3 As==01
 79e:	08 36       	jge	$-1006   	;abs 0x3b0
 7a0:	08 02       	.word	0x0208;	????	
 7a2:	00 91       	cmp	r1,	r0	
 7a4:	53 00       	.word	0x0053;	????	
 7a6:	00 00       	.word	0x0000;	????	
 7a8:	00 92       	cmp	r2,	r0	
 7aa:	07 a8       	dadd	r8,	r7	
 7ac:	07 01       	.word	0x0107;	????	
 7ae:	00 5c       	add	r12,	r0	
 7b0:	00 00       	.word	0x0000;	????	
 7b2:	00 00       	.word	0x0000;	????	
 7b4:	3e 03       	.word	0x033e;	????	
 7b6:	64 03       	.word	0x0364;	????	
 7b8:	02 00       	.word	0x0002;	????	
 7ba:	75 00       	.word	0x0075;	????	
 7bc:	64 03       	.word	0x0364;	????	
 7be:	66 03       	.word	0x0366;	????	
 7c0:	02 00       	.word	0x0002;	????	
 7c2:	7e 7e       	subc.b	@r14+,	r14	
 7c4:	02 08       	.word	0x0802;	????	
 7c6:	08 08       	.word	0x0808;	????	
 7c8:	01 00       	.word	0x0001;	????	
 7ca:	5a 00       	.word	0x005a;	????	
 7cc:	00 00       	.word	0x0000;	????	
 7ce:	00 f0       	and	r0,	r0	
 7d0:	05 2e       	jc	$-1012   	;abs 0x3dc
 7d2:	06 01       	.word	0x0106;	????	
 7d4:	00 5c       	add	r12,	r0	
 7d6:	00 00       	.word	0x0000;	????	
 7d8:	00 00       	.word	0x0000;	????	
 7da:	98 06       	.word	0x0698;	????	
 7dc:	cc 06       	.word	0x06cc;	????	
 7de:	01 00       	.word	0x0001;	????	
 7e0:	5e 00       	.word	0x005e;	????	
 7e2:	00 00       	.word	0x0000;	????	
 7e4:	00 00       	.word	0x0000;	????	
 7e6:	07 32       	jn	$-1008   	;abs 0x3f6
 7e8:	07 01       	.word	0x0107;	????	
 7ea:	00 5f       	add	r15,	r0	
 7ec:	00 00       	.word	0x0000;	????	
	...

Disassembly of section .debug_ranges:

00000000 <.debug_ranges>:
   0:	d6 01       	.word	0x01d6;	????	
   2:	e0 01       	.word	0x01e0;	????	
   4:	54 07       	.word	0x0754;	????	
   6:	a8 07       	.word	0x07a8;	????	
   8:	00 00       	.word	0x0000;	????	
   a:	00 00       	.word	0x0000;	????	
   c:	38 03       	.word	0x0338;	????	
   e:	66 03       	.word	0x0366;	????	
  10:	02 08       	.word	0x0802;	????	
  12:	0e 08       	.word	0x080e;	????	
  14:	00 00       	.word	0x0000;	????	
	...
